Archive member included to satisfy reference by file (symbol)

lbm/lbm_lib/./build/basic_modem.a(smtc_modem.o)
                              build_sx1261_l0/main.o (smtc_modem_init)
lbm/lbm_lib/./build/basic_modem.a(modem_event_utilities.o)
                              lbm/lbm_lib/./build/basic_modem.a(smtc_modem.o) (get_modem_event_count)
lbm/lbm_lib/./build/basic_modem.a(fifo_ctrl.o)
                              lbm/lbm_lib/./build/basic_modem.a(smtc_modem.o) (fifo_ctrl_get_nb_elt)
lbm/lbm_lib/./build/basic_modem.a(modem_core.o)
                              lbm/lbm_lib/./build/basic_modem.a(smtc_modem.o) (modem_context_get_fifo_obj)
lbm/lbm_lib/./build/basic_modem.a(modem_supervisor_light.o)
                              lbm/lbm_lib/./build/basic_modem.a(modem_core.o) (modem_supervisor_init_callback)
lbm/lbm_lib/./build/basic_modem.a(modem_tx_protocol_manager.o)
                              lbm/lbm_lib/./build/basic_modem.a(smtc_modem.o) (modem_tx_protcol_manager_init)
lbm/lbm_lib/./build/basic_modem.a(lorawan_certification.o)
                              lbm/lbm_lib/./build/basic_modem.a(modem_core.o) (lorawan_certification_services_init)
lbm/lbm_lib/./build/basic_modem.a(lorawan_join_management.o)
                              lbm/lbm_lib/./build/basic_modem.a(modem_core.o) (lorawan_join_management_services_init)
lbm/lbm_lib/./build/basic_modem.a(lorawan_send_management.o)
                              lbm/lbm_lib/./build/basic_modem.a(modem_core.o) (lorawan_send_management_services_init)
lbm/lbm_lib/./build/basic_modem.a(lorawan_cid_request_management.o)
                              lbm/lbm_lib/./build/basic_modem.a(modem_core.o) (lorawan_cid_request_management_init)
lbm/lbm_lib/./build/basic_modem.a(lorawan_dwn_ack_management.o)
                              lbm/lbm_lib/./build/basic_modem.a(modem_core.o) (lorawan_dwn_ack_management_init)
lbm/lbm_lib/./build/basic_modem.a(soft_se.o)
                              lbm/lbm_lib/./build/basic_modem.a(smtc_modem.o) (smtc_secure_element_init)
lbm/lbm_lib/./build/basic_modem.a(smtc_real.o)
                              lbm/lbm_lib/./build/basic_modem.a(modem_tx_protocol_manager.o) (smtc_real_get_lbt_duration_ms)
lbm/lbm_lib/./build/basic_modem.a(smtc_duty_cycle.o)
                              lbm/lbm_lib/./build/basic_modem.a(modem_core.o) (smtc_duty_cycle_init)
lbm/lbm_lib/./build/basic_modem.a(smtc_lbt.o)
                              lbm/lbm_lib/./build/basic_modem.a(modem_tx_protocol_manager.o) (smtc_lbt_init)
lbm/lbm_lib/./build/basic_modem.a(ral_sx126x.o)
                              lbm/lbm_lib/./build/basic_modem.a(smtc_modem.o) (ral_sx126x_handles_part)
lbm/lbm_lib/./build/basic_modem.a(ralf_sx126x.o)
                              lbm/lbm_lib/./build/basic_modem.a(smtc_modem.o) (ralf_sx126x_setup_gfsk)
lbm/lbm_lib/./build/basic_modem.a(radio_planner.o)
                              lbm/lbm_lib/./build/basic_modem.a(smtc_modem.o) (rp_init)
lbm/lbm_lib/./build/basic_modem.a(lorawan_api.o)
                              lbm/lbm_lib/./build/basic_modem.a(modem_core.o) (lorawan_api_init)
lbm/lbm_lib/./build/basic_modem.a(smtc_modem_test.o)
                              lbm/lbm_lib/./build/basic_modem.a(lorawan_certification.o) (smtc_modem_test_start)
lbm/lbm_lib/./build/basic_modem.a(aes.o)
                              lbm/lbm_lib/./build/basic_modem.a(soft_se.o) (aes_set_key)
lbm/lbm_lib/./build/basic_modem.a(cmac.o)
                              lbm/lbm_lib/./build/basic_modem.a(soft_se.o) (AES_CMAC_Init)
lbm/lbm_lib/./build/basic_modem.a(smtc_modem_crypto.o)
                              lbm/lbm_lib/./build/basic_modem.a(lorawan_api.o) (smtc_modem_crypto_set_key)
lbm/lbm_lib/./build/basic_modem.a(region_eu_868.o)
                              lbm/lbm_lib/./build/basic_modem.a(smtc_real.o) (region_eu_868_init)
lbm/lbm_lib/./build/basic_modem.a(lr1_stack_mac_layer.o)
                              lbm/lbm_lib/./build/basic_modem.a(smtc_modem_test.o) (lr1_stack_mac_tx_lora_launch_callback_for_rp)
lbm/lbm_lib/./build/basic_modem.a(lr1mac_core.o)
                              lbm/lbm_lib/./build/basic_modem.a(lorawan_api.o) (lr1mac_core_join)
lbm/lbm_lib/./build/basic_modem.a(lr1mac_utilities.o)
                              lbm/lbm_lib/./build/basic_modem.a(lr1mac_core.o) (lr1mac_utilities_crc)
lbm/lbm_lib/./build/basic_modem.a(sx126x.o)
                              lbm/lbm_lib/./build/basic_modem.a(ral_sx126x.o) (sx126x_set_sleep)
lbm/lbm_lib/./build/basic_modem.a(sx126x_lr_fhss.o)
                              lbm/lbm_lib/./build/basic_modem.a(ral_sx126x.o) (sx126x_lr_fhss_init)
lbm/lbm_lib/./build/basic_modem.a(lr_fhss_mac.o)
                              lbm/lbm_lib/./build/basic_modem.a(ral_sx126x.o) (lr_fhss_get_hop_sequence_count)
/usr/lib/gcc/arm-none-eabi/10.3.1/../../../arm-none-eabi/lib/thumb/v6-m/nofp/libc_nano.a(lib_a-atexit.o)
                              /usr/lib/gcc/arm-none-eabi/10.3.1/../../../arm-none-eabi/lib/thumb/v6-m/nofp/crt0.o (atexit)
/usr/lib/gcc/arm-none-eabi/10.3.1/../../../arm-none-eabi/lib/thumb/v6-m/nofp/libc_nano.a(lib_a-exit.o)
                              /usr/lib/gcc/arm-none-eabi/10.3.1/../../../arm-none-eabi/lib/thumb/v6-m/nofp/crt0.o (exit)
/usr/lib/gcc/arm-none-eabi/10.3.1/../../../arm-none-eabi/lib/thumb/v6-m/nofp/libc_nano.a(lib_a-fini.o)
                              /usr/lib/gcc/arm-none-eabi/10.3.1/../../../arm-none-eabi/lib/thumb/v6-m/nofp/crt0.o (__libc_fini_array)
/usr/lib/gcc/arm-none-eabi/10.3.1/../../../arm-none-eabi/lib/thumb/v6-m/nofp/libc_nano.a(lib_a-impure.o)
                              /usr/lib/gcc/arm-none-eabi/10.3.1/../../../arm-none-eabi/lib/thumb/v6-m/nofp/libc_nano.a(lib_a-exit.o) (_global_impure_ptr)
/usr/lib/gcc/arm-none-eabi/10.3.1/../../../arm-none-eabi/lib/thumb/v6-m/nofp/libc_nano.a(lib_a-init.o)
                              /usr/lib/gcc/arm-none-eabi/10.3.1/../../../arm-none-eabi/lib/thumb/v6-m/nofp/crt0.o (__libc_init_array)
/usr/lib/gcc/arm-none-eabi/10.3.1/../../../arm-none-eabi/lib/thumb/v6-m/nofp/libc_nano.a(lib_a-memcmp.o)
                              build_sx1261_l0/settings.o (memcmp)
/usr/lib/gcc/arm-none-eabi/10.3.1/../../../arm-none-eabi/lib/thumb/v6-m/nofp/libc_nano.a(lib_a-memcpy-stub.o)
                              build_sx1261_l0/sht3x.o (memcpy)
/usr/lib/gcc/arm-none-eabi/10.3.1/../../../arm-none-eabi/lib/thumb/v6-m/nofp/libc_nano.a(lib_a-memset.o)
                              /usr/lib/gcc/arm-none-eabi/10.3.1/../../../arm-none-eabi/lib/thumb/v6-m/nofp/crt0.o (memset)
/usr/lib/gcc/arm-none-eabi/10.3.1/../../../arm-none-eabi/lib/thumb/v6-m/nofp/libc_nano.a(lib_a-rand.o)
                              build_sx1261_l0/smtc_hal_rng.o (srand)
/usr/lib/gcc/arm-none-eabi/10.3.1/../../../arm-none-eabi/lib/thumb/v6-m/nofp/libc_nano.a(lib_a-snprintf.o)
                              build_sx1261_l0/smtc_modem_hal.o (snprintf)
/usr/lib/gcc/arm-none-eabi/10.3.1/../../../arm-none-eabi/lib/thumb/v6-m/nofp/libc_nano.a(lib_a-strcmp.o)
                              lbm/lbm_lib/./build/basic_modem.a(ral_sx126x.o) (strcmp)
/usr/lib/gcc/arm-none-eabi/10.3.1/../../../arm-none-eabi/lib/thumb/v6-m/nofp/libc_nano.a(lib_a-strlen-stub.o)
                              build_sx1261_l0/smtc_hal_trace.o (strlen)
/usr/lib/gcc/arm-none-eabi/10.3.1/../../../arm-none-eabi/lib/thumb/v6-m/nofp/libc_nano.a(lib_a-vsprintf.o)
                              build_sx1261_l0/smtc_hal_trace.o (vsprintf)
/usr/lib/gcc/arm-none-eabi/10.3.1/../../../arm-none-eabi/lib/thumb/v6-m/nofp/libc_nano.a(lib_a-__atexit.o)
                              /usr/lib/gcc/arm-none-eabi/10.3.1/../../../arm-none-eabi/lib/thumb/v6-m/nofp/libc_nano.a(lib_a-atexit.o) (__register_exitproc)
/usr/lib/gcc/arm-none-eabi/10.3.1/../../../arm-none-eabi/lib/thumb/v6-m/nofp/libc_nano.a(lib_a-__call_atexit.o)
                              /usr/lib/gcc/arm-none-eabi/10.3.1/../../../arm-none-eabi/lib/thumb/v6-m/nofp/libc_nano.a(lib_a-__atexit.o) (__call_exitprocs)
/usr/lib/gcc/arm-none-eabi/10.3.1/../../../arm-none-eabi/lib/thumb/v6-m/nofp/libc_nano.a(lib_a-assert.o)
                              /usr/lib/gcc/arm-none-eabi/10.3.1/../../../arm-none-eabi/lib/thumb/v6-m/nofp/libc_nano.a(lib_a-rand.o) (__assert_func)
/usr/lib/gcc/arm-none-eabi/10.3.1/../../../arm-none-eabi/lib/thumb/v6-m/nofp/libc_nano.a(lib_a-fprintf.o)
                              /usr/lib/gcc/arm-none-eabi/10.3.1/../../../arm-none-eabi/lib/thumb/v6-m/nofp/libc_nano.a(lib_a-assert.o) (fiprintf)
/usr/lib/gcc/arm-none-eabi/10.3.1/../../../arm-none-eabi/lib/thumb/v6-m/nofp/libc_nano.a(lib_a-malloc.o)
                              /usr/lib/gcc/arm-none-eabi/10.3.1/../../../arm-none-eabi/lib/thumb/v6-m/nofp/libc_nano.a(lib_a-rand.o) (malloc)
/usr/lib/gcc/arm-none-eabi/10.3.1/../../../arm-none-eabi/lib/thumb/v6-m/nofp/libc_nano.a(lib_a-nano-freer.o)
                              /usr/lib/gcc/arm-none-eabi/10.3.1/../../../arm-none-eabi/lib/thumb/v6-m/nofp/libc_nano.a(lib_a-malloc.o) (_free_r)
/usr/lib/gcc/arm-none-eabi/10.3.1/../../../arm-none-eabi/lib/thumb/v6-m/nofp/libc_nano.a(lib_a-nano-mallocr.o)
                              /usr/lib/gcc/arm-none-eabi/10.3.1/../../../arm-none-eabi/lib/thumb/v6-m/nofp/libc_nano.a(lib_a-malloc.o) (_malloc_r)
/usr/lib/gcc/arm-none-eabi/10.3.1/../../../arm-none-eabi/lib/thumb/v6-m/nofp/libc_nano.a(lib_a-nano-svfprintf.o)
                              /usr/lib/gcc/arm-none-eabi/10.3.1/../../../arm-none-eabi/lib/thumb/v6-m/nofp/libc_nano.a(lib_a-snprintf.o) (_svfprintf_r)
/usr/lib/gcc/arm-none-eabi/10.3.1/../../../arm-none-eabi/lib/thumb/v6-m/nofp/libc_nano.a(lib_a-nano-vfprintf.o)
                              /usr/lib/gcc/arm-none-eabi/10.3.1/../../../arm-none-eabi/lib/thumb/v6-m/nofp/libc_nano.a(lib_a-fprintf.o) (_vfprintf_r)
/usr/lib/gcc/arm-none-eabi/10.3.1/../../../arm-none-eabi/lib/thumb/v6-m/nofp/libc_nano.a(lib_a-nano-vfprintf_i.o)
                              /usr/lib/gcc/arm-none-eabi/10.3.1/../../../arm-none-eabi/lib/thumb/v6-m/nofp/libc_nano.a(lib_a-nano-svfprintf.o) (_printf_i)
/usr/lib/gcc/arm-none-eabi/10.3.1/../../../arm-none-eabi/lib/thumb/v6-m/nofp/libc_nano.a(lib_a-sbrkr.o)
                              /usr/lib/gcc/arm-none-eabi/10.3.1/../../../arm-none-eabi/lib/thumb/v6-m/nofp/libc_nano.a(lib_a-nano-mallocr.o) (_sbrk_r)
/usr/lib/gcc/arm-none-eabi/10.3.1/../../../arm-none-eabi/lib/thumb/v6-m/nofp/libc_nano.a(lib_a-wbuf.o)
                              /usr/lib/gcc/arm-none-eabi/10.3.1/../../../arm-none-eabi/lib/thumb/v6-m/nofp/libc_nano.a(lib_a-nano-vfprintf.o) (__swbuf_r)
/usr/lib/gcc/arm-none-eabi/10.3.1/../../../arm-none-eabi/lib/thumb/v6-m/nofp/libc_nano.a(lib_a-wsetup.o)
                              /usr/lib/gcc/arm-none-eabi/10.3.1/../../../arm-none-eabi/lib/thumb/v6-m/nofp/libc_nano.a(lib_a-nano-vfprintf.o) (__swsetup_r)
/usr/lib/gcc/arm-none-eabi/10.3.1/../../../arm-none-eabi/lib/thumb/v6-m/nofp/libc_nano.a(lib_a-abort.o)
                              /usr/lib/gcc/arm-none-eabi/10.3.1/../../../arm-none-eabi/lib/thumb/v6-m/nofp/libc_nano.a(lib_a-assert.o) (abort)
/usr/lib/gcc/arm-none-eabi/10.3.1/../../../arm-none-eabi/lib/thumb/v6-m/nofp/libc_nano.a(lib_a-fflush.o)
                              /usr/lib/gcc/arm-none-eabi/10.3.1/../../../arm-none-eabi/lib/thumb/v6-m/nofp/libc_nano.a(lib_a-wbuf.o) (_fflush_r)
/usr/lib/gcc/arm-none-eabi/10.3.1/../../../arm-none-eabi/lib/thumb/v6-m/nofp/libc_nano.a(lib_a-findfp.o)
                              /usr/lib/gcc/arm-none-eabi/10.3.1/../../../arm-none-eabi/lib/thumb/v6-m/nofp/libc_nano.a(lib_a-nano-vfprintf.o) (__sinit)
/usr/lib/gcc/arm-none-eabi/10.3.1/../../../arm-none-eabi/lib/thumb/v6-m/nofp/libc_nano.a(lib_a-fvwrite.o)
                              /usr/lib/gcc/arm-none-eabi/10.3.1/../../../arm-none-eabi/lib/thumb/v6-m/nofp/libc_nano.a(lib_a-nano-vfprintf.o) (__sfvwrite_r)
/usr/lib/gcc/arm-none-eabi/10.3.1/../../../arm-none-eabi/lib/thumb/v6-m/nofp/libc_nano.a(lib_a-fwalk.o)
                              /usr/lib/gcc/arm-none-eabi/10.3.1/../../../arm-none-eabi/lib/thumb/v6-m/nofp/libc_nano.a(lib_a-findfp.o) (_fwalk)
/usr/lib/gcc/arm-none-eabi/10.3.1/../../../arm-none-eabi/lib/thumb/v6-m/nofp/libc_nano.a(lib_a-makebuf.o)
                              /usr/lib/gcc/arm-none-eabi/10.3.1/../../../arm-none-eabi/lib/thumb/v6-m/nofp/libc_nano.a(lib_a-wsetup.o) (__smakebuf_r)
/usr/lib/gcc/arm-none-eabi/10.3.1/../../../arm-none-eabi/lib/thumb/v6-m/nofp/libc_nano.a(lib_a-memchr-stub.o)
                              /usr/lib/gcc/arm-none-eabi/10.3.1/../../../arm-none-eabi/lib/thumb/v6-m/nofp/libc_nano.a(lib_a-nano-svfprintf.o) (memchr)
/usr/lib/gcc/arm-none-eabi/10.3.1/../../../arm-none-eabi/lib/thumb/v6-m/nofp/libc_nano.a(lib_a-memmove.o)
                              /usr/lib/gcc/arm-none-eabi/10.3.1/../../../arm-none-eabi/lib/thumb/v6-m/nofp/libc_nano.a(lib_a-nano-svfprintf.o) (memmove)
/usr/lib/gcc/arm-none-eabi/10.3.1/../../../arm-none-eabi/lib/thumb/v6-m/nofp/libc_nano.a(lib_a-mlock.o)
                              /usr/lib/gcc/arm-none-eabi/10.3.1/../../../arm-none-eabi/lib/thumb/v6-m/nofp/libc_nano.a(lib_a-nano-freer.o) (__malloc_lock)
/usr/lib/gcc/arm-none-eabi/10.3.1/../../../arm-none-eabi/lib/thumb/v6-m/nofp/libc_nano.a(lib_a-nano-reallocr.o)
                              /usr/lib/gcc/arm-none-eabi/10.3.1/../../../arm-none-eabi/lib/thumb/v6-m/nofp/libc_nano.a(lib_a-nano-svfprintf.o) (_realloc_r)
/usr/lib/gcc/arm-none-eabi/10.3.1/../../../arm-none-eabi/lib/thumb/v6-m/nofp/libc_nano.a(lib_a-reent.o)
                              /usr/lib/gcc/arm-none-eabi/10.3.1/../../../arm-none-eabi/lib/thumb/v6-m/nofp/libc_nano.a(lib_a-sbrkr.o) (errno)
/usr/lib/gcc/arm-none-eabi/10.3.1/../../../arm-none-eabi/lib/thumb/v6-m/nofp/libc_nano.a(lib_a-signal.o)
                              /usr/lib/gcc/arm-none-eabi/10.3.1/../../../arm-none-eabi/lib/thumb/v6-m/nofp/libc_nano.a(lib_a-abort.o) (raise)
/usr/lib/gcc/arm-none-eabi/10.3.1/../../../arm-none-eabi/lib/thumb/v6-m/nofp/libc_nano.a(lib_a-signalr.o)
                              /usr/lib/gcc/arm-none-eabi/10.3.1/../../../arm-none-eabi/lib/thumb/v6-m/nofp/libc_nano.a(lib_a-signal.o) (_kill_r)
/usr/lib/gcc/arm-none-eabi/10.3.1/../../../arm-none-eabi/lib/thumb/v6-m/nofp/libc_nano.a(lib_a-stdio.o)
                              /usr/lib/gcc/arm-none-eabi/10.3.1/../../../arm-none-eabi/lib/thumb/v6-m/nofp/libc_nano.a(lib_a-findfp.o) (__sread)
/usr/lib/gcc/arm-none-eabi/10.3.1/../../../arm-none-eabi/lib/thumb/v6-m/nofp/libc_nano.a(lib_a-writer.o)
                              /usr/lib/gcc/arm-none-eabi/10.3.1/../../../arm-none-eabi/lib/thumb/v6-m/nofp/libc_nano.a(lib_a-stdio.o) (_write_r)
/usr/lib/gcc/arm-none-eabi/10.3.1/../../../arm-none-eabi/lib/thumb/v6-m/nofp/libc_nano.a(lib_a-closer.o)
                              /usr/lib/gcc/arm-none-eabi/10.3.1/../../../arm-none-eabi/lib/thumb/v6-m/nofp/libc_nano.a(lib_a-stdio.o) (_close_r)
/usr/lib/gcc/arm-none-eabi/10.3.1/../../../arm-none-eabi/lib/thumb/v6-m/nofp/libc_nano.a(lib_a-fstatr.o)
                              /usr/lib/gcc/arm-none-eabi/10.3.1/../../../arm-none-eabi/lib/thumb/v6-m/nofp/libc_nano.a(lib_a-makebuf.o) (_fstat_r)
/usr/lib/gcc/arm-none-eabi/10.3.1/../../../arm-none-eabi/lib/thumb/v6-m/nofp/libc_nano.a(lib_a-isattyr.o)
                              /usr/lib/gcc/arm-none-eabi/10.3.1/../../../arm-none-eabi/lib/thumb/v6-m/nofp/libc_nano.a(lib_a-makebuf.o) (_isatty_r)
/usr/lib/gcc/arm-none-eabi/10.3.1/../../../arm-none-eabi/lib/thumb/v6-m/nofp/libc_nano.a(lib_a-lseekr.o)
                              /usr/lib/gcc/arm-none-eabi/10.3.1/../../../arm-none-eabi/lib/thumb/v6-m/nofp/libc_nano.a(lib_a-stdio.o) (_lseek_r)
/usr/lib/gcc/arm-none-eabi/10.3.1/../../../arm-none-eabi/lib/thumb/v6-m/nofp/libc_nano.a(lib_a-nano-msizer.o)
                              /usr/lib/gcc/arm-none-eabi/10.3.1/../../../arm-none-eabi/lib/thumb/v6-m/nofp/libc_nano.a(lib_a-nano-reallocr.o) (_malloc_usable_size_r)
/usr/lib/gcc/arm-none-eabi/10.3.1/../../../arm-none-eabi/lib/thumb/v6-m/nofp/libc_nano.a(lib_a-readr.o)
                              /usr/lib/gcc/arm-none-eabi/10.3.1/../../../arm-none-eabi/lib/thumb/v6-m/nofp/libc_nano.a(lib_a-stdio.o) (_read_r)
/usr/lib/gcc/arm-none-eabi/10.3.1/../../../arm-none-eabi/lib/thumb/v6-m/nofp/libnosys.a(close.o)
                              /usr/lib/gcc/arm-none-eabi/10.3.1/../../../arm-none-eabi/lib/thumb/v6-m/nofp/libc_nano.a(lib_a-closer.o) (_close)
/usr/lib/gcc/arm-none-eabi/10.3.1/../../../arm-none-eabi/lib/thumb/v6-m/nofp/libnosys.a(fstat.o)
                              /usr/lib/gcc/arm-none-eabi/10.3.1/../../../arm-none-eabi/lib/thumb/v6-m/nofp/libc_nano.a(lib_a-fstatr.o) (_fstat)
/usr/lib/gcc/arm-none-eabi/10.3.1/../../../arm-none-eabi/lib/thumb/v6-m/nofp/libnosys.a(getpid.o)
                              /usr/lib/gcc/arm-none-eabi/10.3.1/../../../arm-none-eabi/lib/thumb/v6-m/nofp/libc_nano.a(lib_a-signalr.o) (_getpid)
/usr/lib/gcc/arm-none-eabi/10.3.1/../../../arm-none-eabi/lib/thumb/v6-m/nofp/libnosys.a(isatty.o)
                              /usr/lib/gcc/arm-none-eabi/10.3.1/../../../arm-none-eabi/lib/thumb/v6-m/nofp/libc_nano.a(lib_a-isattyr.o) (_isatty)
/usr/lib/gcc/arm-none-eabi/10.3.1/../../../arm-none-eabi/lib/thumb/v6-m/nofp/libnosys.a(kill.o)
                              /usr/lib/gcc/arm-none-eabi/10.3.1/../../../arm-none-eabi/lib/thumb/v6-m/nofp/libc_nano.a(lib_a-signalr.o) (_kill)
/usr/lib/gcc/arm-none-eabi/10.3.1/../../../arm-none-eabi/lib/thumb/v6-m/nofp/libnosys.a(lseek.o)
                              /usr/lib/gcc/arm-none-eabi/10.3.1/../../../arm-none-eabi/lib/thumb/v6-m/nofp/libc_nano.a(lib_a-lseekr.o) (_lseek)
/usr/lib/gcc/arm-none-eabi/10.3.1/../../../arm-none-eabi/lib/thumb/v6-m/nofp/libnosys.a(read.o)
                              /usr/lib/gcc/arm-none-eabi/10.3.1/../../../arm-none-eabi/lib/thumb/v6-m/nofp/libc_nano.a(lib_a-readr.o) (_read)
/usr/lib/gcc/arm-none-eabi/10.3.1/../../../arm-none-eabi/lib/thumb/v6-m/nofp/libnosys.a(sbrk.o)
                              /usr/lib/gcc/arm-none-eabi/10.3.1/../../../arm-none-eabi/lib/thumb/v6-m/nofp/libc_nano.a(lib_a-sbrkr.o) (_sbrk)
/usr/lib/gcc/arm-none-eabi/10.3.1/../../../arm-none-eabi/lib/thumb/v6-m/nofp/libnosys.a(write.o)
                              /usr/lib/gcc/arm-none-eabi/10.3.1/../../../arm-none-eabi/lib/thumb/v6-m/nofp/libc_nano.a(lib_a-writer.o) (_write)
/usr/lib/gcc/arm-none-eabi/10.3.1/../../../arm-none-eabi/lib/thumb/v6-m/nofp/libnosys.a(_exit.o)
                              /usr/lib/gcc/arm-none-eabi/10.3.1/../../../arm-none-eabi/lib/thumb/v6-m/nofp/libc_nano.a(lib_a-exit.o) (_exit)
/usr/lib/gcc/arm-none-eabi/10.3.1/thumb/v6-m/nofp/libgcc.a(_thumb1_case_sqi.o)
                              lbm/lbm_lib/./build/basic_modem.a(ral_sx126x.o) (__gnu_thumb1_case_sqi)
/usr/lib/gcc/arm-none-eabi/10.3.1/thumb/v6-m/nofp/libgcc.a(_thumb1_case_uqi.o)
                              build_sx1261_l0/smtc_modem_hal.o (__gnu_thumb1_case_uqi)
/usr/lib/gcc/arm-none-eabi/10.3.1/thumb/v6-m/nofp/libgcc.a(_thumb1_case_uhi.o)
                              build_sx1261_l0/main.o (__gnu_thumb1_case_uhi)
/usr/lib/gcc/arm-none-eabi/10.3.1/thumb/v6-m/nofp/libgcc.a(_udivsi3.o)
                              build_sx1261_l0/timer_rtc.o (__aeabi_uidiv)
/usr/lib/gcc/arm-none-eabi/10.3.1/thumb/v6-m/nofp/libgcc.a(_divsi3.o)
                              build_sx1261_l0/system_stm32l0xx.o (__aeabi_idiv)
/usr/lib/gcc/arm-none-eabi/10.3.1/thumb/v6-m/nofp/libgcc.a(_dvmd_tls.o)
                              /usr/lib/gcc/arm-none-eabi/10.3.1/thumb/v6-m/nofp/libgcc.a(_udivsi3.o) (__aeabi_idiv0)
/usr/lib/gcc/arm-none-eabi/10.3.1/thumb/v6-m/nofp/libgcc.a(_aeabi_ldivmod.o)
                              build_sx1261_l0/smtc_hal_lp_timer.o (__aeabi_ldivmod)
/usr/lib/gcc/arm-none-eabi/10.3.1/thumb/v6-m/nofp/libgcc.a(_aeabi_uldivmod.o)
                              build_sx1261_l0/smtc_hal_lp_timer.o (__aeabi_uldivmod)
/usr/lib/gcc/arm-none-eabi/10.3.1/thumb/v6-m/nofp/libgcc.a(_muldi3.o)
                              /usr/lib/gcc/arm-none-eabi/10.3.1/../../../arm-none-eabi/lib/thumb/v6-m/nofp/libc_nano.a(lib_a-rand.o) (__aeabi_lmul)
/usr/lib/gcc/arm-none-eabi/10.3.1/thumb/v6-m/nofp/libgcc.a(_udivmoddi4.o)
                              /usr/lib/gcc/arm-none-eabi/10.3.1/thumb/v6-m/nofp/libgcc.a(_aeabi_uldivmod.o) (__udivmoddi4)
/usr/lib/gcc/arm-none-eabi/10.3.1/thumb/v6-m/nofp/libgcc.a(bpabi.o)
                              /usr/lib/gcc/arm-none-eabi/10.3.1/thumb/v6-m/nofp/libgcc.a(_aeabi_ldivmod.o) (__gnu_ldivmod_helper)
/usr/lib/gcc/arm-none-eabi/10.3.1/thumb/v6-m/nofp/libgcc.a(divsf3.o)
                              lbm/lbm_lib/./build/basic_modem.a(smtc_modem_test.o) (__aeabi_fdiv)
/usr/lib/gcc/arm-none-eabi/10.3.1/thumb/v6-m/nofp/libgcc.a(fixsfsi.o)
                              lbm/lbm_lib/./build/basic_modem.a(smtc_modem_test.o) (__aeabi_f2iz)
/usr/lib/gcc/arm-none-eabi/10.3.1/thumb/v6-m/nofp/libgcc.a(floatsisf.o)
                              lbm/lbm_lib/./build/basic_modem.a(smtc_modem_test.o) (__aeabi_i2f)
/usr/lib/gcc/arm-none-eabi/10.3.1/thumb/v6-m/nofp/libgcc.a(floatunsisf.o)
                              lbm/lbm_lib/./build/basic_modem.a(smtc_modem_test.o) (__aeabi_ui2f)
/usr/lib/gcc/arm-none-eabi/10.3.1/thumb/v6-m/nofp/libgcc.a(_clzsi2.o)
                              /usr/lib/gcc/arm-none-eabi/10.3.1/thumb/v6-m/nofp/libgcc.a(divsf3.o) (__clzsi2)
/usr/lib/gcc/arm-none-eabi/10.3.1/thumb/v6-m/nofp/libgcc.a(_clzdi2.o)
                              /usr/lib/gcc/arm-none-eabi/10.3.1/thumb/v6-m/nofp/libgcc.a(_udivmoddi4.o) (__clzdi2)
/usr/lib/gcc/arm-none-eabi/10.3.1/thumb/v6-m/nofp/libgcc.a(_divdi3.o)
                              /usr/lib/gcc/arm-none-eabi/10.3.1/thumb/v6-m/nofp/libgcc.a(bpabi.o) (__divdi3)

Discarded input sections

 .text          0x0000000000000000        0x0 /usr/lib/gcc/arm-none-eabi/10.3.1/thumb/v6-m/nofp/crti.o
 .data          0x0000000000000000        0x0 /usr/lib/gcc/arm-none-eabi/10.3.1/thumb/v6-m/nofp/crti.o
 .bss           0x0000000000000000        0x0 /usr/lib/gcc/arm-none-eabi/10.3.1/thumb/v6-m/nofp/crti.o
 .data          0x0000000000000000        0x4 /usr/lib/gcc/arm-none-eabi/10.3.1/thumb/v6-m/nofp/crtbegin.o
 .rodata        0x0000000000000000       0x24 /usr/lib/gcc/arm-none-eabi/10.3.1/thumb/v6-m/nofp/crtbegin.o
 .text          0x0000000000000000       0x74 /usr/lib/gcc/arm-none-eabi/10.3.1/../../../arm-none-eabi/lib/thumb/v6-m/nofp/crt0.o
 .data          0x0000000000000000        0x0 /usr/lib/gcc/arm-none-eabi/10.3.1/../../../arm-none-eabi/lib/thumb/v6-m/nofp/crt0.o
 .bss           0x0000000000000000        0x0 /usr/lib/gcc/arm-none-eabi/10.3.1/../../../arm-none-eabi/lib/thumb/v6-m/nofp/crt0.o
 .ARM.extab     0x0000000000000000        0x0 /usr/lib/gcc/arm-none-eabi/10.3.1/../../../arm-none-eabi/lib/thumb/v6-m/nofp/crt0.o
 .ARM.exidx     0x0000000000000000       0x10 /usr/lib/gcc/arm-none-eabi/10.3.1/../../../arm-none-eabi/lib/thumb/v6-m/nofp/crt0.o
 .debug_line    0x0000000000000000       0x8c /usr/lib/gcc/arm-none-eabi/10.3.1/../../../arm-none-eabi/lib/thumb/v6-m/nofp/crt0.o
 .debug_info    0x0000000000000000       0x26 /usr/lib/gcc/arm-none-eabi/10.3.1/../../../arm-none-eabi/lib/thumb/v6-m/nofp/crt0.o
 .debug_abbrev  0x0000000000000000       0x14 /usr/lib/gcc/arm-none-eabi/10.3.1/../../../arm-none-eabi/lib/thumb/v6-m/nofp/crt0.o
 .debug_aranges
                0x0000000000000000       0x20 /usr/lib/gcc/arm-none-eabi/10.3.1/../../../arm-none-eabi/lib/thumb/v6-m/nofp/crt0.o
 .debug_str     0x0000000000000000       0x94 /usr/lib/gcc/arm-none-eabi/10.3.1/../../../arm-none-eabi/lib/thumb/v6-m/nofp/crt0.o
 .ARM.attributes
                0x0000000000000000       0x1b /usr/lib/gcc/arm-none-eabi/10.3.1/../../../arm-none-eabi/lib/thumb/v6-m/nofp/crt0.o
 .text          0x0000000000000000        0x0 build_sx1261_l0/main.o
 .data          0x0000000000000000        0x0 build_sx1261_l0/main.o
 .bss           0x0000000000000000        0x0 build_sx1261_l0/main.o
 .text          0x0000000000000000        0x0 build_sx1261_l0/mx25.o
 .data          0x0000000000000000        0x0 build_sx1261_l0/mx25.o
 .bss           0x0000000000000000        0x0 build_sx1261_l0/mx25.o
 .text.mx25_enable_write
                0x0000000000000000       0x38 build_sx1261_l0/mx25.o
 .text.mx25_read
                0x0000000000000000       0x88 build_sx1261_l0/mx25.o
 .text.mx25_page_writeable
                0x0000000000000000       0x52 build_sx1261_l0/mx25.o
 .text.mx25_write_page
                0x0000000000000000       0xac build_sx1261_l0/mx25.o
 .text.mx25_write
                0x0000000000000000       0x98 build_sx1261_l0/mx25.o
 .text.mx25_erase_page
                0x0000000000000000       0x6c build_sx1261_l0/mx25.o
 .text.mx25_erase_all
                0x0000000000000000       0x44 build_sx1261_l0/mx25.o
 .text          0x0000000000000000        0x0 build_sx1261_l0/sht3x.o
 .data          0x0000000000000000        0x0 build_sx1261_l0/sht3x.o
 .bss           0x0000000000000000        0x0 build_sx1261_l0/sht3x.o
 .text          0x0000000000000000        0x0 build_sx1261_l0/settings.o
 .data          0x0000000000000000        0x0 build_sx1261_l0/settings.o
 .bss           0x0000000000000000        0x0 build_sx1261_l0/settings.o
 .text.settings_save
                0x0000000000000000       0x3c build_sx1261_l0/settings.o
 .text          0x0000000000000000        0x0 build_sx1261_l0/sha256.o
 .data          0x0000000000000000        0x0 build_sx1261_l0/sha256.o
 .bss           0x0000000000000000        0x0 build_sx1261_l0/sha256.o
 .text.sha256i_init
                0x0000000000000000       0x5c build_sx1261_l0/sha256.o
 .text.sha256i_update
                0x0000000000000000       0x98 build_sx1261_l0/sha256.o
 .text.sha256i_digest
                0x0000000000000000       0x28 build_sx1261_l0/sha256.o
 .bss.hash_i    0x0000000000000000       0x20 build_sx1261_l0/sha256.o
 .bss.hash_set  0x0000000000000000        0x1 build_sx1261_l0/sha256.o
 .bss.length_i  0x0000000000000000        0x4 build_sx1261_l0/sha256.o
 .bss.state_i   0x0000000000000000       0x20 build_sx1261_l0/sha256.o
 .text          0x0000000000000000        0x0 build_sx1261_l0/timer.o
 .data          0x0000000000000000        0x0 build_sx1261_l0/timer.o
 .bss           0x0000000000000000        0x0 build_sx1261_l0/timer.o
 .text.TimerSetContext
                0x0000000000000000        0x4 build_sx1261_l0/timer.o
 .text.TimerIsStarted
                0x0000000000000000        0x4 build_sx1261_l0/timer.o
 .text.TimerReset
                0x0000000000000000       0x10 build_sx1261_l0/timer.o
 .text.TimerGetCurrentTime
                0x0000000000000000        0xc build_sx1261_l0/timer.o
 .text.TimerGetElapsedTime
                0x0000000000000000       0x1e build_sx1261_l0/timer.o
 .text.TimerTempCompensation
                0x0000000000000000        0x8 build_sx1261_l0/timer.o
 .text.TimerProcess
                0x0000000000000000        0x8 build_sx1261_l0/timer.o
 .text          0x0000000000000000        0x0 build_sx1261_l0/timer_rtc.o
 .data          0x0000000000000000        0x0 build_sx1261_l0/timer_rtc.o
 .bss           0x0000000000000000        0x0 build_sx1261_l0/timer_rtc.o
 .text.RtcTick2Ms
                0x0000000000000000        0x8 build_sx1261_l0/timer_rtc.o
 .text.RtcTempCompensation
                0x0000000000000000        0x4 build_sx1261_l0/timer_rtc.o
 .text.RtcProcess
                0x0000000000000000        0x2 build_sx1261_l0/timer_rtc.o
 .text          0x0000000000000000        0x0 build_sx1261_l0/system_stm32l0xx.o
 .data          0x0000000000000000        0x0 build_sx1261_l0/system_stm32l0xx.o
 .bss           0x0000000000000000        0x0 build_sx1261_l0/system_stm32l0xx.o
 .text.SystemCoreClockUpdate
                0x0000000000000000       0x9c build_sx1261_l0/system_stm32l0xx.o
 .text          0x0000000000000000        0x0 build_sx1261_l0/smtc_hal_watchdog.o
 .data          0x0000000000000000        0x0 build_sx1261_l0/smtc_hal_watchdog.o
 .bss           0x0000000000000000        0x0 build_sx1261_l0/smtc_hal_watchdog.o
 .text          0x0000000000000000        0x0 build_sx1261_l0/smtc_hal_spi.o
 .data          0x0000000000000000        0x0 build_sx1261_l0/smtc_hal_spi.o
 .bss           0x0000000000000000        0x0 build_sx1261_l0/smtc_hal_spi.o
 .text          0x0000000000000000        0x0 build_sx1261_l0/smtc_hal_rng.o
 .data          0x0000000000000000        0x0 build_sx1261_l0/smtc_hal_rng.o
 .bss           0x0000000000000000        0x0 build_sx1261_l0/smtc_hal_rng.o
 .text.hal_rng_get_signed_random_in_range
                0x0000000000000000       0x22 build_sx1261_l0/smtc_hal_rng.o
 .text          0x0000000000000000        0x0 build_sx1261_l0/smtc_hal_eeprom.o
 .data          0x0000000000000000        0x0 build_sx1261_l0/smtc_hal_eeprom.o
 .bss           0x0000000000000000        0x0 build_sx1261_l0/smtc_hal_eeprom.o
 .text          0x0000000000000000        0x0 build_sx1261_l0/smtc_hal_gpio.o
 .data          0x0000000000000000        0x0 build_sx1261_l0/smtc_hal_gpio.o
 .bss           0x0000000000000000        0x0 build_sx1261_l0/smtc_hal_gpio.o
 .text.hal_gpio_irq_deatach
                0x0000000000000000       0x18 build_sx1261_l0/smtc_hal_gpio.o
 .text          0x0000000000000000        0x0 build_sx1261_l0/smtc_hal_uart.o
 .data          0x0000000000000000        0x0 build_sx1261_l0/smtc_hal_uart.o
 .bss           0x0000000000000000        0x0 build_sx1261_l0/smtc_hal_uart.o
 .text.hw_modem_uart_init
                0x0000000000000000      0x1a4 build_sx1261_l0/smtc_hal_uart.o
 .text.hw_modem_uart_deinit
                0x0000000000000000       0x68 build_sx1261_l0/smtc_hal_uart.o
 .text.hw_modem_uart_dma_start_rx
                0x0000000000000000       0x70 build_sx1261_l0/smtc_hal_uart.o
 .text.hw_modem_uart_dma_stop_rx
                0x0000000000000000       0x10 build_sx1261_l0/smtc_hal_uart.o
 .text.hw_modem_uart_tx
                0x0000000000000000       0x34 build_sx1261_l0/smtc_hal_uart.o
 .text          0x0000000000000000        0x0 build_sx1261_l0/smtc_hal_lp_timer.o
 .data          0x0000000000000000        0x0 build_sx1261_l0/smtc_hal_lp_timer.o
 .bss           0x0000000000000000        0x0 build_sx1261_l0/smtc_hal_lp_timer.o
 .text          0x0000000000000000        0x0 build_sx1261_l0/smtc_hal_rtc.o
 .data          0x0000000000000000        0x0 build_sx1261_l0/smtc_hal_rtc.o
 .bss           0x0000000000000000        0x0 build_sx1261_l0/smtc_hal_rtc.o
 .text.hal_rtc_set_offset_to_test_wrapping
                0x0000000000000000        0xc build_sx1261_l0/smtc_hal_rtc.o
 .text          0x0000000000000000        0x0 build_sx1261_l0/smtc_hal_trace.o
 .data          0x0000000000000000        0x0 build_sx1261_l0/smtc_hal_trace.o
 .bss           0x0000000000000000        0x0 build_sx1261_l0/smtc_hal_trace.o
 .text          0x0000000000000000        0x0 build_sx1261_l0/smtc_hal_mcu.o
 .data          0x0000000000000000        0x0 build_sx1261_l0/smtc_hal_mcu.o
 .bss           0x0000000000000000        0x0 build_sx1261_l0/smtc_hal_mcu.o
 .text          0x0000000000000000        0x0 build_sx1261_l0/smtc_hal_i2c.o
 .data          0x0000000000000000        0x0 build_sx1261_l0/smtc_hal_i2c.o
 .bss           0x0000000000000000        0x0 build_sx1261_l0/smtc_hal_i2c.o
 .text.i2c_write_buffer.constprop.0
                0x0000000000000000      0x118 build_sx1261_l0/smtc_hal_i2c.o
 .text.hal_i2c_write
                0x0000000000000000       0x12 build_sx1261_l0/smtc_hal_i2c.o
 .text.hal_i2c_read
                0x0000000000000000        0xa build_sx1261_l0/smtc_hal_i2c.o
 .text.hal_i2c_write_buffer
                0x0000000000000000        0x8 build_sx1261_l0/smtc_hal_i2c.o
 .text          0x0000000000000000        0x0 build_sx1261_l0/smtc_hal_adc.o
 .data          0x0000000000000000        0x0 build_sx1261_l0/smtc_hal_adc.o
 .bss           0x0000000000000000        0x0 build_sx1261_l0/smtc_hal_adc.o
 .text.adc_read
                0x0000000000000000       0x44 build_sx1261_l0/smtc_hal_adc.o
 .text.hal_adc_init
                0x0000000000000000       0x98 build_sx1261_l0/smtc_hal_adc.o
 .text.hal_adc_deinit
                0x0000000000000000       0x4c build_sx1261_l0/smtc_hal_adc.o
 .text.hal_adc_get_vref_int
                0x0000000000000000       0x3c build_sx1261_l0/smtc_hal_adc.o
 .text.hal_adc_get_temp
                0x0000000000000000       0x54 build_sx1261_l0/smtc_hal_adc.o
 .text.hal_adc_get_channel
                0x0000000000000000       0x20 build_sx1261_l0/smtc_hal_adc.o
 .comment       0x0000000000000000       0x34 build_sx1261_l0/smtc_hal_adc.o
 .ARM.attributes
                0x0000000000000000       0x28 build_sx1261_l0/smtc_hal_adc.o
 .text          0x0000000000000000        0x0 build_sx1261_l0/stm32l0xx_ll_adc.o
 .data          0x0000000000000000        0x0 build_sx1261_l0/stm32l0xx_ll_adc.o
 .bss           0x0000000000000000        0x0 build_sx1261_l0/stm32l0xx_ll_adc.o
 .text.LL_ADC_CommonDeInit
                0x0000000000000000       0x20 build_sx1261_l0/stm32l0xx_ll_adc.o
 .text.LL_ADC_CommonInit
                0x0000000000000000       0x2c build_sx1261_l0/stm32l0xx_ll_adc.o
 .text.LL_ADC_CommonStructInit
                0x0000000000000000        0x8 build_sx1261_l0/stm32l0xx_ll_adc.o
 .text.LL_ADC_DeInit
                0x0000000000000000       0xf0 build_sx1261_l0/stm32l0xx_ll_adc.o
 .text.LL_ADC_Init
                0x0000000000000000       0x38 build_sx1261_l0/stm32l0xx_ll_adc.o
 .text.LL_ADC_StructInit
                0x0000000000000000       0x10 build_sx1261_l0/stm32l0xx_ll_adc.o
 .text.LL_ADC_REG_Init
                0x0000000000000000       0x34 build_sx1261_l0/stm32l0xx_ll_adc.o
 .text.LL_ADC_REG_StructInit
                0x0000000000000000       0x12 build_sx1261_l0/stm32l0xx_ll_adc.o
 .comment       0x0000000000000000       0x34 build_sx1261_l0/stm32l0xx_ll_adc.o
 .ARM.attributes
                0x0000000000000000       0x28 build_sx1261_l0/stm32l0xx_ll_adc.o
 .text          0x0000000000000000        0x0 build_sx1261_l0/stm32l0xx_ll_i2c.o
 .data          0x0000000000000000        0x0 build_sx1261_l0/stm32l0xx_ll_i2c.o
 .bss           0x0000000000000000        0x0 build_sx1261_l0/stm32l0xx_ll_i2c.o
 .text.LL_I2C_StructInit
                0x0000000000000000       0x16 build_sx1261_l0/stm32l0xx_ll_i2c.o
 .text          0x0000000000000000        0x0 build_sx1261_l0/stm32l0xx_ll_usart.o
 .data          0x0000000000000000        0x0 build_sx1261_l0/stm32l0xx_ll_usart.o
 .bss           0x0000000000000000        0x0 build_sx1261_l0/stm32l0xx_ll_usart.o
 .text.LL_USART_DeInit
                0x0000000000000000       0x94 build_sx1261_l0/stm32l0xx_ll_usart.o
 .text.LL_USART_StructInit
                0x0000000000000000       0x18 build_sx1261_l0/stm32l0xx_ll_usart.o
 .text.LL_USART_ClockInit
                0x0000000000000000       0x48 build_sx1261_l0/stm32l0xx_ll_usart.o
 .text.LL_USART_ClockStructInit
                0x0000000000000000        0xc build_sx1261_l0/stm32l0xx_ll_usart.o
 .text          0x0000000000000000        0x0 build_sx1261_l0/stm32l0xx_ll_rcc.o
 .data          0x0000000000000000        0x0 build_sx1261_l0/stm32l0xx_ll_rcc.o
 .bss           0x0000000000000000        0x0 build_sx1261_l0/stm32l0xx_ll_rcc.o
 .text.LL_RCC_DeInit
                0x0000000000000000       0xb8 build_sx1261_l0/stm32l0xx_ll_rcc.o
 .text.LL_RCC_GetI2CClockFreq
                0x0000000000000000       0x90 build_sx1261_l0/stm32l0xx_ll_rcc.o
 .text.LL_RCC_GetLPUARTClockFreq
                0x0000000000000000       0x70 build_sx1261_l0/stm32l0xx_ll_rcc.o
 .text.LL_RCC_GetLPTIMClockFreq
                0x0000000000000000       0x7c build_sx1261_l0/stm32l0xx_ll_rcc.o
 .text          0x0000000000000000        0x0 build_sx1261_l0/stm32l0xx_ll_lptim.o
 .data          0x0000000000000000        0x0 build_sx1261_l0/stm32l0xx_ll_lptim.o
 .bss           0x0000000000000000        0x0 build_sx1261_l0/stm32l0xx_ll_lptim.o
 .text.LL_LPTIM_StructInit
                0x0000000000000000        0xc build_sx1261_l0/stm32l0xx_ll_lptim.o
 .text.LL_LPTIM_Init
                0x0000000000000000       0x30 build_sx1261_l0/stm32l0xx_ll_lptim.o
 .text          0x0000000000000000        0x0 build_sx1261_l0/stm32l0xx_ll_rtc.o
 .data          0x0000000000000000        0x0 build_sx1261_l0/stm32l0xx_ll_rtc.o
 .bss           0x0000000000000000        0x0 build_sx1261_l0/stm32l0xx_ll_rtc.o
 .text.LL_RTC_StructInit
                0x0000000000000000        0xe build_sx1261_l0/stm32l0xx_ll_rtc.o
 .text.LL_RTC_TIME_StructInit
                0x0000000000000000        0xa build_sx1261_l0/stm32l0xx_ll_rtc.o
 .text.LL_RTC_DATE_StructInit
                0x0000000000000000        0xe build_sx1261_l0/stm32l0xx_ll_rtc.o
 .text.LL_RTC_ALMA_Init
                0x0000000000000000      0x12c build_sx1261_l0/stm32l0xx_ll_rtc.o
 .text.LL_RTC_ALMB_Init
                0x0000000000000000      0x12c build_sx1261_l0/stm32l0xx_ll_rtc.o
 .text.LL_RTC_ALMA_StructInit
                0x0000000000000000       0x12 build_sx1261_l0/stm32l0xx_ll_rtc.o
 .text.LL_RTC_ALMB_StructInit
                0x0000000000000000        0x8 build_sx1261_l0/stm32l0xx_ll_rtc.o
 .text.LL_RTC_EnterInitMode
                0x0000000000000000       0x54 build_sx1261_l0/stm32l0xx_ll_rtc.o
 .text.LL_RTC_Init
                0x0000000000000000       0x50 build_sx1261_l0/stm32l0xx_ll_rtc.o
 .text.LL_RTC_ExitInitMode
                0x0000000000000000        0xa build_sx1261_l0/stm32l0xx_ll_rtc.o
 .text.LL_RTC_WaitForSynchro
                0x0000000000000000       0x94 build_sx1261_l0/stm32l0xx_ll_rtc.o
 .text.LL_RTC_DeInit
                0x0000000000000000       0x58 build_sx1261_l0/stm32l0xx_ll_rtc.o
 .text.LL_RTC_TIME_Init
                0x0000000000000000       0xd0 build_sx1261_l0/stm32l0xx_ll_rtc.o
 .text.LL_RTC_DATE_Init
                0x0000000000000000       0xd8 build_sx1261_l0/stm32l0xx_ll_rtc.o
 .comment       0x0000000000000000       0x34 build_sx1261_l0/stm32l0xx_ll_rtc.o
 .ARM.attributes
                0x0000000000000000       0x28 build_sx1261_l0/stm32l0xx_ll_rtc.o
 .text          0x0000000000000000        0x0 build_sx1261_l0/stm32l0xx_ll_dma.o
 .data          0x0000000000000000        0x0 build_sx1261_l0/stm32l0xx_ll_dma.o
 .bss           0x0000000000000000        0x0 build_sx1261_l0/stm32l0xx_ll_dma.o
 .text.LL_DMA_DeInit
                0x0000000000000000       0xf4 build_sx1261_l0/stm32l0xx_ll_dma.o
 .text.LL_DMA_Init
                0x0000000000000000       0x64 build_sx1261_l0/stm32l0xx_ll_dma.o
 .text.LL_DMA_StructInit
                0x0000000000000000       0x1a build_sx1261_l0/stm32l0xx_ll_dma.o
 .rodata.CHANNEL_OFFSET_TAB
                0x0000000000000000        0x7 build_sx1261_l0/stm32l0xx_ll_dma.o
 .comment       0x0000000000000000       0x34 build_sx1261_l0/stm32l0xx_ll_dma.o
 .ARM.attributes
                0x0000000000000000       0x28 build_sx1261_l0/stm32l0xx_ll_dma.o
 .text          0x0000000000000000        0x0 build_sx1261_l0/stm32l0xx_ll_utils.o
 .data          0x0000000000000000        0x0 build_sx1261_l0/stm32l0xx_ll_utils.o
 .bss           0x0000000000000000        0x0 build_sx1261_l0/stm32l0xx_ll_utils.o
 .text.LL_mDelay
                0x0000000000000000       0x2c build_sx1261_l0/stm32l0xx_ll_utils.o
 .text.LL_SetFlashLatency
                0x0000000000000000       0x74 build_sx1261_l0/stm32l0xx_ll_utils.o
 .text.UTILS_EnablePLLAndSwitchSystem
                0x0000000000000000       0x9c build_sx1261_l0/stm32l0xx_ll_utils.o
 .text.LL_PLL_ConfigSystemClock_HSI
                0x0000000000000000       0x60 build_sx1261_l0/stm32l0xx_ll_utils.o
 .text.LL_PLL_ConfigSystemClock_HSE
                0x0000000000000000       0x80 build_sx1261_l0/stm32l0xx_ll_utils.o
 .text          0x0000000000000000        0x0 build_sx1261_l0/smtc_modem_hal.o
 .data          0x0000000000000000        0x0 build_sx1261_l0/smtc_modem_hal.o
 .bss           0x0000000000000000        0x0 build_sx1261_l0/smtc_modem_hal.o
 .text.smtc_modem_hal_reload_wdog
                0x0000000000000000        0x8 build_sx1261_l0/smtc_modem_hal.o
 .text.smtc_modem_hal_set_offset_to_test_wrapping
                0x0000000000000000        0x8 build_sx1261_l0/smtc_modem_hal.o
 .text.smtc_modem_hal_context_flash_pages_erase
                0x0000000000000000       0x7c build_sx1261_l0/smtc_modem_hal.o
 .text.smtc_modem_hal_crashlog_restore
                0x0000000000000000       0x24 build_sx1261_l0/smtc_modem_hal.o
 .text.smtc_modem_hal_crashlog_set_status
                0x0000000000000000        0xc build_sx1261_l0/smtc_modem_hal.o
 .text.smtc_modem_hal_print_trace
                0x0000000000000000       0x16 build_sx1261_l0/smtc_modem_hal.o
 .text.smtc_modem_hal_get_temperature
                0x0000000000000000        0x4 build_sx1261_l0/smtc_modem_hal.o
 .text.smtc_modem_hal_get_voltage_mv
                0x0000000000000000        0x8 build_sx1261_l0/smtc_modem_hal.o
 .rodata.__func__.0
                0x0000000000000000       0x29 build_sx1261_l0/smtc_modem_hal.o
 .text          0x0000000000000000        0x0 build_sx1261_l0/sx126x_hal.o
 .data          0x0000000000000000        0x0 build_sx1261_l0/sx126x_hal.o
 .bss           0x0000000000000000        0x0 build_sx1261_l0/sx126x_hal.o
 .text          0x0000000000000000        0x0 build_sx1261_l0/ral_sx126x_bsp.o
 .data          0x0000000000000000        0x0 build_sx1261_l0/ral_sx126x_bsp.o
 .bss           0x0000000000000000        0x0 build_sx1261_l0/ral_sx126x_bsp.o
 .text          0x0000000000000000        0x0 build_sx1261_l0/radio_utilities.o
 .data          0x0000000000000000        0x0 build_sx1261_l0/radio_utilities.o
 .bss           0x0000000000000000        0x0 build_sx1261_l0/radio_utilities.o
 .text.radio_utilities_set_tx_power_offset
                0x0000000000000000        0xc build_sx1261_l0/radio_utilities.o
 .text          0x0000000000000000       0x14 build_sx1261_l0/startup_stm32l071xx.o
 .data          0x0000000000000000        0x0 build_sx1261_l0/startup_stm32l071xx.o
 .bss           0x0000000000000000        0x0 build_sx1261_l0/startup_stm32l071xx.o
 .text          0x0000000000000000        0x0 lbm/lbm_lib/./build/basic_modem.a(smtc_modem.o)
 .data          0x0000000000000000        0x0 lbm/lbm_lib/./build/basic_modem.a(smtc_modem.o)
 .bss           0x0000000000000000        0x0 lbm/lbm_lib/./build/basic_modem.a(smtc_modem.o)
 .text.smtc_modem_set_radio_context
                0x0000000000000000       0x10 lbm/lbm_lib/./build/basic_modem.a(smtc_modem.o)
 .text.smtc_modem_get_radio_context
                0x0000000000000000        0xc lbm/lbm_lib/./build/basic_modem.a(smtc_modem.o)
 .text.smtc_modem_get_joineui
                0x0000000000000000       0x28 lbm/lbm_lib/./build/basic_modem.a(smtc_modem.o)
 .text.smtc_modem_get_deveui
                0x0000000000000000       0x28 lbm/lbm_lib/./build/basic_modem.a(smtc_modem.o)
 .text.smtc_modem_get_list_region
                0x0000000000000000       0x34 lbm/lbm_lib/./build/basic_modem.a(smtc_modem.o)
 .text.smtc_modem_get_region
                0x0000000000000000       0x24 lbm/lbm_lib/./build/basic_modem.a(smtc_modem.o)
 .text.smtc_modem_set_nb_trans
                0x0000000000000000       0x2e lbm/lbm_lib/./build/basic_modem.a(smtc_modem.o)
 .text.smtc_modem_get_nb_trans
                0x0000000000000000       0x24 lbm/lbm_lib/./build/basic_modem.a(smtc_modem.o)
 .text.smtc_modem_adr_set_join_distribution
                0x0000000000000000       0x5a lbm/lbm_lib/./build/basic_modem.a(smtc_modem.o)
 .text.smtc_modem_adr_get_profile
                0x0000000000000000       0x50 lbm/lbm_lib/./build/basic_modem.a(smtc_modem.o)
 .text.smtc_modem_get_status
                0x0000000000000000       0x24 lbm/lbm_lib/./build/basic_modem.a(smtc_modem.o)
 .text.smtc_modem_get_modem_version
                0x0000000000000000       0x24 lbm/lbm_lib/./build/basic_modem.a(smtc_modem.o)
 .text.smtc_modem_lorawan_get_lost_connection_counter
                0x0000000000000000       0x24 lbm/lbm_lib/./build/basic_modem.a(smtc_modem.o)
 .text.smtc_modem_lorawan_get_lost_connection_counter_since_s
                0x0000000000000000       0x24 lbm/lbm_lib/./build/basic_modem.a(smtc_modem.o)
 .text.smtc_modem_get_join_duty_cycle_backoff_bypass
                0x0000000000000000       0x1e lbm/lbm_lib/./build/basic_modem.a(smtc_modem.o)
 .text.smtc_modem_set_join_duty_cycle_backoff_bypass
                0x0000000000000000       0x1e lbm/lbm_lib/./build/basic_modem.a(smtc_modem.o)
 .text.smtc_modem_get_certification_mode
                0x0000000000000000       0x22 lbm/lbm_lib/./build/basic_modem.a(smtc_modem.o)
 .text.smtc_modem_set_certification_mode
                0x0000000000000000       0x2e lbm/lbm_lib/./build/basic_modem.a(smtc_modem.o)
 .text.smtc_modem_request_emergency_uplink
                0x0000000000000000       0x3c lbm/lbm_lib/./build/basic_modem.a(smtc_modem.o)
 .text.smtc_modem_request_empty_uplink
                0x0000000000000000       0x5c lbm/lbm_lib/./build/basic_modem.a(smtc_modem.o)
 .text.smtc_modem_get_suspend_radio_communications
                0x0000000000000000        0xe lbm/lbm_lib/./build/basic_modem.a(smtc_modem.o)
 .text.smtc_modem_alarm_start_timer
                0x0000000000000000       0x30 lbm/lbm_lib/./build/basic_modem.a(smtc_modem.o)
 .text.smtc_modem_alarm_clear_timer
                0x0000000000000000       0x22 lbm/lbm_lib/./build/basic_modem.a(smtc_modem.o)
 .text.smtc_modem_alarm_get_remaining_time
                0x0000000000000000       0x38 lbm/lbm_lib/./build/basic_modem.a(smtc_modem.o)
 .text.smtc_modem_get_next_tx_max_payload
                0x0000000000000000       0x38 lbm/lbm_lib/./build/basic_modem.a(smtc_modem.o)
 .text.smtc_modem_get_duty_cycle_status
                0x0000000000000000       0x20 lbm/lbm_lib/./build/basic_modem.a(smtc_modem.o)
 .text.smtc_modem_get_network_type
                0x0000000000000000       0x1e lbm/lbm_lib/./build/basic_modem.a(smtc_modem.o)
 .text.smtc_modem_set_network_type
                0x0000000000000000       0x1e lbm/lbm_lib/./build/basic_modem.a(smtc_modem.o)
 .text.smtc_modem_get_enabled_datarates
                0x0000000000000000       0x24 lbm/lbm_lib/./build/basic_modem.a(smtc_modem.o)
 .text.smtc_modem_get_available_datarates
                0x0000000000000000        0x8 lbm/lbm_lib/./build/basic_modem.a(smtc_modem.o)
 .text.smtc_modem_set_adr_ack_limit_delay
                0x0000000000000000       0x26 lbm/lbm_lib/./build/basic_modem.a(smtc_modem.o)
 .text.smtc_modem_get_adr_ack_limit_delay
                0x0000000000000000       0x2c lbm/lbm_lib/./build/basic_modem.a(smtc_modem.o)
 .text.smtc_modem_get_crystal_error_ppm
                0x0000000000000000       0x1c lbm/lbm_lib/./build/basic_modem.a(smtc_modem.o)
 .text.smtc_modem_set_crystal_error_ppm
                0x0000000000000000       0x1c lbm/lbm_lib/./build/basic_modem.a(smtc_modem.o)
 .text.smtc_modem_lbt_set_parameters
                0x0000000000000000       0x2a lbm/lbm_lib/./build/basic_modem.a(smtc_modem.o)
 .text.smtc_modem_lbt_get_parameters
                0x0000000000000000       0x38 lbm/lbm_lib/./build/basic_modem.a(smtc_modem.o)
 .text.smtc_modem_lbt_set_state
                0x0000000000000000       0x22 lbm/lbm_lib/./build/basic_modem.a(smtc_modem.o)
 .text.smtc_modem_lbt_get_state
                0x0000000000000000       0x28 lbm/lbm_lib/./build/basic_modem.a(smtc_modem.o)
 .text.smtc_modem_get_charge
                0x0000000000000000       0x44 lbm/lbm_lib/./build/basic_modem.a(smtc_modem.o)
 .text.smtc_modem_get_rp_stats_to_array
                0x0000000000000000      0x174 lbm/lbm_lib/./build/basic_modem.a(smtc_modem.o)
 .text.smtc_modem_reset_charge
                0x0000000000000000       0x20 lbm/lbm_lib/./build/basic_modem.a(smtc_modem.o)
 .text.smtc_modem_trig_lorawan_mac_request
                0x0000000000000000       0x34 lbm/lbm_lib/./build/basic_modem.a(smtc_modem.o)
 .text.smtc_modem_get_lorawan_mac_time
                0x0000000000000000       0x32 lbm/lbm_lib/./build/basic_modem.a(smtc_modem.o)
 .text.smtc_modem_get_lorawan_link_check_data
                0x0000000000000000       0x30 lbm/lbm_lib/./build/basic_modem.a(smtc_modem.o)
 .text.smtc_modem_get_class
                0x0000000000000000       0x24 lbm/lbm_lib/./build/basic_modem.a(smtc_modem.o)
 .text.smtc_modem_leave_network
                0x0000000000000000       0x36 lbm/lbm_lib/./build/basic_modem.a(smtc_modem.o)
 .text.smtc_modem_suspend_radio_communications
                0x0000000000000000       0x60 lbm/lbm_lib/./build/basic_modem.a(smtc_modem.o)
 .text.smtc_modem_class_b_set_ping_slot_periodicity
                0x0000000000000000       0x32 lbm/lbm_lib/./build/basic_modem.a(smtc_modem.o)
 .text.smtc_modem_class_b_get_ping_slot_periodicity
                0x0000000000000000       0x24 lbm/lbm_lib/./build/basic_modem.a(smtc_modem.o)
 .text.smtc_modem_multicast_set_grp_config
                0x0000000000000000        0x4 lbm/lbm_lib/./build/basic_modem.a(smtc_modem.o)
 .text.smtc_modem_multicast_get_grp_config
                0x0000000000000000        0x4 lbm/lbm_lib/./build/basic_modem.a(smtc_modem.o)
 .text.smtc_modem_multicast_class_c_start_session
                0x0000000000000000        0x4 lbm/lbm_lib/./build/basic_modem.a(smtc_modem.o)
 .text.smtc_modem_multicast_class_c_get_session_status
                0x0000000000000000        0x4 lbm/lbm_lib/./build/basic_modem.a(smtc_modem.o)
 .text.smtc_modem_multicast_class_c_stop_session
                0x0000000000000000        0x4 lbm/lbm_lib/./build/basic_modem.a(smtc_modem.o)
 .text.smtc_modem_multicast_class_c_stop_all_sessions
                0x0000000000000000        0x4 lbm/lbm_lib/./build/basic_modem.a(smtc_modem.o)
 .text.smtc_modem_multicast_class_b_start_session
                0x0000000000000000        0x4 lbm/lbm_lib/./build/basic_modem.a(smtc_modem.o)
 .text.smtc_modem_multicast_class_b_get_session_status
                0x0000000000000000        0x4 lbm/lbm_lib/./build/basic_modem.a(smtc_modem.o)
 .text.smtc_modem_multicast_class_b_stop_session
                0x0000000000000000        0x4 lbm/lbm_lib/./build/basic_modem.a(smtc_modem.o)
 .text.smtc_modem_multicast_class_b_stop_all_sessions
                0x0000000000000000        0x4 lbm/lbm_lib/./build/basic_modem.a(smtc_modem.o)
 .text.smtc_modem_debug_set_duty_cycle_state
                0x0000000000000000       0x22 lbm/lbm_lib/./build/basic_modem.a(smtc_modem.o)
 .text.smtc_modem_debug_connect_with_abp
                0x0000000000000000       0x60 lbm/lbm_lib/./build/basic_modem.a(smtc_modem.o)
 .bss.smtc_modem_key_ctx
                0x0000000000000000       0x10 lbm/lbm_lib/./build/basic_modem.a(smtc_modem.o)
 .rodata.smtc_real_region_list
                0x0000000000000000        0x1 lbm/lbm_lib/./build/basic_modem.a(smtc_modem.o)
 .text          0x0000000000000000        0x0 lbm/lbm_lib/./build/basic_modem.a(modem_event_utilities.o)
 .data          0x0000000000000000        0x0 lbm/lbm_lib/./build/basic_modem.a(modem_event_utilities.o)
 .bss           0x0000000000000000        0x0 lbm/lbm_lib/./build/basic_modem.a(modem_event_utilities.o)
 .text          0x0000000000000000        0x0 lbm/lbm_lib/./build/basic_modem.a(fifo_ctrl.o)
 .data          0x0000000000000000        0x0 lbm/lbm_lib/./build/basic_modem.a(fifo_ctrl.o)
 .bss           0x0000000000000000        0x0 lbm/lbm_lib/./build/basic_modem.a(fifo_ctrl.o)
 .text.fifo_ctrl_get_free_space
                0x0000000000000000        0x4 lbm/lbm_lib/./build/basic_modem.a(fifo_ctrl.o)
 .text          0x0000000000000000        0x0 lbm/lbm_lib/./build/basic_modem.a(modem_core.o)
 .data          0x0000000000000000        0x0 lbm/lbm_lib/./build/basic_modem.a(modem_core.o)
 .bss           0x0000000000000000        0x0 lbm/lbm_lib/./build/basic_modem.a(modem_core.o)
 .text.modem_empty_callback
                0x0000000000000000        0x2 lbm/lbm_lib/./build/basic_modem.a(modem_core.o)
 .text.modem_set_radio_ctx
                0x0000000000000000        0xc lbm/lbm_lib/./build/basic_modem.a(modem_core.o)
 .text.modem_get_radio_ctx
                0x0000000000000000        0xc lbm/lbm_lib/./build/basic_modem.a(modem_core.o)
 .text.modem_suspend_radio_access
                0x0000000000000000       0x58 lbm/lbm_lib/./build/basic_modem.a(modem_core.o)
 .text.modem_resume_radio_access
                0x0000000000000000       0x24 lbm/lbm_lib/./build/basic_modem.a(modem_core.o)
 .text          0x0000000000000000        0x0 lbm/lbm_lib/./build/basic_modem.a(modem_supervisor_light.o)
 .data          0x0000000000000000        0x0 lbm/lbm_lib/./build/basic_modem.a(modem_supervisor_light.o)
 .bss           0x0000000000000000        0x0 lbm/lbm_lib/./build/basic_modem.a(modem_supervisor_light.o)
 .text.modem_supervisor_remove_task
                0x0000000000000000       0x1c lbm/lbm_lib/./build/basic_modem.a(modem_supervisor_light.o)
 .text.modem_supervisor_abort_tasks_in_range
                0x0000000000000000       0x3c lbm/lbm_lib/./build/basic_modem.a(modem_supervisor_light.o)
 .text.modem_supervisor_set_modem_is_suspended
                0x0000000000000000       0x10 lbm/lbm_lib/./build/basic_modem.a(modem_supervisor_light.o)
 .text.modem_supervisor_get_modem_mute_with_priority_parameter
                0x0000000000000000       0x10 lbm/lbm_lib/./build/basic_modem.a(modem_supervisor_light.o)
 .text.modem_supervisor_set_modem_mute_with_priority_parameter
                0x0000000000000000       0x14 lbm/lbm_lib/./build/basic_modem.a(modem_supervisor_light.o)
 .text          0x0000000000000000        0x0 lbm/lbm_lib/./build/basic_modem.a(modem_tx_protocol_manager.o)
 .data          0x0000000000000000        0x0 lbm/lbm_lib/./build/basic_modem.a(modem_tx_protocol_manager.o)
 .bss           0x0000000000000000        0x0 lbm/lbm_lib/./build/basic_modem.a(modem_tx_protocol_manager.o)
 .text.tx_protocol_manager_abort
                0x0000000000000000        0x8 lbm/lbm_lib/./build/basic_modem.a(modem_tx_protocol_manager.o)
 .text          0x0000000000000000        0x0 lbm/lbm_lib/./build/basic_modem.a(lorawan_certification.o)
 .data          0x0000000000000000        0x0 lbm/lbm_lib/./build/basic_modem.a(lorawan_certification.o)
 .bss           0x0000000000000000        0x0 lbm/lbm_lib/./build/basic_modem.a(lorawan_certification.o)
 .text.lorawan_certification_get_enabled
                0x0000000000000000       0x20 lbm/lbm_lib/./build/basic_modem.a(lorawan_certification.o)
 .text.lorawan_certification_set_enabled
                0x0000000000000000       0x60 lbm/lbm_lib/./build/basic_modem.a(lorawan_certification.o)
 .text          0x0000000000000000        0x0 lbm/lbm_lib/./build/basic_modem.a(lorawan_join_management.o)
 .data          0x0000000000000000        0x0 lbm/lbm_lib/./build/basic_modem.a(lorawan_join_management.o)
 .bss           0x0000000000000000        0x0 lbm/lbm_lib/./build/basic_modem.a(lorawan_join_management.o)
 .text.lorawan_join_remove_task
                0x0000000000000000       0x24 lbm/lbm_lib/./build/basic_modem.a(lorawan_join_management.o)
 .rodata.__func__.0
                0x0000000000000000       0x19 lbm/lbm_lib/./build/basic_modem.a(lorawan_join_management.o)
 .text          0x0000000000000000        0x0 lbm/lbm_lib/./build/basic_modem.a(lorawan_send_management.o)
 .data          0x0000000000000000        0x0 lbm/lbm_lib/./build/basic_modem.a(lorawan_send_management.o)
 .bss           0x0000000000000000        0x0 lbm/lbm_lib/./build/basic_modem.a(lorawan_send_management.o)
 .text.lorawan_send_remove_task
                0x0000000000000000       0x24 lbm/lbm_lib/./build/basic_modem.a(lorawan_send_management.o)
 .rodata.__func__.0
                0x0000000000000000       0x19 lbm/lbm_lib/./build/basic_modem.a(lorawan_send_management.o)
 .text          0x0000000000000000        0x0 lbm/lbm_lib/./build/basic_modem.a(lorawan_cid_request_management.o)
 .data          0x0000000000000000        0x0 lbm/lbm_lib/./build/basic_modem.a(lorawan_cid_request_management.o)
 .bss           0x0000000000000000        0x0 lbm/lbm_lib/./build/basic_modem.a(lorawan_cid_request_management.o)
 .rodata.lorawan_cid_request_add_task.str1.1
                0x0000000000000000       0x1c lbm/lbm_lib/./build/basic_modem.a(lorawan_cid_request_management.o)
 .text.lorawan_cid_request_add_task
                0x0000000000000000       0x6c lbm/lbm_lib/./build/basic_modem.a(lorawan_cid_request_management.o)
 .text.lorawan_cid_request_remove_task
                0x0000000000000000       0x24 lbm/lbm_lib/./build/basic_modem.a(lorawan_cid_request_management.o)
 .rodata.__func__.0
                0x0000000000000000       0x20 lbm/lbm_lib/./build/basic_modem.a(lorawan_cid_request_management.o)
 .rodata.__func__.1
                0x0000000000000000       0x1d lbm/lbm_lib/./build/basic_modem.a(lorawan_cid_request_management.o)
 .text          0x0000000000000000        0x0 lbm/lbm_lib/./build/basic_modem.a(lorawan_dwn_ack_management.o)
 .data          0x0000000000000000        0x0 lbm/lbm_lib/./build/basic_modem.a(lorawan_dwn_ack_management.o)
 .bss           0x0000000000000000        0x0 lbm/lbm_lib/./build/basic_modem.a(lorawan_dwn_ack_management.o)
 .text.lorawan_dwn_ack_remove_task
                0x0000000000000000       0x24 lbm/lbm_lib/./build/basic_modem.a(lorawan_dwn_ack_management.o)
 .rodata.__func__.0
                0x0000000000000000       0x1c lbm/lbm_lib/./build/basic_modem.a(lorawan_dwn_ack_management.o)
 .text          0x0000000000000000        0x0 lbm/lbm_lib/./build/basic_modem.a(soft_se.o)
 .data          0x0000000000000000        0x0 lbm/lbm_lib/./build/basic_modem.a(soft_se.o)
 .bss           0x0000000000000000        0x0 lbm/lbm_lib/./build/basic_modem.a(soft_se.o)
 .text.smtc_secure_element_set_pin
                0x0000000000000000       0x28 lbm/lbm_lib/./build/basic_modem.a(soft_se.o)
 .text.smtc_secure_element_get_pin
                0x0000000000000000       0x28 lbm/lbm_lib/./build/basic_modem.a(soft_se.o)
 .text.smtc_secure_element_store_context
                0x0000000000000000       0x58 lbm/lbm_lib/./build/basic_modem.a(soft_se.o)
 .text          0x0000000000000000        0x0 lbm/lbm_lib/./build/basic_modem.a(smtc_real.o)
 .data          0x0000000000000000        0x0 lbm/lbm_lib/./build/basic_modem.a(smtc_real.o)
 .bss           0x0000000000000000        0x0 lbm/lbm_lib/./build/basic_modem.a(smtc_real.o)
 .text.smtc_real_set_join_dr_distribution
                0x0000000000000000       0x12 lbm/lbm_lib/./build/basic_modem.a(smtc_real.o)
 .text.smtc_real_get_custom_dr_distribution
                0x0000000000000000       0x16 lbm/lbm_lib/./build/basic_modem.a(smtc_real.o)
 .text.smtc_real_cf_list_type_supported
                0x0000000000000000        0x6 lbm/lbm_lib/./build/basic_modem.a(smtc_real.o)
 .text.smtc_real_get_rx1_channel_frequency
                0x0000000000000000       0x48 lbm/lbm_lib/./build/basic_modem.a(smtc_real.o)
 .text.smtc_real_get_max_tx_channel_dr
                0x0000000000000000       0x64 lbm/lbm_lib/./build/basic_modem.a(smtc_real.o)
 .text.smtc_real_get_number_of_enabled_channels_for_a_datarate
                0x0000000000000000       0x42 lbm/lbm_lib/./build/basic_modem.a(smtc_real.o)
 .text.smtc_real_get_frequency_factor
                0x0000000000000000        0x6 lbm/lbm_lib/./build/basic_modem.a(smtc_real.o)
 .text.smtc_real_get_public_sync_word
                0x0000000000000000        0x6 lbm/lbm_lib/./build/basic_modem.a(smtc_real.o)
 .text.smtc_real_get_private_sync_word
                0x0000000000000000        0x6 lbm/lbm_lib/./build/basic_modem.a(smtc_real.o)
 .text.smtc_real_set_sync_word
                0x0000000000000000        0x6 lbm/lbm_lib/./build/basic_modem.a(smtc_real.o)
 .text.smtc_real_is_lbt_supported
                0x0000000000000000        0x6 lbm/lbm_lib/./build/basic_modem.a(smtc_real.o)
 .text.smtc_real_get_beacon_dr
                0x0000000000000000        0x6 lbm/lbm_lib/./build/basic_modem.a(smtc_real.o)
 .text.smtc_real_is_beacon_hopping
                0x0000000000000000       0x24 lbm/lbm_lib/./build/basic_modem.a(smtc_real.o)
 .text.smtc_real_get_beacon_frequency
                0x0000000000000000       0x28 lbm/lbm_lib/./build/basic_modem.a(smtc_real.o)
 .text.smtc_real_get_ping_slot_frequency
                0x0000000000000000       0x28 lbm/lbm_lib/./build/basic_modem.a(smtc_real.o)
 .text.smtc_real_get_ping_slot_datarate
                0x0000000000000000        0x6 lbm/lbm_lib/./build/basic_modem.a(smtc_real.o)
 .rodata.__func__.1
                0x0000000000000000       0x22 lbm/lbm_lib/./build/basic_modem.a(smtc_real.o)
 .rodata.__func__.17
                0x0000000000000000       0x24 lbm/lbm_lib/./build/basic_modem.a(smtc_real.o)
 .rodata.__func__.2
                0x0000000000000000       0x1f lbm/lbm_lib/./build/basic_modem.a(smtc_real.o)
 .rodata.__func__.3
                0x0000000000000000       0x1c lbm/lbm_lib/./build/basic_modem.a(smtc_real.o)
 .text          0x0000000000000000        0x0 lbm/lbm_lib/./build/basic_modem.a(smtc_duty_cycle.o)
 .data          0x0000000000000000        0x0 lbm/lbm_lib/./build/basic_modem.a(smtc_duty_cycle.o)
 .bss           0x0000000000000000        0x0 lbm/lbm_lib/./build/basic_modem.a(smtc_duty_cycle.o)
 .text.smtc_duty_cycle_is_toa_accepted
                0x0000000000000000       0x70 lbm/lbm_lib/./build/basic_modem.a(smtc_duty_cycle.o)
 .text          0x0000000000000000        0x0 lbm/lbm_lib/./build/basic_modem.a(smtc_lbt.o)
 .data          0x0000000000000000        0x0 lbm/lbm_lib/./build/basic_modem.a(smtc_lbt.o)
 .bss           0x0000000000000000        0x0 lbm/lbm_lib/./build/basic_modem.a(smtc_lbt.o)
 .text          0x0000000000000000        0x0 lbm/lbm_lib/./build/basic_modem.a(ral_sx126x.o)
 .data          0x0000000000000000        0x0 lbm/lbm_lib/./build/basic_modem.a(ral_sx126x.o)
 .bss           0x0000000000000000        0x0 lbm/lbm_lib/./build/basic_modem.a(ral_sx126x.o)
 .text          0x0000000000000000        0x0 lbm/lbm_lib/./build/basic_modem.a(ralf_sx126x.o)
 .data          0x0000000000000000        0x0 lbm/lbm_lib/./build/basic_modem.a(ralf_sx126x.o)
 .bss           0x0000000000000000        0x0 lbm/lbm_lib/./build/basic_modem.a(ralf_sx126x.o)
 .text          0x0000000000000000        0x0 lbm/lbm_lib/./build/basic_modem.a(radio_planner.o)
 .data          0x0000000000000000        0x0 lbm/lbm_lib/./build/basic_modem.a(radio_planner.o)
 .bss           0x0000000000000000        0x0 lbm/lbm_lib/./build/basic_modem.a(radio_planner.o)
 .text.rp_attach_new_radio
                0x0000000000000000       0x38 lbm/lbm_lib/./build/basic_modem.a(radio_planner.o)
 .text.rp_get_and_clear_raw_radio_irq
                0x0000000000000000       0x30 lbm/lbm_lib/./build/basic_modem.a(radio_planner.o)
 .text.rp_get_stats
                0x0000000000000000       0x14 lbm/lbm_lib/./build/basic_modem.a(radio_planner.o)
 .rodata.__func__.13
                0x0000000000000000       0x14 lbm/lbm_lib/./build/basic_modem.a(radio_planner.o)
 .rodata.__func__.4
                0x0000000000000000       0x1f lbm/lbm_lib/./build/basic_modem.a(radio_planner.o)
 .text          0x0000000000000000        0x0 lbm/lbm_lib/./build/basic_modem.a(lorawan_api.o)
 .data          0x0000000000000000        0x0 lbm/lbm_lib/./build/basic_modem.a(lorawan_api.o)
 .bss           0x0000000000000000        0x0 lbm/lbm_lib/./build/basic_modem.a(lorawan_api.o)
 .text.lorawan_api_payload_send_at_time
                0x0000000000000000       0x54 lbm/lbm_lib/./build/basic_modem.a(lorawan_api.o)
 .text.lorawan_api_dr_strategy_get
                0x0000000000000000       0x2c lbm/lbm_lib/./build/basic_modem.a(lorawan_api.o)
 .text.lorawan_api_dr_custom_get
                0x0000000000000000       0x30 lbm/lbm_lib/./build/basic_modem.a(lorawan_api.o)
 .text.lorawan_api_dr_join_distribution_set
                0x0000000000000000       0x34 lbm/lbm_lib/./build/basic_modem.a(lorawan_api.o)
 .text.lorawan_api_context_load
                0x0000000000000000       0x30 lbm/lbm_lib/./build/basic_modem.a(lorawan_api.o)
 .text.lorawan_api_factory_reset
                0x0000000000000000       0x30 lbm/lbm_lib/./build/basic_modem.a(lorawan_api.o)
 .text.lorawan_api_devaddr_get
                0x0000000000000000       0x30 lbm/lbm_lib/./build/basic_modem.a(lorawan_api.o)
 .text.lorawan_api_devaddr_set
                0x0000000000000000       0x34 lbm/lbm_lib/./build/basic_modem.a(lorawan_api.o)
 .text.lorawan_api_get_deveui
                0x0000000000000000       0x2c lbm/lbm_lib/./build/basic_modem.a(lorawan_api.o)
 .text.lorawan_api_get_joineui
                0x0000000000000000       0x2c lbm/lbm_lib/./build/basic_modem.a(lorawan_api.o)
 .text.lorawan_api_next_power_get
                0x0000000000000000       0x30 lbm/lbm_lib/./build/basic_modem.a(lorawan_api.o)
 .text.lorawan_api_next_dr_get
                0x0000000000000000       0x30 lbm/lbm_lib/./build/basic_modem.a(lorawan_api.o)
 .text.lorawan_api_get_modulation_type_from_datarate
                0x0000000000000000       0x34 lbm/lbm_lib/./build/basic_modem.a(lorawan_api.o)
 .text.lorawan_api_next_frequency_get
                0x0000000000000000       0x30 lbm/lbm_lib/./build/basic_modem.a(lorawan_api.o)
 .text.lorawan_api_max_tx_dr_get
                0x0000000000000000       0x30 lbm/lbm_lib/./build/basic_modem.a(lorawan_api.o)
 .text.lorawan_api_min_tx_dr_get
                0x0000000000000000       0x30 lbm/lbm_lib/./build/basic_modem.a(lorawan_api.o)
 .text.lorawan_api_state_get
                0x0000000000000000       0x30 lbm/lbm_lib/./build/basic_modem.a(lorawan_api.o)
 .text.lorawan_api_devnonce_get
                0x0000000000000000       0x30 lbm/lbm_lib/./build/basic_modem.a(lorawan_api.o)
 .text.lorawan_api_is_dtc_supported
                0x0000000000000000       0x30 lbm/lbm_lib/./build/basic_modem.a(lorawan_api.o)
 .text.lorawan_api_fcnt_up_get
                0x0000000000000000       0x30 lbm/lbm_lib/./build/basic_modem.a(lorawan_api.o)
 .text.lorawan_api_multicast_set_group_session_keys
                0x0000000000000000        0x4 lbm/lbm_lib/./build/basic_modem.a(lorawan_api.o)
 .text.lorawan_api_multicast_set_group_address
                0x0000000000000000       0x20 lbm/lbm_lib/./build/basic_modem.a(lorawan_api.o)
 .text.lorawan_api_multicast_get_group_address
                0x0000000000000000       0x20 lbm/lbm_lib/./build/basic_modem.a(lorawan_api.o)
 .text.lorawan_api_multicast_set_fcnt_down_range
                0x0000000000000000       0x20 lbm/lbm_lib/./build/basic_modem.a(lorawan_api.o)
 .text.lorawan_api_multicast_get_fcnt_down_range
                0x0000000000000000       0x20 lbm/lbm_lib/./build/basic_modem.a(lorawan_api.o)
 .text.lorawan_api_multicast_derive_group_keys
                0x0000000000000000       0x20 lbm/lbm_lib/./build/basic_modem.a(lorawan_api.o)
 .text.lorawan_api_multicast_get_running_status
                0x0000000000000000       0x20 lbm/lbm_lib/./build/basic_modem.a(lorawan_api.o)
 .text.lorawan_api_multicast_c_get_session_status
                0x0000000000000000       0x24 lbm/lbm_lib/./build/basic_modem.a(lorawan_api.o)
 .text.lorawan_api_multicast_c_start_session
                0x0000000000000000       0x20 lbm/lbm_lib/./build/basic_modem.a(lorawan_api.o)
 .text.lorawan_api_multicast_c_stop_session
                0x0000000000000000       0x20 lbm/lbm_lib/./build/basic_modem.a(lorawan_api.o)
 .text.lorawan_api_multicast_c_stop_all_sessions
                0x0000000000000000       0x20 lbm/lbm_lib/./build/basic_modem.a(lorawan_api.o)
 .text.lorawan_api_multicast_b_get_session_status
                0x0000000000000000       0x24 lbm/lbm_lib/./build/basic_modem.a(lorawan_api.o)
 .text.lorawan_api_multicast_b_start_session
                0x0000000000000000       0x24 lbm/lbm_lib/./build/basic_modem.a(lorawan_api.o)
 .text.lorawan_api_multicast_b_stop_session
                0x0000000000000000       0x20 lbm/lbm_lib/./build/basic_modem.a(lorawan_api.o)
 .text.lorawan_api_multicast_b_stop_all_sessions
                0x0000000000000000       0x20 lbm/lbm_lib/./build/basic_modem.a(lorawan_api.o)
 .text.lorawan_api_set_no_rx_packet_threshold
                0x0000000000000000       0x34 lbm/lbm_lib/./build/basic_modem.a(lorawan_api.o)
 .text.lorawan_api_get_no_rx_packet_threshold
                0x0000000000000000       0x30 lbm/lbm_lib/./build/basic_modem.a(lorawan_api.o)
 .text.lorawan_api_get_current_adr_ack_cnt
                0x0000000000000000       0x30 lbm/lbm_lib/./build/basic_modem.a(lorawan_api.o)
 .text.lorawan_api_get_current_no_rx_packet_in_mobile_mode_cnt
                0x0000000000000000       0x30 lbm/lbm_lib/./build/basic_modem.a(lorawan_api.o)
 .text.lorawan_api_get_current_no_rx_packet_cnt
                0x0000000000000000       0x30 lbm/lbm_lib/./build/basic_modem.a(lorawan_api.o)
 .text.lorawan_api_get_current_no_rx_packet_cnt_since_s
                0x0000000000000000       0x30 lbm/lbm_lib/./build/basic_modem.a(lorawan_api.o)
 .text.lorawan_api_join_duty_cycle_backoff_bypass_set
                0x0000000000000000       0x18 lbm/lbm_lib/./build/basic_modem.a(lorawan_api.o)
 .text.lorawan_api_available_link_adr_get
                0x0000000000000000       0x30 lbm/lbm_lib/./build/basic_modem.a(lorawan_api.o)
 .text.lorawan_api_set_network_type
                0x0000000000000000       0x48 lbm/lbm_lib/./build/basic_modem.a(lorawan_api.o)
 .text.lorawan_api_get_network_type
                0x0000000000000000       0x40 lbm/lbm_lib/./build/basic_modem.a(lorawan_api.o)
 .text.lorawan_api_nb_trans_get
                0x0000000000000000       0x30 lbm/lbm_lib/./build/basic_modem.a(lorawan_api.o)
 .text.lorawan_api_nb_trans_set
                0x0000000000000000       0x34 lbm/lbm_lib/./build/basic_modem.a(lorawan_api.o)
 .text.lorawan_api_get_crystal_error
                0x0000000000000000       0x30 lbm/lbm_lib/./build/basic_modem.a(lorawan_api.o)
 .text.lorawan_api_set_crystal_error
                0x0000000000000000       0x34 lbm/lbm_lib/./build/basic_modem.a(lorawan_api.o)
 .text.lorawan_api_convert_rtc_to_gps_epoch_time
                0x0000000000000000       0x3c lbm/lbm_lib/./build/basic_modem.a(lorawan_api.o)
 .text.lorawan_api_is_time_valid
                0x0000000000000000       0x30 lbm/lbm_lib/./build/basic_modem.a(lorawan_api.o)
 .text.lorawan_api_get_timestamp_last_device_time_ans_s
                0x0000000000000000       0x30 lbm/lbm_lib/./build/basic_modem.a(lorawan_api.o)
 .text.lorawan_api_get_time_left_connection_lost
                0x0000000000000000       0x30 lbm/lbm_lib/./build/basic_modem.a(lorawan_api.o)
 .text.lorawan_api_set_device_time_invalid_delay_s
                0x0000000000000000       0x34 lbm/lbm_lib/./build/basic_modem.a(lorawan_api.o)
 .text.lorawan_api_get_device_time_invalid_delay_s
                0x0000000000000000       0x30 lbm/lbm_lib/./build/basic_modem.a(lorawan_api.o)
 .text.lorawan_api_get_ping_slot_periodicity
                0x0000000000000000       0x30 lbm/lbm_lib/./build/basic_modem.a(lorawan_api.o)
 .text.lorawan_api_get_class_b_status
                0x0000000000000000       0x30 lbm/lbm_lib/./build/basic_modem.a(lorawan_api.o)
 .text.lorawan_api_lora_dr_to_sf_bw
                0x0000000000000000       0x3c lbm/lbm_lib/./build/basic_modem.a(lorawan_api.o)
 .text.lorawan_api_get_frequency_factor
                0x0000000000000000       0x30 lbm/lbm_lib/./build/basic_modem.a(lorawan_api.o)
 .text.lorawan_api_set_adr_ack_limit_delay
                0x0000000000000000       0x38 lbm/lbm_lib/./build/basic_modem.a(lorawan_api.o)
 .text.lorawan_api_get_adr_ack_limit_delay
                0x0000000000000000       0x38 lbm/lbm_lib/./build/basic_modem.a(lorawan_api.o)
 .text.lorawan_api_set_no_rx_windows
                0x0000000000000000       0x18 lbm/lbm_lib/./build/basic_modem.a(lorawan_api.o)
 .text.lorawan_api_get_no_rx_windows
                0x0000000000000000       0x18 lbm/lbm_lib/./build/basic_modem.a(lorawan_api.o)
 .text.lorawan_api_is_frequency_valid
                0x0000000000000000       0x18 lbm/lbm_lib/./build/basic_modem.a(lorawan_api.o)
 .text.lorawan_api_is_datarate_valid
                0x0000000000000000       0x18 lbm/lbm_lib/./build/basic_modem.a(lorawan_api.o)
 .bss.lorawan_down_metadata
                0x0000000000000000        0x4 lbm/lbm_lib/./build/basic_modem.a(lorawan_api.o)
 .rodata.__func__.0
                0x0000000000000000       0x24 lbm/lbm_lib/./build/basic_modem.a(lorawan_api.o)
 .rodata.__func__.1
                0x0000000000000000       0x24 lbm/lbm_lib/./build/basic_modem.a(lorawan_api.o)
 .rodata.__func__.10
                0x0000000000000000       0x2c lbm/lbm_lib/./build/basic_modem.a(lorawan_api.o)
 .rodata.__func__.11
                0x0000000000000000       0x2c lbm/lbm_lib/./build/basic_modem.a(lorawan_api.o)
 .rodata.__func__.12
                0x0000000000000000       0x2a lbm/lbm_lib/./build/basic_modem.a(lorawan_api.o)
 .rodata.__func__.13
                0x0000000000000000       0x31 lbm/lbm_lib/./build/basic_modem.a(lorawan_api.o)
 .rodata.__func__.14
                0x0000000000000000       0x1a lbm/lbm_lib/./build/basic_modem.a(lorawan_api.o)
 .rodata.__func__.15
                0x0000000000000000       0x2a lbm/lbm_lib/./build/basic_modem.a(lorawan_api.o)
 .rodata.__func__.18
                0x0000000000000000       0x1e lbm/lbm_lib/./build/basic_modem.a(lorawan_api.o)
 .rodata.__func__.19
                0x0000000000000000       0x1e lbm/lbm_lib/./build/basic_modem.a(lorawan_api.o)
 .rodata.__func__.2
                0x0000000000000000       0x21 lbm/lbm_lib/./build/basic_modem.a(lorawan_api.o)
 .rodata.__func__.20
                0x0000000000000000       0x19 lbm/lbm_lib/./build/basic_modem.a(lorawan_api.o)
 .rodata.__func__.21
                0x0000000000000000       0x19 lbm/lbm_lib/./build/basic_modem.a(lorawan_api.o)
 .rodata.__func__.22
                0x0000000000000000       0x1d lbm/lbm_lib/./build/basic_modem.a(lorawan_api.o)
 .rodata.__func__.23
                0x0000000000000000       0x1d lbm/lbm_lib/./build/basic_modem.a(lorawan_api.o)
 .rodata.__func__.25
                0x0000000000000000       0x23 lbm/lbm_lib/./build/basic_modem.a(lorawan_api.o)
 .rodata.__func__.28
                0x0000000000000000       0x31 lbm/lbm_lib/./build/basic_modem.a(lorawan_api.o)
 .rodata.__func__.29
                0x0000000000000000       0x29 lbm/lbm_lib/./build/basic_modem.a(lorawan_api.o)
 .rodata.__func__.3
                0x0000000000000000       0x1d lbm/lbm_lib/./build/basic_modem.a(lorawan_api.o)
 .rodata.__func__.30
                0x0000000000000000       0x38 lbm/lbm_lib/./build/basic_modem.a(lorawan_api.o)
 .rodata.__func__.32
                0x0000000000000000       0x24 lbm/lbm_lib/./build/basic_modem.a(lorawan_api.o)
 .rodata.__func__.33
                0x0000000000000000       0x27 lbm/lbm_lib/./build/basic_modem.a(lorawan_api.o)
 .rodata.__func__.34
                0x0000000000000000       0x27 lbm/lbm_lib/./build/basic_modem.a(lorawan_api.o)
 .rodata.__func__.35
                0x0000000000000000       0x2a lbm/lbm_lib/./build/basic_modem.a(lorawan_api.o)
 .rodata.__func__.36
                0x0000000000000000       0x25 lbm/lbm_lib/./build/basic_modem.a(lorawan_api.o)
 .rodata.__func__.37
                0x0000000000000000       0x26 lbm/lbm_lib/./build/basic_modem.a(lorawan_api.o)
 .rodata.__func__.38
                0x0000000000000000       0x2b lbm/lbm_lib/./build/basic_modem.a(lorawan_api.o)
 .rodata.__func__.39
                0x0000000000000000       0x2a lbm/lbm_lib/./build/basic_modem.a(lorawan_api.o)
 .rodata.__func__.4
                0x0000000000000000       0x1f lbm/lbm_lib/./build/basic_modem.a(lorawan_api.o)
 .rodata.__func__.40
                0x0000000000000000       0x25 lbm/lbm_lib/./build/basic_modem.a(lorawan_api.o)
 .rodata.__func__.41
                0x0000000000000000       0x26 lbm/lbm_lib/./build/basic_modem.a(lorawan_api.o)
 .rodata.__func__.42
                0x0000000000000000       0x2b lbm/lbm_lib/./build/basic_modem.a(lorawan_api.o)
 .rodata.__func__.43
                0x0000000000000000       0x29 lbm/lbm_lib/./build/basic_modem.a(lorawan_api.o)
 .rodata.__func__.44
                0x0000000000000000       0x28 lbm/lbm_lib/./build/basic_modem.a(lorawan_api.o)
 .rodata.__func__.45
                0x0000000000000000       0x2a lbm/lbm_lib/./build/basic_modem.a(lorawan_api.o)
 .rodata.__func__.46
                0x0000000000000000       0x2a lbm/lbm_lib/./build/basic_modem.a(lorawan_api.o)
 .rodata.__func__.47
                0x0000000000000000       0x28 lbm/lbm_lib/./build/basic_modem.a(lorawan_api.o)
 .rodata.__func__.48
                0x0000000000000000       0x28 lbm/lbm_lib/./build/basic_modem.a(lorawan_api.o)
 .rodata.__func__.49
                0x0000000000000000       0x18 lbm/lbm_lib/./build/basic_modem.a(lorawan_api.o)
 .rodata.__func__.5
                0x0000000000000000       0x26 lbm/lbm_lib/./build/basic_modem.a(lorawan_api.o)
 .rodata.__func__.51
                0x0000000000000000       0x1d lbm/lbm_lib/./build/basic_modem.a(lorawan_api.o)
 .rodata.__func__.53
                0x0000000000000000       0x19 lbm/lbm_lib/./build/basic_modem.a(lorawan_api.o)
 .rodata.__func__.54
                0x0000000000000000       0x16 lbm/lbm_lib/./build/basic_modem.a(lorawan_api.o)
 .rodata.__func__.55
                0x0000000000000000       0x1a lbm/lbm_lib/./build/basic_modem.a(lorawan_api.o)
 .rodata.__func__.57
                0x0000000000000000       0x1a lbm/lbm_lib/./build/basic_modem.a(lorawan_api.o)
 .rodata.__func__.58
                0x0000000000000000       0x1f lbm/lbm_lib/./build/basic_modem.a(lorawan_api.o)
 .rodata.__func__.59
                0x0000000000000000       0x2e lbm/lbm_lib/./build/basic_modem.a(lorawan_api.o)
 .rodata.__func__.60
                0x0000000000000000       0x18 lbm/lbm_lib/./build/basic_modem.a(lorawan_api.o)
 .rodata.__func__.61
                0x0000000000000000       0x1b lbm/lbm_lib/./build/basic_modem.a(lorawan_api.o)
 .rodata.__func__.65
                0x0000000000000000       0x18 lbm/lbm_lib/./build/basic_modem.a(lorawan_api.o)
 .rodata.__func__.67
                0x0000000000000000       0x17 lbm/lbm_lib/./build/basic_modem.a(lorawan_api.o)
 .rodata.__func__.68
                0x0000000000000000       0x18 lbm/lbm_lib/./build/basic_modem.a(lorawan_api.o)
 .rodata.__func__.69
                0x0000000000000000       0x18 lbm/lbm_lib/./build/basic_modem.a(lorawan_api.o)
 .rodata.__func__.73
                0x0000000000000000       0x1a lbm/lbm_lib/./build/basic_modem.a(lorawan_api.o)
 .rodata.__func__.74
                0x0000000000000000       0x19 lbm/lbm_lib/./build/basic_modem.a(lorawan_api.o)
 .rodata.__func__.76
                0x0000000000000000       0x25 lbm/lbm_lib/./build/basic_modem.a(lorawan_api.o)
 .rodata.__func__.77
                0x0000000000000000       0x1a lbm/lbm_lib/./build/basic_modem.a(lorawan_api.o)
 .rodata.__func__.79
                0x0000000000000000       0x1c lbm/lbm_lib/./build/basic_modem.a(lorawan_api.o)
 .rodata.__func__.85
                0x0000000000000000       0x21 lbm/lbm_lib/./build/basic_modem.a(lorawan_api.o)
 .text          0x0000000000000000        0x0 lbm/lbm_lib/./build/basic_modem.a(smtc_modem_test.o)
 .data          0x0000000000000000        0x0 lbm/lbm_lib/./build/basic_modem.a(smtc_modem_test.o)
 .bss           0x0000000000000000        0x0 lbm/lbm_lib/./build/basic_modem.a(smtc_modem_test.o)
 .text.ral_compute_lora_ldro
                0x0000000000000000       0x52 lbm/lbm_lib/./build/basic_modem.a(smtc_modem_test.o)
 .text.modem_test_compute_rssi_callback
                0x0000000000000000       0x34 lbm/lbm_lib/./build/basic_modem.a(smtc_modem_test.o)
 .text.modem_test_rx_callback
                0x0000000000000000       0x9c lbm/lbm_lib/./build/basic_modem.a(smtc_modem_test.o)
 .text.modem_test_tx_callback
                0x0000000000000000       0xf0 lbm/lbm_lib/./build/basic_modem.a(smtc_modem_test.o)
 .text.smtc_modem_test_tx_hop
                0x0000000000000000       0x12 lbm/lbm_lib/./build/basic_modem.a(smtc_modem_test.o)
 .text.smtc_modem_test_get_nb_rx_packets
                0x0000000000000000       0x20 lbm/lbm_lib/./build/basic_modem.a(smtc_modem_test.o)
 .text.smtc_modem_test_rssi
                0x0000000000000000       0x88 lbm/lbm_lib/./build/basic_modem.a(smtc_modem_test.o)
 .text.smtc_modem_test_get_rssi
                0x0000000000000000       0x30 lbm/lbm_lib/./build/basic_modem.a(smtc_modem_test.o)
 .text.modem_test_set_rssi
                0x0000000000000000        0xc lbm/lbm_lib/./build/basic_modem.a(smtc_modem_test.o)
 .text.smtc_modem_test_tx
                0x0000000000000000      0x244 lbm/lbm_lib/./build/basic_modem.a(smtc_modem_test.o)
 .text.smtc_modem_test_rx_continuous
                0x0000000000000000      0x1c4 lbm/lbm_lib/./build/basic_modem.a(smtc_modem_test.o)
 .text.smtc_modem_test_direct_radio_write
                0x0000000000000000       0x3c lbm/lbm_lib/./build/basic_modem.a(smtc_modem_test.o)
 .text.smtc_modem_test_direct_radio_read
                0x0000000000000000       0x3c lbm/lbm_lib/./build/basic_modem.a(smtc_modem_test.o)
 .rodata.modem_test_bw_convert
                0x0000000000000000        0x7 lbm/lbm_lib/./build/basic_modem.a(smtc_modem_test.o)
 .rodata.modem_test_bw_helper
                0x0000000000000000       0x1c lbm/lbm_lib/./build/basic_modem.a(smtc_modem_test.o)
 .rodata.modem_test_cr_convert
                0x0000000000000000        0x7 lbm/lbm_lib/./build/basic_modem.a(smtc_modem_test.o)
 .rodata.modem_test_sf_convert
                0x0000000000000000        0x9 lbm/lbm_lib/./build/basic_modem.a(smtc_modem_test.o)
 .rodata.sync_word_gfsk
                0x0000000000000000        0x3 lbm/lbm_lib/./build/basic_modem.a(smtc_modem_test.o)
 .text          0x0000000000000000        0x0 lbm/lbm_lib/./build/basic_modem.a(aes.o)
 .data          0x0000000000000000        0x0 lbm/lbm_lib/./build/basic_modem.a(aes.o)
 .bss           0x0000000000000000        0x0 lbm/lbm_lib/./build/basic_modem.a(aes.o)
 .text.aes_cbc_encrypt
                0x0000000000000000       0x74 lbm/lbm_lib/./build/basic_modem.a(aes.o)
 .text          0x0000000000000000        0x0 lbm/lbm_lib/./build/basic_modem.a(cmac.o)
 .data          0x0000000000000000        0x0 lbm/lbm_lib/./build/basic_modem.a(cmac.o)
 .bss           0x0000000000000000        0x0 lbm/lbm_lib/./build/basic_modem.a(cmac.o)
 .text          0x0000000000000000        0x0 lbm/lbm_lib/./build/basic_modem.a(smtc_modem_crypto.o)
 .data          0x0000000000000000        0x0 lbm/lbm_lib/./build/basic_modem.a(smtc_modem_crypto.o)
 .bss           0x0000000000000000        0x0 lbm/lbm_lib/./build/basic_modem.a(smtc_modem_crypto.o)
 .text.smtc_modem_crypto_derive_multicast_session_keys
                0x0000000000000000       0xa8 lbm/lbm_lib/./build/basic_modem.a(smtc_modem_crypto.o)
 .text.smtc_modem_crypto_get_class_b_rand
                0x0000000000000000       0x5c lbm/lbm_lib/./build/basic_modem.a(smtc_modem_crypto.o)
 .text.smtc_modem_crypto_service_encrypt
                0x0000000000000000       0xb2 lbm/lbm_lib/./build/basic_modem.a(smtc_modem_crypto.o)
 .data.smtc_crypto_key_addr_list
                0x0000000000000000       0x10 lbm/lbm_lib/./build/basic_modem.a(smtc_modem_crypto.o)
 .text          0x0000000000000000        0x0 lbm/lbm_lib/./build/basic_modem.a(region_eu_868.o)
 .data          0x0000000000000000        0x0 lbm/lbm_lib/./build/basic_modem.a(region_eu_868.o)
 .bss           0x0000000000000000        0x0 lbm/lbm_lib/./build/basic_modem.a(region_eu_868.o)
 .text          0x0000000000000000        0x0 lbm/lbm_lib/./build/basic_modem.a(lr1_stack_mac_layer.o)
 .data          0x0000000000000000        0x0 lbm/lbm_lib/./build/basic_modem.a(lr1_stack_mac_layer.o)
 .bss           0x0000000000000000        0x0 lbm/lbm_lib/./build/basic_modem.a(lr1_stack_mac_layer.o)
 .text.lr1_stack_nb_trans_get
                0x0000000000000000        0x4 lbm/lbm_lib/./build/basic_modem.a(lr1_stack_mac_layer.o)
 .text.lr1_stack_nb_trans_set
                0x0000000000000000       0x20 lbm/lbm_lib/./build/basic_modem.a(lr1_stack_mac_layer.o)
 .text.lr1_stack_get_crystal_error
                0x0000000000000000        0x8 lbm/lbm_lib/./build/basic_modem.a(lr1_stack_mac_layer.o)
 .text.lr1_stack_set_crystal_error
                0x0000000000000000        0x8 lbm/lbm_lib/./build/basic_modem.a(lr1_stack_mac_layer.o)
 .text          0x0000000000000000        0x0 lbm/lbm_lib/./build/basic_modem.a(lr1mac_core.o)
 .data          0x0000000000000000        0x0 lbm/lbm_lib/./build/basic_modem.a(lr1mac_core.o)
 .bss           0x0000000000000000        0x0 lbm/lbm_lib/./build/basic_modem.a(lr1mac_core.o)
 .text.lr1mac_core_payload_send_at_time
                0x0000000000000000       0x2c lbm/lbm_lib/./build/basic_modem.a(lr1mac_core.o)
 .text.lr1mac_core_dr_strategy_get
                0x0000000000000000        0xc lbm/lbm_lib/./build/basic_modem.a(lr1mac_core.o)
 .text.lr1mac_core_devaddr_get
                0x0000000000000000        0x4 lbm/lbm_lib/./build/basic_modem.a(lr1mac_core.o)
 .text.lr1mac_core_devaddr_set
                0x0000000000000000       0x16 lbm/lbm_lib/./build/basic_modem.a(lr1mac_core.o)
 .text.lr1mac_core_next_power_get
                0x0000000000000000        0x4 lbm/lbm_lib/./build/basic_modem.a(lr1mac_core.o)
 .text.lr1mac_core_state_get
                0x0000000000000000        0xc lbm/lbm_lib/./build/basic_modem.a(lr1mac_core.o)
 .text.lr1mac_core_next_dr_get
                0x0000000000000000        0x4 lbm/lbm_lib/./build/basic_modem.a(lr1mac_core.o)
 .text.lr1mac_core_next_frequency_get
                0x0000000000000000        0x8 lbm/lbm_lib/./build/basic_modem.a(lr1mac_core.o)
 .text.lr1mac_core_devnonce_get
                0x0000000000000000        0x8 lbm/lbm_lib/./build/basic_modem.a(lr1mac_core.o)
 .text.lr1mac_core_fcnt_up_get
                0x0000000000000000        0x4 lbm/lbm_lib/./build/basic_modem.a(lr1mac_core.o)
 .text.lr1mac_core_set_no_rx_packet_threshold
                0x0000000000000000        0x8 lbm/lbm_lib/./build/basic_modem.a(lr1mac_core.o)
 .text.lr1mac_core_get_no_rx_packet_threshold
                0x0000000000000000        0x8 lbm/lbm_lib/./build/basic_modem.a(lr1mac_core.o)
 .text.lr1mac_core_get_current_adr_ack_cnt
                0x0000000000000000        0xa lbm/lbm_lib/./build/basic_modem.a(lr1mac_core.o)
 .text.lr1mac_core_get_current_no_rx_packet_in_mobile_mode
                0x0000000000000000        0xc lbm/lbm_lib/./build/basic_modem.a(lr1mac_core.o)
 .text.lr1mac_core_get_current_no_rx_packet_cnt
                0x0000000000000000        0x8 lbm/lbm_lib/./build/basic_modem.a(lr1mac_core.o)
 .text.lr1mac_core_get_current_no_rx_packet_cnt_since_s
                0x0000000000000000       0x12 lbm/lbm_lib/./build/basic_modem.a(lr1mac_core.o)
 .text.lr1mac_core_available_link_adr_get
                0x0000000000000000       0x14 lbm/lbm_lib/./build/basic_modem.a(lr1mac_core.o)
 .text.lr1mac_core_join_duty_cycle_backoff_bypass_set
                0x0000000000000000        0xc lbm/lbm_lib/./build/basic_modem.a(lr1mac_core.o)
 .text.lr1mac_core_is_time_valid
                0x0000000000000000       0x24 lbm/lbm_lib/./build/basic_modem.a(lr1mac_core.o)
 .text.lr1mac_core_convert_rtc_to_gps_epoch_time
                0x0000000000000000       0x3e lbm/lbm_lib/./build/basic_modem.a(lr1mac_core.o)
 .text.lr1mac_core_get_timestamp_last_device_time_ans_s
                0x0000000000000000        0x8 lbm/lbm_lib/./build/basic_modem.a(lr1mac_core.o)
 .text.lr1mac_core_get_time_left_connection_lost
                0x0000000000000000       0x30 lbm/lbm_lib/./build/basic_modem.a(lr1mac_core.o)
 .text.lr1_mac_core_set_device_time_invalid_delay_s
                0x0000000000000000       0x1c lbm/lbm_lib/./build/basic_modem.a(lr1mac_core.o)
 .text.lr1_mac_core_get_device_time_invalid_delay_s
                0x0000000000000000        0x8 lbm/lbm_lib/./build/basic_modem.a(lr1mac_core.o)
 .text.lr1mac_core_get_ping_slot_periodicity
                0x0000000000000000        0xc lbm/lbm_lib/./build/basic_modem.a(lr1mac_core.o)
 .text.lr1mac_core_get_class_b_status
                0x0000000000000000        0xc lbm/lbm_lib/./build/basic_modem.a(lr1mac_core.o)
 .text.lr1mac_core_set_adr_ack_limit_delay
                0x0000000000000000       0x2c lbm/lbm_lib/./build/basic_modem.a(lr1mac_core.o)
 .text.lr1mac_core_get_adr_ack_limit_delay
                0x0000000000000000       0x14 lbm/lbm_lib/./build/basic_modem.a(lr1mac_core.o)
 .text.lr1mac_core_set_no_rx_windows
                0x0000000000000000        0xc lbm/lbm_lib/./build/basic_modem.a(lr1mac_core.o)
 .text.lr1mac_core_get_no_rx_windows
                0x0000000000000000        0xc lbm/lbm_lib/./build/basic_modem.a(lr1mac_core.o)
 .text          0x0000000000000000        0x0 lbm/lbm_lib/./build/basic_modem.a(lr1mac_utilities.o)
 .data          0x0000000000000000        0x0 lbm/lbm_lib/./build/basic_modem.a(lr1mac_utilities.o)
 .bss           0x0000000000000000        0x0 lbm/lbm_lib/./build/basic_modem.a(lr1mac_utilities.o)
 .text.lr1mac_utilities_get_symb_time_us
                0x0000000000000000       0x28 lbm/lbm_lib/./build/basic_modem.a(lr1mac_utilities.o)
 .text.SMTC_ARE_CLR_BYTE16
                0x0000000000000000       0x1a lbm/lbm_lib/./build/basic_modem.a(lr1mac_utilities.o)
 .rodata.CSWTCH.7
                0x0000000000000000       0x1c lbm/lbm_lib/./build/basic_modem.a(lr1mac_utilities.o)
 .text          0x0000000000000000        0x0 lbm/lbm_lib/./build/basic_modem.a(sx126x.o)
 .data          0x0000000000000000        0x0 lbm/lbm_lib/./build/basic_modem.a(sx126x.o)
 .bss           0x0000000000000000        0x0 lbm/lbm_lib/./build/basic_modem.a(sx126x.o)
 .text.sx126x_set_bpsk_mod_params
                0x0000000000000000       0x38 lbm/lbm_lib/./build/basic_modem.a(sx126x.o)
 .text.sx126x_set_bpsk_pkt_params
                0x0000000000000000       0x4a lbm/lbm_lib/./build/basic_modem.a(sx126x.o)
 .text.sx126x_set_gfsk_pkt_address
                0x0000000000000000       0x18 lbm/lbm_lib/./build/basic_modem.a(sx126x.o)
 .text.sx126x_get_gfsk_stats
                0x0000000000000000       0x46 lbm/lbm_lib/./build/basic_modem.a(sx126x.o)
 .text.sx126x_get_lora_stats
                0x0000000000000000       0x46 lbm/lbm_lib/./build/basic_modem.a(sx126x.o)
 .text.sx126x_reset_stats
                0x0000000000000000       0x2c lbm/lbm_lib/./build/basic_modem.a(sx126x.o)
 .text.sx126x_get_device_errors
                0x0000000000000000       0x2e lbm/lbm_lib/./build/basic_modem.a(sx126x.o)
 .text.sx126x_clear_device_errors
                0x0000000000000000       0x2c lbm/lbm_lib/./build/basic_modem.a(sx126x.o)
 .text          0x0000000000000000        0x0 lbm/lbm_lib/./build/basic_modem.a(sx126x_lr_fhss.o)
 .data          0x0000000000000000        0x0 lbm/lbm_lib/./build/basic_modem.a(sx126x_lr_fhss.o)
 .bss           0x0000000000000000        0x0 lbm/lbm_lib/./build/basic_modem.a(sx126x_lr_fhss.o)
 .text          0x0000000000000000        0x0 lbm/lbm_lib/./build/basic_modem.a(lr_fhss_mac.o)
 .data          0x0000000000000000        0x0 lbm/lbm_lib/./build/basic_modem.a(lr_fhss_mac.o)
 .bss           0x0000000000000000        0x0 lbm/lbm_lib/./build/basic_modem.a(lr_fhss_mac.o)
 .text          0x0000000000000000       0x10 /usr/lib/gcc/arm-none-eabi/10.3.1/../../../arm-none-eabi/lib/thumb/v6-m/nofp/libc_nano.a(lib_a-atexit.o)
 .data          0x0000000000000000        0x0 /usr/lib/gcc/arm-none-eabi/10.3.1/../../../arm-none-eabi/lib/thumb/v6-m/nofp/libc_nano.a(lib_a-atexit.o)
 .bss           0x0000000000000000        0x0 /usr/lib/gcc/arm-none-eabi/10.3.1/../../../arm-none-eabi/lib/thumb/v6-m/nofp/libc_nano.a(lib_a-atexit.o)
 .debug_info    0x0000000000000000      0x100 /usr/lib/gcc/arm-none-eabi/10.3.1/../../../arm-none-eabi/lib/thumb/v6-m/nofp/libc_nano.a(lib_a-atexit.o)
 .debug_abbrev  0x0000000000000000       0xb4 /usr/lib/gcc/arm-none-eabi/10.3.1/../../../arm-none-eabi/lib/thumb/v6-m/nofp/libc_nano.a(lib_a-atexit.o)
 .debug_loc     0x0000000000000000       0x32 /usr/lib/gcc/arm-none-eabi/10.3.1/../../../arm-none-eabi/lib/thumb/v6-m/nofp/libc_nano.a(lib_a-atexit.o)
 .debug_aranges
                0x0000000000000000       0x20 /usr/lib/gcc/arm-none-eabi/10.3.1/../../../arm-none-eabi/lib/thumb/v6-m/nofp/libc_nano.a(lib_a-atexit.o)
 .debug_line    0x0000000000000000       0xc3 /usr/lib/gcc/arm-none-eabi/10.3.1/../../../arm-none-eabi/lib/thumb/v6-m/nofp/libc_nano.a(lib_a-atexit.o)
 .debug_str     0x0000000000000000      0x1e2 /usr/lib/gcc/arm-none-eabi/10.3.1/../../../arm-none-eabi/lib/thumb/v6-m/nofp/libc_nano.a(lib_a-atexit.o)
 .comment       0x0000000000000000       0x34 /usr/lib/gcc/arm-none-eabi/10.3.1/../../../arm-none-eabi/lib/thumb/v6-m/nofp/libc_nano.a(lib_a-atexit.o)
 .debug_frame   0x0000000000000000       0x28 /usr/lib/gcc/arm-none-eabi/10.3.1/../../../arm-none-eabi/lib/thumb/v6-m/nofp/libc_nano.a(lib_a-atexit.o)
 .ARM.attributes
                0x0000000000000000       0x2c /usr/lib/gcc/arm-none-eabi/10.3.1/../../../arm-none-eabi/lib/thumb/v6-m/nofp/libc_nano.a(lib_a-atexit.o)
 .text          0x0000000000000000       0x2c /usr/lib/gcc/arm-none-eabi/10.3.1/../../../arm-none-eabi/lib/thumb/v6-m/nofp/libc_nano.a(lib_a-exit.o)
 .data          0x0000000000000000        0x0 /usr/lib/gcc/arm-none-eabi/10.3.1/../../../arm-none-eabi/lib/thumb/v6-m/nofp/libc_nano.a(lib_a-exit.o)
 .bss           0x0000000000000000        0x0 /usr/lib/gcc/arm-none-eabi/10.3.1/../../../arm-none-eabi/lib/thumb/v6-m/nofp/libc_nano.a(lib_a-exit.o)
 .debug_info    0x0000000000000000      0x81a /usr/lib/gcc/arm-none-eabi/10.3.1/../../../arm-none-eabi/lib/thumb/v6-m/nofp/libc_nano.a(lib_a-exit.o)
 .debug_abbrev  0x0000000000000000      0x1ba /usr/lib/gcc/arm-none-eabi/10.3.1/../../../arm-none-eabi/lib/thumb/v6-m/nofp/libc_nano.a(lib_a-exit.o)
 .debug_loc     0x0000000000000000       0x22 /usr/lib/gcc/arm-none-eabi/10.3.1/../../../arm-none-eabi/lib/thumb/v6-m/nofp/libc_nano.a(lib_a-exit.o)
 .debug_aranges
                0x0000000000000000       0x20 /usr/lib/gcc/arm-none-eabi/10.3.1/../../../arm-none-eabi/lib/thumb/v6-m/nofp/libc_nano.a(lib_a-exit.o)
 .debug_line    0x0000000000000000      0x16b /usr/lib/gcc/arm-none-eabi/10.3.1/../../../arm-none-eabi/lib/thumb/v6-m/nofp/libc_nano.a(lib_a-exit.o)
 .debug_str     0x0000000000000000      0x521 /usr/lib/gcc/arm-none-eabi/10.3.1/../../../arm-none-eabi/lib/thumb/v6-m/nofp/libc_nano.a(lib_a-exit.o)
 .comment       0x0000000000000000       0x34 /usr/lib/gcc/arm-none-eabi/10.3.1/../../../arm-none-eabi/lib/thumb/v6-m/nofp/libc_nano.a(lib_a-exit.o)
 .debug_frame   0x0000000000000000       0x28 /usr/lib/gcc/arm-none-eabi/10.3.1/../../../arm-none-eabi/lib/thumb/v6-m/nofp/libc_nano.a(lib_a-exit.o)
 .ARM.attributes
                0x0000000000000000       0x2c /usr/lib/gcc/arm-none-eabi/10.3.1/../../../arm-none-eabi/lib/thumb/v6-m/nofp/libc_nano.a(lib_a-exit.o)
 .text          0x0000000000000000       0x28 /usr/lib/gcc/arm-none-eabi/10.3.1/../../../arm-none-eabi/lib/thumb/v6-m/nofp/libc_nano.a(lib_a-fini.o)
 .data          0x0000000000000000        0x0 /usr/lib/gcc/arm-none-eabi/10.3.1/../../../arm-none-eabi/lib/thumb/v6-m/nofp/libc_nano.a(lib_a-fini.o)
 .bss           0x0000000000000000        0x0 /usr/lib/gcc/arm-none-eabi/10.3.1/../../../arm-none-eabi/lib/thumb/v6-m/nofp/libc_nano.a(lib_a-fini.o)
 .debug_info    0x0000000000000000      0x102 /usr/lib/gcc/arm-none-eabi/10.3.1/../../../arm-none-eabi/lib/thumb/v6-m/nofp/libc_nano.a(lib_a-fini.o)
 .debug_abbrev  0x0000000000000000       0xcc /usr/lib/gcc/arm-none-eabi/10.3.1/../../../arm-none-eabi/lib/thumb/v6-m/nofp/libc_nano.a(lib_a-fini.o)
 .debug_loc     0x0000000000000000       0x46 /usr/lib/gcc/arm-none-eabi/10.3.1/../../../arm-none-eabi/lib/thumb/v6-m/nofp/libc_nano.a(lib_a-fini.o)
 .debug_aranges
                0x0000000000000000       0x20 /usr/lib/gcc/arm-none-eabi/10.3.1/../../../arm-none-eabi/lib/thumb/v6-m/nofp/libc_nano.a(lib_a-fini.o)
 .debug_line    0x0000000000000000       0xef /usr/lib/gcc/arm-none-eabi/10.3.1/../../../arm-none-eabi/lib/thumb/v6-m/nofp/libc_nano.a(lib_a-fini.o)
 .debug_str     0x0000000000000000      0x1da /usr/lib/gcc/arm-none-eabi/10.3.1/../../../arm-none-eabi/lib/thumb/v6-m/nofp/libc_nano.a(lib_a-fini.o)
 .comment       0x0000000000000000       0x34 /usr/lib/gcc/arm-none-eabi/10.3.1/../../../arm-none-eabi/lib/thumb/v6-m/nofp/libc_nano.a(lib_a-fini.o)
 .debug_frame   0x0000000000000000       0x2c /usr/lib/gcc/arm-none-eabi/10.3.1/../../../arm-none-eabi/lib/thumb/v6-m/nofp/libc_nano.a(lib_a-fini.o)
 .ARM.attributes
                0x0000000000000000       0x2c /usr/lib/gcc/arm-none-eabi/10.3.1/../../../arm-none-eabi/lib/thumb/v6-m/nofp/libc_nano.a(lib_a-fini.o)
 .text          0x0000000000000000        0x0 /usr/lib/gcc/arm-none-eabi/10.3.1/../../../arm-none-eabi/lib/thumb/v6-m/nofp/libc_nano.a(lib_a-impure.o)
 .bss           0x0000000000000000        0x0 /usr/lib/gcc/arm-none-eabi/10.3.1/../../../arm-none-eabi/lib/thumb/v6-m/nofp/libc_nano.a(lib_a-impure.o)
 .data          0x0000000000000000        0x0 /usr/lib/gcc/arm-none-eabi/10.3.1/../../../arm-none-eabi/lib/thumb/v6-m/nofp/libc_nano.a(lib_a-init.o)
 .bss           0x0000000000000000        0x0 /usr/lib/gcc/arm-none-eabi/10.3.1/../../../arm-none-eabi/lib/thumb/v6-m/nofp/libc_nano.a(lib_a-init.o)
 .data          0x0000000000000000        0x0 /usr/lib/gcc/arm-none-eabi/10.3.1/../../../arm-none-eabi/lib/thumb/v6-m/nofp/libc_nano.a(lib_a-memcmp.o)
 .bss           0x0000000000000000        0x0 /usr/lib/gcc/arm-none-eabi/10.3.1/../../../arm-none-eabi/lib/thumb/v6-m/nofp/libc_nano.a(lib_a-memcmp.o)
 .data          0x0000000000000000        0x0 /usr/lib/gcc/arm-none-eabi/10.3.1/../../../arm-none-eabi/lib/thumb/v6-m/nofp/libc_nano.a(lib_a-memcpy-stub.o)
 .bss           0x0000000000000000        0x0 /usr/lib/gcc/arm-none-eabi/10.3.1/../../../arm-none-eabi/lib/thumb/v6-m/nofp/libc_nano.a(lib_a-memcpy-stub.o)
 .data          0x0000000000000000        0x0 /usr/lib/gcc/arm-none-eabi/10.3.1/../../../arm-none-eabi/lib/thumb/v6-m/nofp/libc_nano.a(lib_a-memset.o)
 .bss           0x0000000000000000        0x0 /usr/lib/gcc/arm-none-eabi/10.3.1/../../../arm-none-eabi/lib/thumb/v6-m/nofp/libc_nano.a(lib_a-memset.o)
 .data          0x0000000000000000        0x0 /usr/lib/gcc/arm-none-eabi/10.3.1/../../../arm-none-eabi/lib/thumb/v6-m/nofp/libc_nano.a(lib_a-rand.o)
 .bss           0x0000000000000000        0x0 /usr/lib/gcc/arm-none-eabi/10.3.1/../../../arm-none-eabi/lib/thumb/v6-m/nofp/libc_nano.a(lib_a-rand.o)
 .data          0x0000000000000000        0x0 /usr/lib/gcc/arm-none-eabi/10.3.1/../../../arm-none-eabi/lib/thumb/v6-m/nofp/libc_nano.a(lib_a-snprintf.o)
 .bss           0x0000000000000000        0x0 /usr/lib/gcc/arm-none-eabi/10.3.1/../../../arm-none-eabi/lib/thumb/v6-m/nofp/libc_nano.a(lib_a-snprintf.o)
 .data          0x0000000000000000        0x0 /usr/lib/gcc/arm-none-eabi/10.3.1/../../../arm-none-eabi/lib/thumb/v6-m/nofp/libc_nano.a(lib_a-strcmp.o)
 .bss           0x0000000000000000        0x0 /usr/lib/gcc/arm-none-eabi/10.3.1/../../../arm-none-eabi/lib/thumb/v6-m/nofp/libc_nano.a(lib_a-strcmp.o)
 .data          0x0000000000000000        0x0 /usr/lib/gcc/arm-none-eabi/10.3.1/../../../arm-none-eabi/lib/thumb/v6-m/nofp/libc_nano.a(lib_a-strlen-stub.o)
 .bss           0x0000000000000000        0x0 /usr/lib/gcc/arm-none-eabi/10.3.1/../../../arm-none-eabi/lib/thumb/v6-m/nofp/libc_nano.a(lib_a-strlen-stub.o)
 .data          0x0000000000000000        0x0 /usr/lib/gcc/arm-none-eabi/10.3.1/../../../arm-none-eabi/lib/thumb/v6-m/nofp/libc_nano.a(lib_a-vsprintf.o)
 .bss           0x0000000000000000        0x0 /usr/lib/gcc/arm-none-eabi/10.3.1/../../../arm-none-eabi/lib/thumb/v6-m/nofp/libc_nano.a(lib_a-vsprintf.o)
 .text          0x0000000000000000       0xd0 /usr/lib/gcc/arm-none-eabi/10.3.1/../../../arm-none-eabi/lib/thumb/v6-m/nofp/libc_nano.a(lib_a-__atexit.o)
 .data          0x0000000000000000        0x4 /usr/lib/gcc/arm-none-eabi/10.3.1/../../../arm-none-eabi/lib/thumb/v6-m/nofp/libc_nano.a(lib_a-__atexit.o)
 .bss           0x0000000000000000       0x8c /usr/lib/gcc/arm-none-eabi/10.3.1/../../../arm-none-eabi/lib/thumb/v6-m/nofp/libc_nano.a(lib_a-__atexit.o)
 .debug_info    0x0000000000000000      0x269 /usr/lib/gcc/arm-none-eabi/10.3.1/../../../arm-none-eabi/lib/thumb/v6-m/nofp/libc_nano.a(lib_a-__atexit.o)
 .debug_abbrev  0x0000000000000000      0x1bd /usr/lib/gcc/arm-none-eabi/10.3.1/../../../arm-none-eabi/lib/thumb/v6-m/nofp/libc_nano.a(lib_a-__atexit.o)
 .debug_loc     0x0000000000000000      0x203 /usr/lib/gcc/arm-none-eabi/10.3.1/../../../arm-none-eabi/lib/thumb/v6-m/nofp/libc_nano.a(lib_a-__atexit.o)
 .debug_aranges
                0x0000000000000000       0x20 /usr/lib/gcc/arm-none-eabi/10.3.1/../../../arm-none-eabi/lib/thumb/v6-m/nofp/libc_nano.a(lib_a-__atexit.o)
 .debug_line    0x0000000000000000      0x201 /usr/lib/gcc/arm-none-eabi/10.3.1/../../../arm-none-eabi/lib/thumb/v6-m/nofp/libc_nano.a(lib_a-__atexit.o)
 .debug_str     0x0000000000000000      0x290 /usr/lib/gcc/arm-none-eabi/10.3.1/../../../arm-none-eabi/lib/thumb/v6-m/nofp/libc_nano.a(lib_a-__atexit.o)
 .comment       0x0000000000000000       0x34 /usr/lib/gcc/arm-none-eabi/10.3.1/../../../arm-none-eabi/lib/thumb/v6-m/nofp/libc_nano.a(lib_a-__atexit.o)
 .debug_frame   0x0000000000000000       0x3c /usr/lib/gcc/arm-none-eabi/10.3.1/../../../arm-none-eabi/lib/thumb/v6-m/nofp/libc_nano.a(lib_a-__atexit.o)
 .ARM.attributes
                0x0000000000000000       0x2c /usr/lib/gcc/arm-none-eabi/10.3.1/../../../arm-none-eabi/lib/thumb/v6-m/nofp/libc_nano.a(lib_a-__atexit.o)
 .text          0x0000000000000000       0xfc /usr/lib/gcc/arm-none-eabi/10.3.1/../../../arm-none-eabi/lib/thumb/v6-m/nofp/libc_nano.a(lib_a-__call_atexit.o)
 .data          0x0000000000000000        0x0 /usr/lib/gcc/arm-none-eabi/10.3.1/../../../arm-none-eabi/lib/thumb/v6-m/nofp/libc_nano.a(lib_a-__call_atexit.o)
 .bss           0x0000000000000000        0x4 /usr/lib/gcc/arm-none-eabi/10.3.1/../../../arm-none-eabi/lib/thumb/v6-m/nofp/libc_nano.a(lib_a-__call_atexit.o)
 .debug_info    0x0000000000000000      0x249 /usr/lib/gcc/arm-none-eabi/10.3.1/../../../arm-none-eabi/lib/thumb/v6-m/nofp/libc_nano.a(lib_a-__call_atexit.o)
 .debug_abbrev  0x0000000000000000      0x179 /usr/lib/gcc/arm-none-eabi/10.3.1/../../../arm-none-eabi/lib/thumb/v6-m/nofp/libc_nano.a(lib_a-__call_atexit.o)
 .debug_loc     0x0000000000000000      0x273 /usr/lib/gcc/arm-none-eabi/10.3.1/../../../arm-none-eabi/lib/thumb/v6-m/nofp/libc_nano.a(lib_a-__call_atexit.o)
 .debug_aranges
                0x0000000000000000       0x20 /usr/lib/gcc/arm-none-eabi/10.3.1/../../../arm-none-eabi/lib/thumb/v6-m/nofp/libc_nano.a(lib_a-__call_atexit.o)
 .debug_ranges  0x0000000000000000       0x28 /usr/lib/gcc/arm-none-eabi/10.3.1/../../../arm-none-eabi/lib/thumb/v6-m/nofp/libc_nano.a(lib_a-__call_atexit.o)
 .debug_line    0x0000000000000000      0x219 /usr/lib/gcc/arm-none-eabi/10.3.1/../../../arm-none-eabi/lib/thumb/v6-m/nofp/libc_nano.a(lib_a-__call_atexit.o)
 .debug_str     0x0000000000000000      0x254 /usr/lib/gcc/arm-none-eabi/10.3.1/../../../arm-none-eabi/lib/thumb/v6-m/nofp/libc_nano.a(lib_a-__call_atexit.o)
 .comment       0x0000000000000000       0x34 /usr/lib/gcc/arm-none-eabi/10.3.1/../../../arm-none-eabi/lib/thumb/v6-m/nofp/libc_nano.a(lib_a-__call_atexit.o)
 .debug_frame   0x0000000000000000       0x3c /usr/lib/gcc/arm-none-eabi/10.3.1/../../../arm-none-eabi/lib/thumb/v6-m/nofp/libc_nano.a(lib_a-__call_atexit.o)
 .ARM.attributes
                0x0000000000000000       0x2c /usr/lib/gcc/arm-none-eabi/10.3.1/../../../arm-none-eabi/lib/thumb/v6-m/nofp/libc_nano.a(lib_a-__call_atexit.o)
 .data          0x0000000000000000        0x0 /usr/lib/gcc/arm-none-eabi/10.3.1/../../../arm-none-eabi/lib/thumb/v6-m/nofp/libc_nano.a(lib_a-assert.o)
 .bss           0x0000000000000000        0x0 /usr/lib/gcc/arm-none-eabi/10.3.1/../../../arm-none-eabi/lib/thumb/v6-m/nofp/libc_nano.a(lib_a-assert.o)
 .data          0x0000000000000000        0x0 /usr/lib/gcc/arm-none-eabi/10.3.1/../../../arm-none-eabi/lib/thumb/v6-m/nofp/libc_nano.a(lib_a-fprintf.o)
 .bss           0x0000000000000000        0x0 /usr/lib/gcc/arm-none-eabi/10.3.1/../../../arm-none-eabi/lib/thumb/v6-m/nofp/libc_nano.a(lib_a-fprintf.o)
 .data          0x0000000000000000        0x0 /usr/lib/gcc/arm-none-eabi/10.3.1/../../../arm-none-eabi/lib/thumb/v6-m/nofp/libc_nano.a(lib_a-malloc.o)
 .bss           0x0000000000000000        0x0 /usr/lib/gcc/arm-none-eabi/10.3.1/../../../arm-none-eabi/lib/thumb/v6-m/nofp/libc_nano.a(lib_a-malloc.o)
 .data          0x0000000000000000        0x0 /usr/lib/gcc/arm-none-eabi/10.3.1/../../../arm-none-eabi/lib/thumb/v6-m/nofp/libc_nano.a(lib_a-nano-freer.o)
 .bss           0x0000000000000000        0x0 /usr/lib/gcc/arm-none-eabi/10.3.1/../../../arm-none-eabi/lib/thumb/v6-m/nofp/libc_nano.a(lib_a-nano-freer.o)
 .data          0x0000000000000000        0x0 /usr/lib/gcc/arm-none-eabi/10.3.1/../../../arm-none-eabi/lib/thumb/v6-m/nofp/libc_nano.a(lib_a-nano-mallocr.o)
 .data          0x0000000000000000        0x0 /usr/lib/gcc/arm-none-eabi/10.3.1/../../../arm-none-eabi/lib/thumb/v6-m/nofp/libc_nano.a(lib_a-nano-svfprintf.o)
 .bss           0x0000000000000000        0x0 /usr/lib/gcc/arm-none-eabi/10.3.1/../../../arm-none-eabi/lib/thumb/v6-m/nofp/libc_nano.a(lib_a-nano-svfprintf.o)
 .data          0x0000000000000000        0x0 /usr/lib/gcc/arm-none-eabi/10.3.1/../../../arm-none-eabi/lib/thumb/v6-m/nofp/libc_nano.a(lib_a-nano-vfprintf.o)
 .bss           0x0000000000000000        0x0 /usr/lib/gcc/arm-none-eabi/10.3.1/../../../arm-none-eabi/lib/thumb/v6-m/nofp/libc_nano.a(lib_a-nano-vfprintf.o)
 .data          0x0000000000000000        0x0 /usr/lib/gcc/arm-none-eabi/10.3.1/../../../arm-none-eabi/lib/thumb/v6-m/nofp/libc_nano.a(lib_a-nano-vfprintf_i.o)
 .bss           0x0000000000000000        0x0 /usr/lib/gcc/arm-none-eabi/10.3.1/../../../arm-none-eabi/lib/thumb/v6-m/nofp/libc_nano.a(lib_a-nano-vfprintf_i.o)
 .data          0x0000000000000000        0x0 /usr/lib/gcc/arm-none-eabi/10.3.1/../../../arm-none-eabi/lib/thumb/v6-m/nofp/libc_nano.a(lib_a-sbrkr.o)
 .bss           0x0000000000000000        0x0 /usr/lib/gcc/arm-none-eabi/10.3.1/../../../arm-none-eabi/lib/thumb/v6-m/nofp/libc_nano.a(lib_a-sbrkr.o)
 .data          0x0000000000000000        0x0 /usr/lib/gcc/arm-none-eabi/10.3.1/../../../arm-none-eabi/lib/thumb/v6-m/nofp/libc_nano.a(lib_a-wbuf.o)
 .bss           0x0000000000000000        0x0 /usr/lib/gcc/arm-none-eabi/10.3.1/../../../arm-none-eabi/lib/thumb/v6-m/nofp/libc_nano.a(lib_a-wbuf.o)
 .data          0x0000000000000000        0x0 /usr/lib/gcc/arm-none-eabi/10.3.1/../../../arm-none-eabi/lib/thumb/v6-m/nofp/libc_nano.a(lib_a-wsetup.o)
 .bss           0x0000000000000000        0x0 /usr/lib/gcc/arm-none-eabi/10.3.1/../../../arm-none-eabi/lib/thumb/v6-m/nofp/libc_nano.a(lib_a-wsetup.o)
 .data          0x0000000000000000        0x0 /usr/lib/gcc/arm-none-eabi/10.3.1/../../../arm-none-eabi/lib/thumb/v6-m/nofp/libc_nano.a(lib_a-abort.o)
 .bss           0x0000000000000000        0x0 /usr/lib/gcc/arm-none-eabi/10.3.1/../../../arm-none-eabi/lib/thumb/v6-m/nofp/libc_nano.a(lib_a-abort.o)
 .data          0x0000000000000000        0x0 /usr/lib/gcc/arm-none-eabi/10.3.1/../../../arm-none-eabi/lib/thumb/v6-m/nofp/libc_nano.a(lib_a-fflush.o)
 .bss           0x0000000000000000        0x0 /usr/lib/gcc/arm-none-eabi/10.3.1/../../../arm-none-eabi/lib/thumb/v6-m/nofp/libc_nano.a(lib_a-fflush.o)
 .data          0x0000000000000000        0x0 /usr/lib/gcc/arm-none-eabi/10.3.1/../../../arm-none-eabi/lib/thumb/v6-m/nofp/libc_nano.a(lib_a-findfp.o)
 .bss           0x0000000000000000        0x0 /usr/lib/gcc/arm-none-eabi/10.3.1/../../../arm-none-eabi/lib/thumb/v6-m/nofp/libc_nano.a(lib_a-findfp.o)
 .data          0x0000000000000000        0x0 /usr/lib/gcc/arm-none-eabi/10.3.1/../../../arm-none-eabi/lib/thumb/v6-m/nofp/libc_nano.a(lib_a-fvwrite.o)
 .bss           0x0000000000000000        0x0 /usr/lib/gcc/arm-none-eabi/10.3.1/../../../arm-none-eabi/lib/thumb/v6-m/nofp/libc_nano.a(lib_a-fvwrite.o)
 .data          0x0000000000000000        0x0 /usr/lib/gcc/arm-none-eabi/10.3.1/../../../arm-none-eabi/lib/thumb/v6-m/nofp/libc_nano.a(lib_a-fwalk.o)
 .bss           0x0000000000000000        0x0 /usr/lib/gcc/arm-none-eabi/10.3.1/../../../arm-none-eabi/lib/thumb/v6-m/nofp/libc_nano.a(lib_a-fwalk.o)
 .data          0x0000000000000000        0x0 /usr/lib/gcc/arm-none-eabi/10.3.1/../../../arm-none-eabi/lib/thumb/v6-m/nofp/libc_nano.a(lib_a-makebuf.o)
 .bss           0x0000000000000000        0x0 /usr/lib/gcc/arm-none-eabi/10.3.1/../../../arm-none-eabi/lib/thumb/v6-m/nofp/libc_nano.a(lib_a-makebuf.o)
 .data          0x0000000000000000        0x0 /usr/lib/gcc/arm-none-eabi/10.3.1/../../../arm-none-eabi/lib/thumb/v6-m/nofp/libc_nano.a(lib_a-memchr-stub.o)
 .bss           0x0000000000000000        0x0 /usr/lib/gcc/arm-none-eabi/10.3.1/../../../arm-none-eabi/lib/thumb/v6-m/nofp/libc_nano.a(lib_a-memchr-stub.o)
 .data          0x0000000000000000        0x0 /usr/lib/gcc/arm-none-eabi/10.3.1/../../../arm-none-eabi/lib/thumb/v6-m/nofp/libc_nano.a(lib_a-memmove.o)
 .bss           0x0000000000000000        0x0 /usr/lib/gcc/arm-none-eabi/10.3.1/../../../arm-none-eabi/lib/thumb/v6-m/nofp/libc_nano.a(lib_a-memmove.o)
 .data          0x0000000000000000        0x0 /usr/lib/gcc/arm-none-eabi/10.3.1/../../../arm-none-eabi/lib/thumb/v6-m/nofp/libc_nano.a(lib_a-mlock.o)
 .bss           0x0000000000000000        0x0 /usr/lib/gcc/arm-none-eabi/10.3.1/../../../arm-none-eabi/lib/thumb/v6-m/nofp/libc_nano.a(lib_a-mlock.o)
 .data          0x0000000000000000        0x0 /usr/lib/gcc/arm-none-eabi/10.3.1/../../../arm-none-eabi/lib/thumb/v6-m/nofp/libc_nano.a(lib_a-nano-reallocr.o)
 .bss           0x0000000000000000        0x0 /usr/lib/gcc/arm-none-eabi/10.3.1/../../../arm-none-eabi/lib/thumb/v6-m/nofp/libc_nano.a(lib_a-nano-reallocr.o)
 .text          0x0000000000000000      0x12c /usr/lib/gcc/arm-none-eabi/10.3.1/../../../arm-none-eabi/lib/thumb/v6-m/nofp/libc_nano.a(lib_a-reent.o)
 .data          0x0000000000000000        0x0 /usr/lib/gcc/arm-none-eabi/10.3.1/../../../arm-none-eabi/lib/thumb/v6-m/nofp/libc_nano.a(lib_a-reent.o)
 .data          0x0000000000000000        0x0 /usr/lib/gcc/arm-none-eabi/10.3.1/../../../arm-none-eabi/lib/thumb/v6-m/nofp/libc_nano.a(lib_a-signal.o)
 .bss           0x0000000000000000        0x0 /usr/lib/gcc/arm-none-eabi/10.3.1/../../../arm-none-eabi/lib/thumb/v6-m/nofp/libc_nano.a(lib_a-signal.o)
 .data          0x0000000000000000        0x0 /usr/lib/gcc/arm-none-eabi/10.3.1/../../../arm-none-eabi/lib/thumb/v6-m/nofp/libc_nano.a(lib_a-signalr.o)
 .bss           0x0000000000000000        0x0 /usr/lib/gcc/arm-none-eabi/10.3.1/../../../arm-none-eabi/lib/thumb/v6-m/nofp/libc_nano.a(lib_a-signalr.o)
 .data          0x0000000000000000        0x0 /usr/lib/gcc/arm-none-eabi/10.3.1/../../../arm-none-eabi/lib/thumb/v6-m/nofp/libc_nano.a(lib_a-stdio.o)
 .bss           0x0000000000000000        0x0 /usr/lib/gcc/arm-none-eabi/10.3.1/../../../arm-none-eabi/lib/thumb/v6-m/nofp/libc_nano.a(lib_a-stdio.o)
 .data          0x0000000000000000        0x0 /usr/lib/gcc/arm-none-eabi/10.3.1/../../../arm-none-eabi/lib/thumb/v6-m/nofp/libc_nano.a(lib_a-writer.o)
 .bss           0x0000000000000000        0x0 /usr/lib/gcc/arm-none-eabi/10.3.1/../../../arm-none-eabi/lib/thumb/v6-m/nofp/libc_nano.a(lib_a-writer.o)
 .data          0x0000000000000000        0x0 /usr/lib/gcc/arm-none-eabi/10.3.1/../../../arm-none-eabi/lib/thumb/v6-m/nofp/libc_nano.a(lib_a-closer.o)
 .bss           0x0000000000000000        0x0 /usr/lib/gcc/arm-none-eabi/10.3.1/../../../arm-none-eabi/lib/thumb/v6-m/nofp/libc_nano.a(lib_a-closer.o)
 .data          0x0000000000000000        0x0 /usr/lib/gcc/arm-none-eabi/10.3.1/../../../arm-none-eabi/lib/thumb/v6-m/nofp/libc_nano.a(lib_a-fstatr.o)
 .bss           0x0000000000000000        0x0 /usr/lib/gcc/arm-none-eabi/10.3.1/../../../arm-none-eabi/lib/thumb/v6-m/nofp/libc_nano.a(lib_a-fstatr.o)
 .data          0x0000000000000000        0x0 /usr/lib/gcc/arm-none-eabi/10.3.1/../../../arm-none-eabi/lib/thumb/v6-m/nofp/libc_nano.a(lib_a-isattyr.o)
 .bss           0x0000000000000000        0x0 /usr/lib/gcc/arm-none-eabi/10.3.1/../../../arm-none-eabi/lib/thumb/v6-m/nofp/libc_nano.a(lib_a-isattyr.o)
 .data          0x0000000000000000        0x0 /usr/lib/gcc/arm-none-eabi/10.3.1/../../../arm-none-eabi/lib/thumb/v6-m/nofp/libc_nano.a(lib_a-lseekr.o)
 .bss           0x0000000000000000        0x0 /usr/lib/gcc/arm-none-eabi/10.3.1/../../../arm-none-eabi/lib/thumb/v6-m/nofp/libc_nano.a(lib_a-lseekr.o)
 .data          0x0000000000000000        0x0 /usr/lib/gcc/arm-none-eabi/10.3.1/../../../arm-none-eabi/lib/thumb/v6-m/nofp/libc_nano.a(lib_a-nano-msizer.o)
 .bss           0x0000000000000000        0x0 /usr/lib/gcc/arm-none-eabi/10.3.1/../../../arm-none-eabi/lib/thumb/v6-m/nofp/libc_nano.a(lib_a-nano-msizer.o)
 .data          0x0000000000000000        0x0 /usr/lib/gcc/arm-none-eabi/10.3.1/../../../arm-none-eabi/lib/thumb/v6-m/nofp/libc_nano.a(lib_a-readr.o)
 .bss           0x0000000000000000        0x0 /usr/lib/gcc/arm-none-eabi/10.3.1/../../../arm-none-eabi/lib/thumb/v6-m/nofp/libc_nano.a(lib_a-readr.o)
 .data          0x0000000000000000        0x0 /usr/lib/gcc/arm-none-eabi/10.3.1/../../../arm-none-eabi/lib/thumb/v6-m/nofp/libnosys.a(close.o)
 .bss           0x0000000000000000        0x0 /usr/lib/gcc/arm-none-eabi/10.3.1/../../../arm-none-eabi/lib/thumb/v6-m/nofp/libnosys.a(close.o)
 .data          0x0000000000000000        0x0 /usr/lib/gcc/arm-none-eabi/10.3.1/../../../arm-none-eabi/lib/thumb/v6-m/nofp/libnosys.a(fstat.o)
 .bss           0x0000000000000000        0x0 /usr/lib/gcc/arm-none-eabi/10.3.1/../../../arm-none-eabi/lib/thumb/v6-m/nofp/libnosys.a(fstat.o)
 .data          0x0000000000000000        0x0 /usr/lib/gcc/arm-none-eabi/10.3.1/../../../arm-none-eabi/lib/thumb/v6-m/nofp/libnosys.a(getpid.o)
 .bss           0x0000000000000000        0x0 /usr/lib/gcc/arm-none-eabi/10.3.1/../../../arm-none-eabi/lib/thumb/v6-m/nofp/libnosys.a(getpid.o)
 .data          0x0000000000000000        0x0 /usr/lib/gcc/arm-none-eabi/10.3.1/../../../arm-none-eabi/lib/thumb/v6-m/nofp/libnosys.a(isatty.o)
 .bss           0x0000000000000000        0x0 /usr/lib/gcc/arm-none-eabi/10.3.1/../../../arm-none-eabi/lib/thumb/v6-m/nofp/libnosys.a(isatty.o)
 .data          0x0000000000000000        0x0 /usr/lib/gcc/arm-none-eabi/10.3.1/../../../arm-none-eabi/lib/thumb/v6-m/nofp/libnosys.a(kill.o)
 .bss           0x0000000000000000        0x0 /usr/lib/gcc/arm-none-eabi/10.3.1/../../../arm-none-eabi/lib/thumb/v6-m/nofp/libnosys.a(kill.o)
 .data          0x0000000000000000        0x0 /usr/lib/gcc/arm-none-eabi/10.3.1/../../../arm-none-eabi/lib/thumb/v6-m/nofp/libnosys.a(lseek.o)
 .bss           0x0000000000000000        0x0 /usr/lib/gcc/arm-none-eabi/10.3.1/../../../arm-none-eabi/lib/thumb/v6-m/nofp/libnosys.a(lseek.o)
 .data          0x0000000000000000        0x0 /usr/lib/gcc/arm-none-eabi/10.3.1/../../../arm-none-eabi/lib/thumb/v6-m/nofp/libnosys.a(read.o)
 .bss           0x0000000000000000        0x0 /usr/lib/gcc/arm-none-eabi/10.3.1/../../../arm-none-eabi/lib/thumb/v6-m/nofp/libnosys.a(read.o)
 .data          0x0000000000000000        0x0 /usr/lib/gcc/arm-none-eabi/10.3.1/../../../arm-none-eabi/lib/thumb/v6-m/nofp/libnosys.a(sbrk.o)
 .data          0x0000000000000000        0x0 /usr/lib/gcc/arm-none-eabi/10.3.1/../../../arm-none-eabi/lib/thumb/v6-m/nofp/libnosys.a(write.o)
 .bss           0x0000000000000000        0x0 /usr/lib/gcc/arm-none-eabi/10.3.1/../../../arm-none-eabi/lib/thumb/v6-m/nofp/libnosys.a(write.o)
 .data          0x0000000000000000        0x0 /usr/lib/gcc/arm-none-eabi/10.3.1/../../../arm-none-eabi/lib/thumb/v6-m/nofp/libnosys.a(_exit.o)
 .bss           0x0000000000000000        0x0 /usr/lib/gcc/arm-none-eabi/10.3.1/../../../arm-none-eabi/lib/thumb/v6-m/nofp/libnosys.a(_exit.o)
 .data          0x0000000000000000        0x0 /usr/lib/gcc/arm-none-eabi/10.3.1/thumb/v6-m/nofp/libgcc.a(_thumb1_case_sqi.o)
 .bss           0x0000000000000000        0x0 /usr/lib/gcc/arm-none-eabi/10.3.1/thumb/v6-m/nofp/libgcc.a(_thumb1_case_sqi.o)
 .data          0x0000000000000000        0x0 /usr/lib/gcc/arm-none-eabi/10.3.1/thumb/v6-m/nofp/libgcc.a(_thumb1_case_uqi.o)
 .bss           0x0000000000000000        0x0 /usr/lib/gcc/arm-none-eabi/10.3.1/thumb/v6-m/nofp/libgcc.a(_thumb1_case_uqi.o)
 .data          0x0000000000000000        0x0 /usr/lib/gcc/arm-none-eabi/10.3.1/thumb/v6-m/nofp/libgcc.a(_thumb1_case_uhi.o)
 .bss           0x0000000000000000        0x0 /usr/lib/gcc/arm-none-eabi/10.3.1/thumb/v6-m/nofp/libgcc.a(_thumb1_case_uhi.o)
 .data          0x0000000000000000        0x0 /usr/lib/gcc/arm-none-eabi/10.3.1/thumb/v6-m/nofp/libgcc.a(_udivsi3.o)
 .bss           0x0000000000000000        0x0 /usr/lib/gcc/arm-none-eabi/10.3.1/thumb/v6-m/nofp/libgcc.a(_udivsi3.o)
 .data          0x0000000000000000        0x0 /usr/lib/gcc/arm-none-eabi/10.3.1/thumb/v6-m/nofp/libgcc.a(_divsi3.o)
 .bss           0x0000000000000000        0x0 /usr/lib/gcc/arm-none-eabi/10.3.1/thumb/v6-m/nofp/libgcc.a(_divsi3.o)
 .data          0x0000000000000000        0x0 /usr/lib/gcc/arm-none-eabi/10.3.1/thumb/v6-m/nofp/libgcc.a(_dvmd_tls.o)
 .bss           0x0000000000000000        0x0 /usr/lib/gcc/arm-none-eabi/10.3.1/thumb/v6-m/nofp/libgcc.a(_dvmd_tls.o)
 .text          0x0000000000000000       0x48 /usr/lib/gcc/arm-none-eabi/10.3.1/thumb/v6-m/nofp/libgcc.a(_aeabi_ldivmod.o)
 .data          0x0000000000000000        0x0 /usr/lib/gcc/arm-none-eabi/10.3.1/thumb/v6-m/nofp/libgcc.a(_aeabi_ldivmod.o)
 .bss           0x0000000000000000        0x0 /usr/lib/gcc/arm-none-eabi/10.3.1/thumb/v6-m/nofp/libgcc.a(_aeabi_ldivmod.o)
 .debug_line    0x0000000000000000       0x6b /usr/lib/gcc/arm-none-eabi/10.3.1/thumb/v6-m/nofp/libgcc.a(_aeabi_ldivmod.o)
 .debug_info    0x0000000000000000       0x26 /usr/lib/gcc/arm-none-eabi/10.3.1/thumb/v6-m/nofp/libgcc.a(_aeabi_ldivmod.o)
 .debug_abbrev  0x0000000000000000       0x14 /usr/lib/gcc/arm-none-eabi/10.3.1/thumb/v6-m/nofp/libgcc.a(_aeabi_ldivmod.o)
 .debug_aranges
                0x0000000000000000       0x20 /usr/lib/gcc/arm-none-eabi/10.3.1/thumb/v6-m/nofp/libgcc.a(_aeabi_ldivmod.o)
 .debug_str     0x0000000000000000       0xa6 /usr/lib/gcc/arm-none-eabi/10.3.1/thumb/v6-m/nofp/libgcc.a(_aeabi_ldivmod.o)
 .ARM.attributes
                0x0000000000000000       0x1e /usr/lib/gcc/arm-none-eabi/10.3.1/thumb/v6-m/nofp/libgcc.a(_aeabi_ldivmod.o)
 .data          0x0000000000000000        0x0 /usr/lib/gcc/arm-none-eabi/10.3.1/thumb/v6-m/nofp/libgcc.a(_aeabi_uldivmod.o)
 .bss           0x0000000000000000        0x0 /usr/lib/gcc/arm-none-eabi/10.3.1/thumb/v6-m/nofp/libgcc.a(_aeabi_uldivmod.o)
 .data          0x0000000000000000        0x0 /usr/lib/gcc/arm-none-eabi/10.3.1/thumb/v6-m/nofp/libgcc.a(_muldi3.o)
 .bss           0x0000000000000000        0x0 /usr/lib/gcc/arm-none-eabi/10.3.1/thumb/v6-m/nofp/libgcc.a(_muldi3.o)
 .data          0x0000000000000000        0x0 /usr/lib/gcc/arm-none-eabi/10.3.1/thumb/v6-m/nofp/libgcc.a(_udivmoddi4.o)
 .bss           0x0000000000000000        0x0 /usr/lib/gcc/arm-none-eabi/10.3.1/thumb/v6-m/nofp/libgcc.a(_udivmoddi4.o)
 .ARM.extab     0x0000000000000000        0x0 /usr/lib/gcc/arm-none-eabi/10.3.1/thumb/v6-m/nofp/libgcc.a(_udivmoddi4.o)
 .text          0x0000000000000000       0x3c /usr/lib/gcc/arm-none-eabi/10.3.1/thumb/v6-m/nofp/libgcc.a(bpabi.o)
 .data          0x0000000000000000        0x0 /usr/lib/gcc/arm-none-eabi/10.3.1/thumb/v6-m/nofp/libgcc.a(bpabi.o)
 .bss           0x0000000000000000        0x0 /usr/lib/gcc/arm-none-eabi/10.3.1/thumb/v6-m/nofp/libgcc.a(bpabi.o)
 .debug_info    0x0000000000000000       0xe4 /usr/lib/gcc/arm-none-eabi/10.3.1/thumb/v6-m/nofp/libgcc.a(bpabi.o)
 .debug_abbrev  0x0000000000000000       0xc3 /usr/lib/gcc/arm-none-eabi/10.3.1/thumb/v6-m/nofp/libgcc.a(bpabi.o)
 .debug_loc     0x0000000000000000       0xcc /usr/lib/gcc/arm-none-eabi/10.3.1/thumb/v6-m/nofp/libgcc.a(bpabi.o)
 .debug_aranges
                0x0000000000000000       0x20 /usr/lib/gcc/arm-none-eabi/10.3.1/thumb/v6-m/nofp/libgcc.a(bpabi.o)
 .debug_line    0x0000000000000000       0x8c /usr/lib/gcc/arm-none-eabi/10.3.1/thumb/v6-m/nofp/libgcc.a(bpabi.o)
 .debug_str     0x0000000000000000      0x1a0 /usr/lib/gcc/arm-none-eabi/10.3.1/thumb/v6-m/nofp/libgcc.a(bpabi.o)
 .comment       0x0000000000000000       0x34 /usr/lib/gcc/arm-none-eabi/10.3.1/thumb/v6-m/nofp/libgcc.a(bpabi.o)
 .debug_frame   0x0000000000000000       0x38 /usr/lib/gcc/arm-none-eabi/10.3.1/thumb/v6-m/nofp/libgcc.a(bpabi.o)
 .ARM.attributes
                0x0000000000000000       0x2c /usr/lib/gcc/arm-none-eabi/10.3.1/thumb/v6-m/nofp/libgcc.a(bpabi.o)
 .text          0x0000000000000000      0x230 /usr/lib/gcc/arm-none-eabi/10.3.1/thumb/v6-m/nofp/libgcc.a(divsf3.o)
 .data          0x0000000000000000        0x0 /usr/lib/gcc/arm-none-eabi/10.3.1/thumb/v6-m/nofp/libgcc.a(divsf3.o)
 .bss           0x0000000000000000        0x0 /usr/lib/gcc/arm-none-eabi/10.3.1/thumb/v6-m/nofp/libgcc.a(divsf3.o)
 .rodata        0x0000000000000000       0x80 /usr/lib/gcc/arm-none-eabi/10.3.1/thumb/v6-m/nofp/libgcc.a(divsf3.o)
 .debug_info    0x0000000000000000      0x376 /usr/lib/gcc/arm-none-eabi/10.3.1/thumb/v6-m/nofp/libgcc.a(divsf3.o)
 .debug_abbrev  0x0000000000000000      0x155 /usr/lib/gcc/arm-none-eabi/10.3.1/thumb/v6-m/nofp/libgcc.a(divsf3.o)
 .debug_loc     0x0000000000000000      0x7e5 /usr/lib/gcc/arm-none-eabi/10.3.1/thumb/v6-m/nofp/libgcc.a(divsf3.o)
 .debug_aranges
                0x0000000000000000       0x20 /usr/lib/gcc/arm-none-eabi/10.3.1/thumb/v6-m/nofp/libgcc.a(divsf3.o)
 .debug_ranges  0x0000000000000000       0xb8 /usr/lib/gcc/arm-none-eabi/10.3.1/thumb/v6-m/nofp/libgcc.a(divsf3.o)
 .debug_line    0x0000000000000000      0x51b /usr/lib/gcc/arm-none-eabi/10.3.1/thumb/v6-m/nofp/libgcc.a(divsf3.o)
 .debug_str     0x0000000000000000      0x2f3 /usr/lib/gcc/arm-none-eabi/10.3.1/thumb/v6-m/nofp/libgcc.a(divsf3.o)
 .comment       0x0000000000000000       0x34 /usr/lib/gcc/arm-none-eabi/10.3.1/thumb/v6-m/nofp/libgcc.a(divsf3.o)
 .debug_frame   0x0000000000000000       0x38 /usr/lib/gcc/arm-none-eabi/10.3.1/thumb/v6-m/nofp/libgcc.a(divsf3.o)
 .ARM.attributes
                0x0000000000000000       0x2c /usr/lib/gcc/arm-none-eabi/10.3.1/thumb/v6-m/nofp/libgcc.a(divsf3.o)
 .text          0x0000000000000000       0x40 /usr/lib/gcc/arm-none-eabi/10.3.1/thumb/v6-m/nofp/libgcc.a(fixsfsi.o)
 .data          0x0000000000000000        0x0 /usr/lib/gcc/arm-none-eabi/10.3.1/thumb/v6-m/nofp/libgcc.a(fixsfsi.o)
 .bss           0x0000000000000000        0x0 /usr/lib/gcc/arm-none-eabi/10.3.1/thumb/v6-m/nofp/libgcc.a(fixsfsi.o)
 .debug_info    0x0000000000000000      0x1c0 /usr/lib/gcc/arm-none-eabi/10.3.1/thumb/v6-m/nofp/libgcc.a(fixsfsi.o)
 .debug_abbrev  0x0000000000000000      0x154 /usr/lib/gcc/arm-none-eabi/10.3.1/thumb/v6-m/nofp/libgcc.a(fixsfsi.o)
 .debug_loc     0x0000000000000000       0xfa /usr/lib/gcc/arm-none-eabi/10.3.1/thumb/v6-m/nofp/libgcc.a(fixsfsi.o)
 .debug_aranges
                0x0000000000000000       0x20 /usr/lib/gcc/arm-none-eabi/10.3.1/thumb/v6-m/nofp/libgcc.a(fixsfsi.o)
 .debug_ranges  0x0000000000000000       0x30 /usr/lib/gcc/arm-none-eabi/10.3.1/thumb/v6-m/nofp/libgcc.a(fixsfsi.o)
 .debug_line    0x0000000000000000      0x113 /usr/lib/gcc/arm-none-eabi/10.3.1/thumb/v6-m/nofp/libgcc.a(fixsfsi.o)
 .debug_str     0x0000000000000000      0x206 /usr/lib/gcc/arm-none-eabi/10.3.1/thumb/v6-m/nofp/libgcc.a(fixsfsi.o)
 .comment       0x0000000000000000       0x34 /usr/lib/gcc/arm-none-eabi/10.3.1/thumb/v6-m/nofp/libgcc.a(fixsfsi.o)
 .debug_frame   0x0000000000000000       0x20 /usr/lib/gcc/arm-none-eabi/10.3.1/thumb/v6-m/nofp/libgcc.a(fixsfsi.o)
 .ARM.attributes
                0x0000000000000000       0x2c /usr/lib/gcc/arm-none-eabi/10.3.1/thumb/v6-m/nofp/libgcc.a(fixsfsi.o)
 .text          0x0000000000000000       0x9c /usr/lib/gcc/arm-none-eabi/10.3.1/thumb/v6-m/nofp/libgcc.a(floatsisf.o)
 .data          0x0000000000000000        0x0 /usr/lib/gcc/arm-none-eabi/10.3.1/thumb/v6-m/nofp/libgcc.a(floatsisf.o)
 .bss           0x0000000000000000        0x0 /usr/lib/gcc/arm-none-eabi/10.3.1/thumb/v6-m/nofp/libgcc.a(floatsisf.o)
 .debug_info    0x0000000000000000      0x24f /usr/lib/gcc/arm-none-eabi/10.3.1/thumb/v6-m/nofp/libgcc.a(floatsisf.o)
 .debug_abbrev  0x0000000000000000      0x173 /usr/lib/gcc/arm-none-eabi/10.3.1/thumb/v6-m/nofp/libgcc.a(floatsisf.o)
 .debug_loc     0x0000000000000000      0x21a /usr/lib/gcc/arm-none-eabi/10.3.1/thumb/v6-m/nofp/libgcc.a(floatsisf.o)
 .debug_aranges
                0x0000000000000000       0x20 /usr/lib/gcc/arm-none-eabi/10.3.1/thumb/v6-m/nofp/libgcc.a(floatsisf.o)
 .debug_ranges  0x0000000000000000       0x90 /usr/lib/gcc/arm-none-eabi/10.3.1/thumb/v6-m/nofp/libgcc.a(floatsisf.o)
 .debug_line    0x0000000000000000      0x22c /usr/lib/gcc/arm-none-eabi/10.3.1/thumb/v6-m/nofp/libgcc.a(floatsisf.o)
 .debug_str     0x0000000000000000      0x295 /usr/lib/gcc/arm-none-eabi/10.3.1/thumb/v6-m/nofp/libgcc.a(floatsisf.o)
 .comment       0x0000000000000000       0x34 /usr/lib/gcc/arm-none-eabi/10.3.1/thumb/v6-m/nofp/libgcc.a(floatsisf.o)
 .debug_frame   0x0000000000000000       0x30 /usr/lib/gcc/arm-none-eabi/10.3.1/thumb/v6-m/nofp/libgcc.a(floatsisf.o)
 .ARM.attributes
                0x0000000000000000       0x2c /usr/lib/gcc/arm-none-eabi/10.3.1/thumb/v6-m/nofp/libgcc.a(floatsisf.o)
 .text          0x0000000000000000       0x84 /usr/lib/gcc/arm-none-eabi/10.3.1/thumb/v6-m/nofp/libgcc.a(floatunsisf.o)
 .data          0x0000000000000000        0x0 /usr/lib/gcc/arm-none-eabi/10.3.1/thumb/v6-m/nofp/libgcc.a(floatunsisf.o)
 .bss           0x0000000000000000        0x0 /usr/lib/gcc/arm-none-eabi/10.3.1/thumb/v6-m/nofp/libgcc.a(floatunsisf.o)
 .debug_info    0x0000000000000000      0x242 /usr/lib/gcc/arm-none-eabi/10.3.1/thumb/v6-m/nofp/libgcc.a(floatunsisf.o)
 .debug_abbrev  0x0000000000000000      0x173 /usr/lib/gcc/arm-none-eabi/10.3.1/thumb/v6-m/nofp/libgcc.a(floatunsisf.o)
 .debug_loc     0x0000000000000000      0x267 /usr/lib/gcc/arm-none-eabi/10.3.1/thumb/v6-m/nofp/libgcc.a(floatunsisf.o)
 .debug_aranges
                0x0000000000000000       0x20 /usr/lib/gcc/arm-none-eabi/10.3.1/thumb/v6-m/nofp/libgcc.a(floatunsisf.o)
 .debug_ranges  0x0000000000000000       0x90 /usr/lib/gcc/arm-none-eabi/10.3.1/thumb/v6-m/nofp/libgcc.a(floatunsisf.o)
 .debug_line    0x0000000000000000      0x236 /usr/lib/gcc/arm-none-eabi/10.3.1/thumb/v6-m/nofp/libgcc.a(floatunsisf.o)
 .debug_str     0x0000000000000000      0x291 /usr/lib/gcc/arm-none-eabi/10.3.1/thumb/v6-m/nofp/libgcc.a(floatunsisf.o)
 .comment       0x0000000000000000       0x34 /usr/lib/gcc/arm-none-eabi/10.3.1/thumb/v6-m/nofp/libgcc.a(floatunsisf.o)
 .debug_frame   0x0000000000000000       0x2c /usr/lib/gcc/arm-none-eabi/10.3.1/thumb/v6-m/nofp/libgcc.a(floatunsisf.o)
 .ARM.attributes
                0x0000000000000000       0x2c /usr/lib/gcc/arm-none-eabi/10.3.1/thumb/v6-m/nofp/libgcc.a(floatunsisf.o)
 .data          0x0000000000000000        0x0 /usr/lib/gcc/arm-none-eabi/10.3.1/thumb/v6-m/nofp/libgcc.a(_clzsi2.o)
 .bss           0x0000000000000000        0x0 /usr/lib/gcc/arm-none-eabi/10.3.1/thumb/v6-m/nofp/libgcc.a(_clzsi2.o)
 .data          0x0000000000000000        0x0 /usr/lib/gcc/arm-none-eabi/10.3.1/thumb/v6-m/nofp/libgcc.a(_clzdi2.o)
 .bss           0x0000000000000000        0x0 /usr/lib/gcc/arm-none-eabi/10.3.1/thumb/v6-m/nofp/libgcc.a(_clzdi2.o)
 .text          0x0000000000000000      0x1cc /usr/lib/gcc/arm-none-eabi/10.3.1/thumb/v6-m/nofp/libgcc.a(_divdi3.o)
 .data          0x0000000000000000        0x0 /usr/lib/gcc/arm-none-eabi/10.3.1/thumb/v6-m/nofp/libgcc.a(_divdi3.o)
 .bss           0x0000000000000000        0x0 /usr/lib/gcc/arm-none-eabi/10.3.1/thumb/v6-m/nofp/libgcc.a(_divdi3.o)
 .ARM.extab     0x0000000000000000        0x0 /usr/lib/gcc/arm-none-eabi/10.3.1/thumb/v6-m/nofp/libgcc.a(_divdi3.o)
 .ARM.exidx     0x0000000000000000        0x8 /usr/lib/gcc/arm-none-eabi/10.3.1/thumb/v6-m/nofp/libgcc.a(_divdi3.o)
 .debug_info    0x0000000000000000      0x4e0 /usr/lib/gcc/arm-none-eabi/10.3.1/thumb/v6-m/nofp/libgcc.a(_divdi3.o)
 .debug_abbrev  0x0000000000000000      0x1b5 /usr/lib/gcc/arm-none-eabi/10.3.1/thumb/v6-m/nofp/libgcc.a(_divdi3.o)
 .debug_loc     0x0000000000000000      0x5a9 /usr/lib/gcc/arm-none-eabi/10.3.1/thumb/v6-m/nofp/libgcc.a(_divdi3.o)
 .debug_aranges
                0x0000000000000000       0x20 /usr/lib/gcc/arm-none-eabi/10.3.1/thumb/v6-m/nofp/libgcc.a(_divdi3.o)
 .debug_ranges  0x0000000000000000       0x20 /usr/lib/gcc/arm-none-eabi/10.3.1/thumb/v6-m/nofp/libgcc.a(_divdi3.o)
 .debug_line    0x0000000000000000      0x20c /usr/lib/gcc/arm-none-eabi/10.3.1/thumb/v6-m/nofp/libgcc.a(_divdi3.o)
 .debug_str     0x0000000000000000      0x62f /usr/lib/gcc/arm-none-eabi/10.3.1/thumb/v6-m/nofp/libgcc.a(_divdi3.o)
 .comment       0x0000000000000000       0x34 /usr/lib/gcc/arm-none-eabi/10.3.1/thumb/v6-m/nofp/libgcc.a(_divdi3.o)
 .debug_frame   0x0000000000000000       0x3c /usr/lib/gcc/arm-none-eabi/10.3.1/thumb/v6-m/nofp/libgcc.a(_divdi3.o)
 .ARM.attributes
                0x0000000000000000       0x2c /usr/lib/gcc/arm-none-eabi/10.3.1/thumb/v6-m/nofp/libgcc.a(_divdi3.o)
 .text          0x0000000000000000        0x0 /usr/lib/gcc/arm-none-eabi/10.3.1/thumb/v6-m/nofp/crtend.o
 .data          0x0000000000000000        0x0 /usr/lib/gcc/arm-none-eabi/10.3.1/thumb/v6-m/nofp/crtend.o
 .bss           0x0000000000000000        0x0 /usr/lib/gcc/arm-none-eabi/10.3.1/thumb/v6-m/nofp/crtend.o
 .rodata        0x0000000000000000       0x24 /usr/lib/gcc/arm-none-eabi/10.3.1/thumb/v6-m/nofp/crtend.o
 .eh_frame      0x0000000000000000        0x4 /usr/lib/gcc/arm-none-eabi/10.3.1/thumb/v6-m/nofp/crtend.o
 .text          0x0000000000000000        0x0 /usr/lib/gcc/arm-none-eabi/10.3.1/thumb/v6-m/nofp/crtn.o
 .data          0x0000000000000000        0x0 /usr/lib/gcc/arm-none-eabi/10.3.1/thumb/v6-m/nofp/crtn.o
 .bss           0x0000000000000000        0x0 /usr/lib/gcc/arm-none-eabi/10.3.1/thumb/v6-m/nofp/crtn.o

Memory Configuration

Name             Origin             Length             Attributes
RAM              0x0000000020000000 0x0000000000005000 xrw
FLASH            0x0000000008000000 0x0000000000030000 xr
*default*        0x0000000000000000 0xffffffffffffffff

Linker script and memory map

LOAD /usr/lib/gcc/arm-none-eabi/10.3.1/thumb/v6-m/nofp/crti.o
LOAD /usr/lib/gcc/arm-none-eabi/10.3.1/thumb/v6-m/nofp/crtbegin.o
LOAD /usr/lib/gcc/arm-none-eabi/10.3.1/../../../arm-none-eabi/lib/thumb/v6-m/nofp/crt0.o
LOAD build_sx1261_l0/main.o
LOAD build_sx1261_l0/mx25.o
LOAD build_sx1261_l0/sht3x.o
LOAD build_sx1261_l0/settings.o
LOAD build_sx1261_l0/sha256.o
LOAD build_sx1261_l0/timer.o
LOAD build_sx1261_l0/timer_rtc.o
LOAD build_sx1261_l0/system_stm32l0xx.o
LOAD build_sx1261_l0/smtc_hal_watchdog.o
LOAD build_sx1261_l0/smtc_hal_spi.o
LOAD build_sx1261_l0/smtc_hal_rng.o
LOAD build_sx1261_l0/smtc_hal_eeprom.o
LOAD build_sx1261_l0/smtc_hal_gpio.o
LOAD build_sx1261_l0/smtc_hal_uart.o
LOAD build_sx1261_l0/smtc_hal_lp_timer.o
LOAD build_sx1261_l0/smtc_hal_rtc.o
LOAD build_sx1261_l0/smtc_hal_trace.o
LOAD build_sx1261_l0/smtc_hal_mcu.o
LOAD build_sx1261_l0/smtc_hal_i2c.o
LOAD build_sx1261_l0/smtc_hal_adc.o
LOAD build_sx1261_l0/stm32l0xx_ll_adc.o
LOAD build_sx1261_l0/stm32l0xx_ll_i2c.o
LOAD build_sx1261_l0/stm32l0xx_ll_usart.o
LOAD build_sx1261_l0/stm32l0xx_ll_rcc.o
LOAD build_sx1261_l0/stm32l0xx_ll_lptim.o
LOAD build_sx1261_l0/stm32l0xx_ll_rtc.o
LOAD build_sx1261_l0/stm32l0xx_ll_dma.o
LOAD build_sx1261_l0/stm32l0xx_ll_utils.o
LOAD build_sx1261_l0/smtc_modem_hal.o
LOAD build_sx1261_l0/sx126x_hal.o
LOAD build_sx1261_l0/ral_sx126x_bsp.o
LOAD build_sx1261_l0/radio_utilities.o
LOAD build_sx1261_l0/startup_stm32l071xx.o
LOAD lbm/lbm_lib/./build/basic_modem.a
LOAD /usr/lib/gcc/arm-none-eabi/10.3.1/../../../arm-none-eabi/lib/thumb/v6-m/nofp/libstdc++_nano.a
LOAD /usr/lib/gcc/arm-none-eabi/10.3.1/../../../arm-none-eabi/lib/thumb/v6-m/nofp/libsupc++_nano.a
LOAD /usr/lib/gcc/arm-none-eabi/10.3.1/../../../arm-none-eabi/lib/thumb/v6-m/nofp/libm.a
LOAD /usr/lib/gcc/arm-none-eabi/10.3.1/../../../arm-none-eabi/lib/thumb/v6-m/nofp/libc_nano.a
LOAD /usr/lib/gcc/arm-none-eabi/10.3.1/../../../arm-none-eabi/lib/thumb/v6-m/nofp/libnosys.a
START GROUP
LOAD /usr/lib/gcc/arm-none-eabi/10.3.1/thumb/v6-m/nofp/libgcc.a
LOAD /usr/lib/gcc/arm-none-eabi/10.3.1/../../../arm-none-eabi/lib/thumb/v6-m/nofp/libc_nano.a
END GROUP
START GROUP
LOAD /usr/lib/gcc/arm-none-eabi/10.3.1/thumb/v6-m/nofp/libgcc.a
LOAD /usr/lib/gcc/arm-none-eabi/10.3.1/../../../arm-none-eabi/lib/thumb/v6-m/nofp/libc_nano.a
LOAD /usr/lib/gcc/arm-none-eabi/10.3.1/../../../arm-none-eabi/lib/thumb/v6-m/nofp/libnosys.a
END GROUP
START GROUP
LOAD /usr/lib/gcc/arm-none-eabi/10.3.1/thumb/v6-m/nofp/libgcc.a
LOAD /usr/lib/gcc/arm-none-eabi/10.3.1/../../../arm-none-eabi/lib/thumb/v6-m/nofp/libc_nano.a
LOAD /usr/lib/gcc/arm-none-eabi/10.3.1/../../../arm-none-eabi/lib/thumb/v6-m/nofp/libnosys.a
END GROUP
LOAD /usr/lib/gcc/arm-none-eabi/10.3.1/thumb/v6-m/nofp/crtend.o
LOAD /usr/lib/gcc/arm-none-eabi/10.3.1/thumb/v6-m/nofp/crtn.o
                0x0000000020005000                _estack = 0x20005000
                0x0000000000000200                _Min_Heap_Size = 0x200
                0x0000000000000400                _Min_Stack_Size = 0x400

.isr_vector     0x0000000008000000       0xc0
                0x0000000008000000                . = ALIGN (0x4)
 *(.isr_vector)
 .isr_vector    0x0000000008000000       0xc0 build_sx1261_l0/startup_stm32l071xx.o
                0x0000000008000000                g_pfnVectors
                0x00000000080000c0                . = ALIGN (0x4)

.text           0x00000000080000c0    0x112e0
                0x00000000080000c0                . = ALIGN (0x4)
 *(.text)
 .text          0x00000000080000c0       0x98 /usr/lib/gcc/arm-none-eabi/10.3.1/thumb/v6-m/nofp/crtbegin.o
 .text          0x0000000008000158       0x44 /usr/lib/gcc/arm-none-eabi/10.3.1/../../../arm-none-eabi/lib/thumb/v6-m/nofp/libc_nano.a(lib_a-init.o)
                0x0000000008000158                __libc_init_array
 .text          0x000000000800019c       0x48 /usr/lib/gcc/arm-none-eabi/10.3.1/../../../arm-none-eabi/lib/thumb/v6-m/nofp/libc_nano.a(lib_a-memcmp.o)
                0x000000000800019c                memcmp
 .text          0x00000000080001e4       0xa4 /usr/lib/gcc/arm-none-eabi/10.3.1/../../../arm-none-eabi/lib/thumb/v6-m/nofp/libc_nano.a(lib_a-memcpy-stub.o)
                0x00000000080001e4                memcpy
 .text          0x0000000008000288       0xa8 /usr/lib/gcc/arm-none-eabi/10.3.1/../../../arm-none-eabi/lib/thumb/v6-m/nofp/libc_nano.a(lib_a-memset.o)
                0x0000000008000288                memset
 .text          0x0000000008000330       0xe8 /usr/lib/gcc/arm-none-eabi/10.3.1/../../../arm-none-eabi/lib/thumb/v6-m/nofp/libc_nano.a(lib_a-rand.o)
                0x0000000008000330                srand
                0x0000000008000390                rand
 .text          0x0000000008000418      0x100 /usr/lib/gcc/arm-none-eabi/10.3.1/../../../arm-none-eabi/lib/thumb/v6-m/nofp/libc_nano.a(lib_a-snprintf.o)
                0x0000000008000418                _sniprintf_r
                0x0000000008000418                _snprintf_r
                0x0000000008000494                snprintf
                0x0000000008000494                sniprintf
 .text          0x0000000008000518       0x88 /usr/lib/gcc/arm-none-eabi/10.3.1/../../../arm-none-eabi/lib/thumb/v6-m/nofp/libc_nano.a(lib_a-strcmp.o)
                0x0000000008000518                strcmp
 .text          0x00000000080005a0       0x5c /usr/lib/gcc/arm-none-eabi/10.3.1/../../../arm-none-eabi/lib/thumb/v6-m/nofp/libc_nano.a(lib_a-strlen-stub.o)
                0x00000000080005a0                strlen
 .text          0x00000000080005fc       0x64 /usr/lib/gcc/arm-none-eabi/10.3.1/../../../arm-none-eabi/lib/thumb/v6-m/nofp/libc_nano.a(lib_a-vsprintf.o)
                0x00000000080005fc                vsprintf
                0x00000000080005fc                vsiprintf
                0x0000000008000634                _vsiprintf_r
                0x0000000008000634                _vsprintf_r
 .text          0x0000000008000660       0x4c /usr/lib/gcc/arm-none-eabi/10.3.1/../../../arm-none-eabi/lib/thumb/v6-m/nofp/libc_nano.a(lib_a-assert.o)
                0x0000000008000660                __assert_func
                0x00000000080006a0                __assert
 .text          0x00000000080006ac       0x3c /usr/lib/gcc/arm-none-eabi/10.3.1/../../../arm-none-eabi/lib/thumb/v6-m/nofp/libc_nano.a(lib_a-fprintf.o)
                0x00000000080006ac                _fprintf_r
                0x00000000080006ac                _fiprintf_r
                0x00000000080006c4                fprintf
                0x00000000080006c4                fiprintf
 .text          0x00000000080006e8       0x28 /usr/lib/gcc/arm-none-eabi/10.3.1/../../../arm-none-eabi/lib/thumb/v6-m/nofp/libc_nano.a(lib_a-malloc.o)
                0x00000000080006e8                malloc
                0x00000000080006fc                free
 .text          0x0000000008000710       0xc0 /usr/lib/gcc/arm-none-eabi/10.3.1/../../../arm-none-eabi/lib/thumb/v6-m/nofp/libc_nano.a(lib_a-nano-freer.o)
                0x0000000008000710                _free_r
 .text          0x00000000080007d0       0xc4 /usr/lib/gcc/arm-none-eabi/10.3.1/../../../arm-none-eabi/lib/thumb/v6-m/nofp/libc_nano.a(lib_a-nano-mallocr.o)
                0x00000000080007d0                _malloc_r
 .text          0x0000000008000894      0x428 /usr/lib/gcc/arm-none-eabi/10.3.1/../../../arm-none-eabi/lib/thumb/v6-m/nofp/libc_nano.a(lib_a-nano-svfprintf.o)
                0x0000000008000894                __ssputs_r
                0x000000000800096c                __ssprint_r
                0x0000000008000a80                _svfprintf_r
                0x0000000008000a80                _svfiprintf_r
 .text          0x0000000008000cbc      0x344 /usr/lib/gcc/arm-none-eabi/10.3.1/../../../arm-none-eabi/lib/thumb/v6-m/nofp/libc_nano.a(lib_a-nano-vfprintf.o)
                0x0000000008000ce4                __sfputs_r
                0x0000000008000d10                __sprint_r
                0x0000000008000d2c                _vfiprintf_r
                0x0000000008000d2c                _vfprintf_r
                0x0000000008000fe8                vfiprintf
                0x0000000008000fe8                vfprintf
 .text          0x0000000008001000      0x3c4 /usr/lib/gcc/arm-none-eabi/10.3.1/../../../arm-none-eabi/lib/thumb/v6-m/nofp/libc_nano.a(lib_a-nano-vfprintf_i.o)
                0x0000000008001000                _printf_common
                0x000000000800113c                _printf_i
 .text          0x00000000080013c4       0x24 /usr/lib/gcc/arm-none-eabi/10.3.1/../../../arm-none-eabi/lib/thumb/v6-m/nofp/libc_nano.a(lib_a-sbrkr.o)
                0x00000000080013c4                _sbrk_r
 .text          0x00000000080013e8       0xec /usr/lib/gcc/arm-none-eabi/10.3.1/../../../arm-none-eabi/lib/thumb/v6-m/nofp/libc_nano.a(lib_a-wbuf.o)
                0x00000000080013e8                __swbuf_r
                0x00000000080014bc                __swbuf
 .text          0x00000000080014d4      0x10c /usr/lib/gcc/arm-none-eabi/10.3.1/../../../arm-none-eabi/lib/thumb/v6-m/nofp/libc_nano.a(lib_a-wsetup.o)
                0x00000000080014d4                __swsetup_r
 .text          0x00000000080015e0       0x10 /usr/lib/gcc/arm-none-eabi/10.3.1/../../../arm-none-eabi/lib/thumb/v6-m/nofp/libc_nano.a(lib_a-abort.o)
                0x00000000080015e0                abort
 .text          0x00000000080015f0      0x200 /usr/lib/gcc/arm-none-eabi/10.3.1/../../../arm-none-eabi/lib/thumb/v6-m/nofp/libc_nano.a(lib_a-fflush.o)
                0x00000000080015f0                __sflush_r
                0x000000000800170c                _fflush_r
                0x0000000008001768                fflush
 .text          0x00000000080017f0      0x268 /usr/lib/gcc/arm-none-eabi/10.3.1/../../../arm-none-eabi/lib/thumb/v6-m/nofp/libc_nano.a(lib_a-findfp.o)
                0x00000000080017f4                _cleanup_r
                0x0000000008001808                __sfmoreglue
                0x0000000008001838                __sfp
                0x00000000080019f0                _cleanup
                0x0000000008001a08                __sinit
                0x0000000008001a18                __sfp_lock_acquire
                0x0000000008001a1c                __sfp_lock_release
                0x0000000008001a20                __sinit_lock_acquire
                0x0000000008001a24                __sinit_lock_release
                0x0000000008001a28                __fp_lock_all
                0x0000000008001a40                __fp_unlock_all
 .text          0x0000000008001a58      0x2f4 /usr/lib/gcc/arm-none-eabi/10.3.1/../../../arm-none-eabi/lib/thumb/v6-m/nofp/libc_nano.a(lib_a-fvwrite.o)
                0x0000000008001a58                __sfvwrite_r
 .text          0x0000000008001d4c       0x88 /usr/lib/gcc/arm-none-eabi/10.3.1/../../../arm-none-eabi/lib/thumb/v6-m/nofp/libc_nano.a(lib_a-fwalk.o)
                0x0000000008001d4c                _fwalk
                0x0000000008001d8c                _fwalk_reent
 .text          0x0000000008001dd4      0x10c /usr/lib/gcc/arm-none-eabi/10.3.1/../../../arm-none-eabi/lib/thumb/v6-m/nofp/libc_nano.a(lib_a-makebuf.o)
                0x0000000008001dd4                __smakebuf_r
                0x0000000008001e8c                __swhatbuf_r
 .text          0x0000000008001ee0       0x74 /usr/lib/gcc/arm-none-eabi/10.3.1/../../../arm-none-eabi/lib/thumb/v6-m/nofp/libc_nano.a(lib_a-memchr-stub.o)
                0x0000000008001ee0                memchr
 .text          0x0000000008001f54       0xac /usr/lib/gcc/arm-none-eabi/10.3.1/../../../arm-none-eabi/lib/thumb/v6-m/nofp/libc_nano.a(lib_a-memmove.o)
                0x0000000008001f54                memmove
 .text          0x0000000008002000        0x8 /usr/lib/gcc/arm-none-eabi/10.3.1/../../../arm-none-eabi/lib/thumb/v6-m/nofp/libc_nano.a(lib_a-mlock.o)
                0x0000000008002000                __malloc_lock
                0x0000000008002004                __malloc_unlock
 .text          0x0000000008002008       0x50 /usr/lib/gcc/arm-none-eabi/10.3.1/../../../arm-none-eabi/lib/thumb/v6-m/nofp/libc_nano.a(lib_a-nano-reallocr.o)
                0x0000000008002008                _realloc_r
 .text          0x0000000008002058      0x274 /usr/lib/gcc/arm-none-eabi/10.3.1/../../../arm-none-eabi/lib/thumb/v6-m/nofp/libc_nano.a(lib_a-signal.o)
                0x0000000008002058                _init_signal_r
                0x0000000008002088                _signal_r
                0x00000000080020d0                _raise_r
                0x0000000008002128                __sigtramp_r
                0x0000000008002184                raise
                0x00000000080021e0                signal
                0x0000000008002230                _init_signal
                0x0000000008002268                __sigtramp
 .text          0x00000000080022cc       0x30 /usr/lib/gcc/arm-none-eabi/10.3.1/../../../arm-none-eabi/lib/thumb/v6-m/nofp/libc_nano.a(lib_a-signalr.o)
                0x00000000080022cc                _kill_r
                0x00000000080022f4                _getpid_r
 .text          0x00000000080022fc       0xa4 /usr/lib/gcc/arm-none-eabi/10.3.1/../../../arm-none-eabi/lib/thumb/v6-m/nofp/libc_nano.a(lib_a-stdio.o)
                0x00000000080022fc                __sread
                0x0000000008002324                __seofread
                0x0000000008002328                __swrite
                0x0000000008002368                __sseek
                0x0000000008002394                __sclose
 .text          0x00000000080023a0       0x28 /usr/lib/gcc/arm-none-eabi/10.3.1/../../../arm-none-eabi/lib/thumb/v6-m/nofp/libc_nano.a(lib_a-writer.o)
                0x00000000080023a0                _write_r
 .text          0x00000000080023c8       0x24 /usr/lib/gcc/arm-none-eabi/10.3.1/../../../arm-none-eabi/lib/thumb/v6-m/nofp/libc_nano.a(lib_a-closer.o)
                0x00000000080023c8                _close_r
 .text          0x00000000080023ec       0x28 /usr/lib/gcc/arm-none-eabi/10.3.1/../../../arm-none-eabi/lib/thumb/v6-m/nofp/libc_nano.a(lib_a-fstatr.o)
                0x00000000080023ec                _fstat_r
 .text          0x0000000008002414       0x24 /usr/lib/gcc/arm-none-eabi/10.3.1/../../../arm-none-eabi/lib/thumb/v6-m/nofp/libc_nano.a(lib_a-isattyr.o)
                0x0000000008002414                _isatty_r
 .text          0x0000000008002438       0x28 /usr/lib/gcc/arm-none-eabi/10.3.1/../../../arm-none-eabi/lib/thumb/v6-m/nofp/libc_nano.a(lib_a-lseekr.o)
                0x0000000008002438                _lseek_r
 .text          0x0000000008002460       0x14 /usr/lib/gcc/arm-none-eabi/10.3.1/../../../arm-none-eabi/lib/thumb/v6-m/nofp/libc_nano.a(lib_a-nano-msizer.o)
                0x0000000008002460                _malloc_usable_size_r
 .text          0x0000000008002474       0x28 /usr/lib/gcc/arm-none-eabi/10.3.1/../../../arm-none-eabi/lib/thumb/v6-m/nofp/libc_nano.a(lib_a-readr.o)
                0x0000000008002474                _read_r
 .text          0x000000000800249c       0x10 /usr/lib/gcc/arm-none-eabi/10.3.1/../../../arm-none-eabi/lib/thumb/v6-m/nofp/libnosys.a(close.o)
                0x000000000800249c                _close
 .text          0x00000000080024ac       0x10 /usr/lib/gcc/arm-none-eabi/10.3.1/../../../arm-none-eabi/lib/thumb/v6-m/nofp/libnosys.a(fstat.o)
                0x00000000080024ac                _fstat
 .text          0x00000000080024bc       0x10 /usr/lib/gcc/arm-none-eabi/10.3.1/../../../arm-none-eabi/lib/thumb/v6-m/nofp/libnosys.a(getpid.o)
                0x00000000080024bc                _getpid
 .text          0x00000000080024cc       0x10 /usr/lib/gcc/arm-none-eabi/10.3.1/../../../arm-none-eabi/lib/thumb/v6-m/nofp/libnosys.a(isatty.o)
                0x00000000080024cc                _isatty
 .text          0x00000000080024dc       0x10 /usr/lib/gcc/arm-none-eabi/10.3.1/../../../arm-none-eabi/lib/thumb/v6-m/nofp/libnosys.a(kill.o)
                0x00000000080024dc                _kill
 .text          0x00000000080024ec       0x10 /usr/lib/gcc/arm-none-eabi/10.3.1/../../../arm-none-eabi/lib/thumb/v6-m/nofp/libnosys.a(lseek.o)
                0x00000000080024ec                _lseek
 .text          0x00000000080024fc       0x10 /usr/lib/gcc/arm-none-eabi/10.3.1/../../../arm-none-eabi/lib/thumb/v6-m/nofp/libnosys.a(read.o)
                0x00000000080024fc                _read
 .text          0x000000000800250c       0x1c /usr/lib/gcc/arm-none-eabi/10.3.1/../../../arm-none-eabi/lib/thumb/v6-m/nofp/libnosys.a(sbrk.o)
                0x000000000800250c                _sbrk
 .text          0x0000000008002528       0x10 /usr/lib/gcc/arm-none-eabi/10.3.1/../../../arm-none-eabi/lib/thumb/v6-m/nofp/libnosys.a(write.o)
                0x0000000008002528                _write
 .text          0x0000000008002538        0x4 /usr/lib/gcc/arm-none-eabi/10.3.1/../../../arm-none-eabi/lib/thumb/v6-m/nofp/libnosys.a(_exit.o)
                0x0000000008002538                _exit
 .text          0x000000000800253c       0x14 /usr/lib/gcc/arm-none-eabi/10.3.1/thumb/v6-m/nofp/libgcc.a(_thumb1_case_sqi.o)
                0x000000000800253c                __gnu_thumb1_case_sqi
 .text          0x0000000008002550       0x14 /usr/lib/gcc/arm-none-eabi/10.3.1/thumb/v6-m/nofp/libgcc.a(_thumb1_case_uqi.o)
                0x0000000008002550                __gnu_thumb1_case_uqi
 .text          0x0000000008002564       0x14 /usr/lib/gcc/arm-none-eabi/10.3.1/thumb/v6-m/nofp/libgcc.a(_thumb1_case_uhi.o)
                0x0000000008002564                __gnu_thumb1_case_uhi
 .text          0x0000000008002578      0x114 /usr/lib/gcc/arm-none-eabi/10.3.1/thumb/v6-m/nofp/libgcc.a(_udivsi3.o)
                0x0000000008002578                __udivsi3
                0x0000000008002578                __aeabi_uidiv
                0x0000000008002684                __aeabi_uidivmod
 .text          0x000000000800268c      0x1d4 /usr/lib/gcc/arm-none-eabi/10.3.1/thumb/v6-m/nofp/libgcc.a(_divsi3.o)
                0x000000000800268c                __aeabi_idiv
                0x000000000800268c                __divsi3
                0x0000000008002858                __aeabi_idivmod
 .text          0x0000000008002860        0x4 /usr/lib/gcc/arm-none-eabi/10.3.1/thumb/v6-m/nofp/libgcc.a(_dvmd_tls.o)
                0x0000000008002860                __aeabi_ldiv0
                0x0000000008002860                __aeabi_idiv0
 .text          0x0000000008002864       0x40 /usr/lib/gcc/arm-none-eabi/10.3.1/thumb/v6-m/nofp/libgcc.a(_aeabi_uldivmod.o)
                0x0000000008002864                __aeabi_uldivmod
 .text          0x00000000080028a4       0x5c /usr/lib/gcc/arm-none-eabi/10.3.1/thumb/v6-m/nofp/libgcc.a(_muldi3.o)
                0x00000000080028a4                __aeabi_lmul
                0x00000000080028a4                __muldi3
 .text          0x0000000008002900      0x198 /usr/lib/gcc/arm-none-eabi/10.3.1/thumb/v6-m/nofp/libgcc.a(_udivmoddi4.o)
                0x0000000008002900                __udivmoddi4
 .text          0x0000000008002a98       0x3c /usr/lib/gcc/arm-none-eabi/10.3.1/thumb/v6-m/nofp/libgcc.a(_clzsi2.o)
                0x0000000008002a98                __clzsi2
 .text          0x0000000008002ad4       0x18 /usr/lib/gcc/arm-none-eabi/10.3.1/thumb/v6-m/nofp/libgcc.a(_clzdi2.o)
                0x0000000008002ad4                __clzdi2
 *(.text*)
 .text.transmission_timer_cb
                0x0000000008002aec       0x34 build_sx1261_l0/main.o
 .text.send_uplink_counter_on_port.constprop.0
                0x0000000008002b20       0xc0 build_sx1261_l0/main.o
 .text.modem_event_callback
                0x0000000008002be0      0x5c4 build_sx1261_l0/main.o
 .text.startup.main
                0x00000000080031a4       0xcc build_sx1261_l0/main.o
                0x00000000080031a4                main
 .text.mx25_wakeup
                0x0000000008003270       0x34 build_sx1261_l0/mx25.o
                0x0000000008003270                mx25_wakeup
 .text.mx25_read_status
                0x00000000080032a4       0x34 build_sx1261_l0/mx25.o
                0x00000000080032a4                mx25_read_status
 .text.mx25_busy
                0x00000000080032d8       0x14 build_sx1261_l0/mx25.o
                0x00000000080032d8                mx25_busy
 .text.mx25_wait_ready
                0x00000000080032ec       0x2c build_sx1261_l0/mx25.o
                0x00000000080032ec                mx25_wait_ready
 .text.mx25_sleep
                0x0000000008003318       0x38 build_sx1261_l0/mx25.o
                0x0000000008003318                mx25_sleep
 .text.mx25_read_id
                0x0000000008003350       0x5c build_sx1261_l0/mx25.o
                0x0000000008003350                mx25_read_id
 .text.mx25_init
                0x00000000080033ac       0x38 build_sx1261_l0/mx25.o
                0x00000000080033ac                mx25_init
 .text.sht3x_check_crc.constprop.0
                0x00000000080033e4       0x50 build_sx1261_l0/sht3x.o
 .text.sht3x_init
                0x0000000008003434       0x3c build_sx1261_l0/sht3x.o
                0x0000000008003434                sht3x_init
 .text.sht3x_read_temp
                0x0000000008003470       0x78 build_sx1261_l0/sht3x.o
                0x0000000008003470                sht3x_read_temp
 .text.settings_init
                0x00000000080034e8       0x88 build_sx1261_l0/settings.o
                0x00000000080034e8                settings_init
 .text.settings_print
                0x0000000008003570       0xb8 build_sx1261_l0/settings.o
                0x0000000008003570                settings_print
 .text.sha256_do
                0x0000000008003628      0x16c build_sx1261_l0/sha256.o
 .text.sha256   0x0000000008003794       0xa4 build_sx1261_l0/sha256.o
                0x0000000008003794                sha256
 .text.TimerSetTimeout
                0x0000000008003838       0x2a build_sx1261_l0/timer.o
 *fill*         0x0000000008003862        0x2 
 .text.TimerInsertNewHeadTimer
                0x0000000008003864       0x1c build_sx1261_l0/timer.o
 .text.TimerInit
                0x0000000008003880       0x10 build_sx1261_l0/timer.o
                0x0000000008003880                TimerInit
 .text.TimerStart
                0x0000000008003890       0x74 build_sx1261_l0/timer.o
                0x0000000008003890                TimerStart
 .text.TimerIrqHandler
                0x0000000008003904       0x7c build_sx1261_l0/timer.o
                0x0000000008003904                TimerIrqHandler
 .text.TimerStop
                0x0000000008003980       0x5c build_sx1261_l0/timer.o
                0x0000000008003980                TimerStop
 .text.TimerSetValue
                0x00000000080039dc       0x22 build_sx1261_l0/timer.o
                0x00000000080039dc                TimerSetValue
 .text.RtcGetTimerValue
                0x00000000080039fe        0x8 build_sx1261_l0/timer_rtc.o
                0x00000000080039fe                RtcGetTimerValue
 *fill*         0x0000000008003a06        0x2 
 .text.RtcSetTimerContext
                0x0000000008003a08       0x10 build_sx1261_l0/timer_rtc.o
                0x0000000008003a08                RtcSetTimerContext
 .text.RtcGetTimerContext
                0x0000000008003a18        0xc build_sx1261_l0/timer_rtc.o
                0x0000000008003a18                RtcGetTimerContext
 .text.RtcGetTimerElapsedTime
                0x0000000008003a24       0x14 build_sx1261_l0/timer_rtc.o
                0x0000000008003a24                RtcGetTimerElapsedTime
 .text.RtcSetAlarm
                0x0000000008003a38       0x40 build_sx1261_l0/timer_rtc.o
                0x0000000008003a38                RtcSetAlarm
 .text.RtcStopAlarm
                0x0000000008003a78       0x14 build_sx1261_l0/timer_rtc.o
                0x0000000008003a78                RtcStopAlarm
 .text.RtcMs2Tick
                0x0000000008003a8c        0x8 build_sx1261_l0/timer_rtc.o
                0x0000000008003a8c                RtcMs2Tick
 .text.RtcGetMinimumTimeout
                0x0000000008003a94        0x4 build_sx1261_l0/timer_rtc.o
                0x0000000008003a94                RtcGetMinimumTimeout
 .text.RtcIrq   0x0000000008003a98       0x28 build_sx1261_l0/timer_rtc.o
                0x0000000008003a98                RtcIrq
 .text.SystemInit
                0x0000000008003ac0        0x2 build_sx1261_l0/system_stm32l0xx.o
                0x0000000008003ac0                SystemInit
 *fill*         0x0000000008003ac2        0x2 
 .text.hal_watchdog_init
                0x0000000008003ac4       0x4c build_sx1261_l0/smtc_hal_watchdog.o
                0x0000000008003ac4                hal_watchdog_init
 .text.hal_watchdog_reload
                0x0000000008003b10       0x10 build_sx1261_l0/smtc_hal_watchdog.o
                0x0000000008003b10                hal_watchdog_reload
 .text.hal_spi_init
                0x0000000008003b20      0x254 build_sx1261_l0/smtc_hal_spi.o
                0x0000000008003b20                hal_spi_init
 .text.hal_spi_de_init
                0x0000000008003d74       0xfc build_sx1261_l0/smtc_hal_spi.o
                0x0000000008003d74                hal_spi_de_init
 .text.hal_spi_in_out
                0x0000000008003e70       0x48 build_sx1261_l0/smtc_hal_spi.o
                0x0000000008003e70                hal_spi_in_out
 .text.hal_rng_init
                0x0000000008003eb8       0x18 build_sx1261_l0/smtc_hal_rng.o
                0x0000000008003eb8                hal_rng_init
 .text.hal_rng_get_random
                0x0000000008003ed0        0x8 build_sx1261_l0/smtc_hal_rng.o
                0x0000000008003ed0                hal_rng_get_random
 .text.hal_rng_get_random_in_range
                0x0000000008003ed8       0x2a build_sx1261_l0/smtc_hal_rng.o
                0x0000000008003ed8                hal_rng_get_random_in_range
 *fill*         0x0000000008003f02        0x2 
 .text.hal_eeprom_write_buffer
                0x0000000008003f04       0x90 build_sx1261_l0/smtc_hal_eeprom.o
                0x0000000008003f04                hal_eeprom_write_buffer
 .text.hal_eeprom_read_buffer
                0x0000000008003f94       0x14 build_sx1261_l0/smtc_hal_eeprom.o
                0x0000000008003f94                hal_eeprom_read_buffer
 .text.LL_SYSCFG_SetEXTISource
                0x0000000008003fa8       0x20 build_sx1261_l0/smtc_hal_gpio.o
 .text.call_gpio_irq_cb
                0x0000000008003fc8       0x1c build_sx1261_l0/smtc_hal_gpio.o
 .text.hal_gpio_init_out
                0x0000000008003fe4       0x70 build_sx1261_l0/smtc_hal_gpio.o
                0x0000000008003fe4                hal_gpio_init_out
 .text.hal_gpio_irq_attach
                0x0000000008004054       0x1c build_sx1261_l0/smtc_hal_gpio.o
                0x0000000008004054                hal_gpio_irq_attach
 .text.hal_gpio_init_in
                0x0000000008004070      0x170 build_sx1261_l0/smtc_hal_gpio.o
                0x0000000008004070                hal_gpio_init_in
 .text.hal_gpio_irq_enable
                0x00000000080041e0       0x14 build_sx1261_l0/smtc_hal_gpio.o
                0x00000000080041e0                hal_gpio_irq_enable
 .text.hal_gpio_irq_disable
                0x00000000080041f4       0x2c build_sx1261_l0/smtc_hal_gpio.o
                0x00000000080041f4                hal_gpio_irq_disable
 .text.hal_gpio_set_value
                0x0000000008004220       0x22 build_sx1261_l0/smtc_hal_gpio.o
                0x0000000008004220                hal_gpio_set_value
 .text.hal_gpio_get_value
                0x0000000008004242       0x22 build_sx1261_l0/smtc_hal_gpio.o
                0x0000000008004242                hal_gpio_get_value
 .text.hal_gpio_clear_pending_irq
                0x0000000008004264       0x2c build_sx1261_l0/smtc_hal_gpio.o
                0x0000000008004264                hal_gpio_clear_pending_irq
 .text.EXTI0_1_IRQHandler
                0x0000000008004290       0x2c build_sx1261_l0/smtc_hal_gpio.o
                0x0000000008004290                EXTI0_1_IRQHandler
 .text.EXTI2_3_IRQHandler
                0x00000000080042bc       0x2c build_sx1261_l0/smtc_hal_gpio.o
                0x00000000080042bc                EXTI2_3_IRQHandler
 .text.EXTI4_15_IRQHandler
                0x00000000080042e8       0x28 build_sx1261_l0/smtc_hal_gpio.o
                0x00000000080042e8                EXTI4_15_IRQHandler
 .text.trace_uart_init
                0x0000000008004310       0xcc build_sx1261_l0/smtc_hal_uart.o
                0x0000000008004310                trace_uart_init
 .text.trace_uart_deinit
                0x00000000080043dc       0x60 build_sx1261_l0/smtc_hal_uart.o
                0x00000000080043dc                trace_uart_deinit
 .text.trace_uart_tx
                0x000000000800443c       0x34 build_sx1261_l0/smtc_hal_uart.o
                0x000000000800443c                trace_uart_tx
 .text.hal_lp_timer_init
                0x0000000008004470       0x9c build_sx1261_l0/smtc_hal_lp_timer.o
                0x0000000008004470                hal_lp_timer_init
 .text.hal_lp_timer_start
                0x000000000800450c       0xb8 build_sx1261_l0/smtc_hal_lp_timer.o
                0x000000000800450c                hal_lp_timer_start
 .text.hal_lp_timer_stop
                0x00000000080045c4       0x44 build_sx1261_l0/smtc_hal_lp_timer.o
                0x00000000080045c4                hal_lp_timer_stop
 .text.hal_lp_timer_irq_enable
                0x0000000008004608       0x44 build_sx1261_l0/smtc_hal_lp_timer.o
                0x0000000008004608                hal_lp_timer_irq_enable
 .text.hal_lp_timer_irq_disable
                0x000000000800464c       0x4c build_sx1261_l0/smtc_hal_lp_timer.o
                0x000000000800464c                hal_lp_timer_irq_disable
 .text.LPTIM1_IRQHandler
                0x0000000008004698       0x28 build_sx1261_l0/smtc_hal_lp_timer.o
                0x0000000008004698                LPTIM1_IRQHandler
 .text.hal_rtc_init
                0x00000000080046c0       0xd0 build_sx1261_l0/smtc_hal_rtc.o
                0x00000000080046c0                hal_rtc_init
 .text.hal_rtc_wakeup_timer_set_ms
                0x0000000008004790       0x6c build_sx1261_l0/smtc_hal_rtc.o
                0x0000000008004790                hal_rtc_wakeup_timer_set_ms
 .text.hal_rtc_wakeup_timer_stop
                0x00000000080047fc       0x28 build_sx1261_l0/smtc_hal_rtc.o
                0x00000000080047fc                hal_rtc_wakeup_timer_stop
 .text.rtc_get_timestamp_in_ticks
                0x0000000008004824      0x104 build_sx1261_l0/smtc_hal_rtc.o
                0x0000000008004824                rtc_get_timestamp_in_ticks
 .text.rtc_get_calendar_time.constprop.0
                0x0000000008004928       0x30 build_sx1261_l0/smtc_hal_rtc.o
 .text.hal_rtc_get_time_ms
                0x0000000008004958       0x26 build_sx1261_l0/smtc_hal_rtc.o
                0x0000000008004958                hal_rtc_get_time_ms
 .text.hal_rtc_get_time_s
                0x000000000800497e       0x10 build_sx1261_l0/smtc_hal_rtc.o
                0x000000000800497e                hal_rtc_get_time_s
 .text.rtc_tick_2_ms
                0x000000000800498e       0x16 build_sx1261_l0/smtc_hal_rtc.o
                0x000000000800498e                rtc_tick_2_ms
 .text.rtc_ms_2_tick
                0x00000000080049a4       0x10 build_sx1261_l0/smtc_hal_rtc.o
                0x00000000080049a4                rtc_ms_2_tick
 .text.RTC_IRQHandler
                0x00000000080049b4       0x30 build_sx1261_l0/smtc_hal_rtc.o
                0x00000000080049b4                RTC_IRQHandler
 .text.hal_trace_print
                0x00000000080049e4       0x24 build_sx1261_l0/smtc_hal_trace.o
                0x00000000080049e4                hal_trace_print
 .text.hal_trace_print_var
                0x0000000008004a08       0x16 build_sx1261_l0/smtc_hal_trace.o
                0x0000000008004a08                hal_trace_print_var
 *fill*         0x0000000008004a1e        0x2 
 .text.hal_mcu_wait_us
                0x0000000008004a20       0x48 build_sx1261_l0/smtc_hal_mcu.o
                0x0000000008004a20                hal_mcu_wait_us
 .text.wut_cb   0x0000000008004a68        0xc build_sx1261_l0/smtc_hal_mcu.o
 .text.hal_mcu_critical_section_begin
                0x0000000008004a74        0xa build_sx1261_l0/smtc_hal_mcu.o
                0x0000000008004a74                hal_mcu_critical_section_begin
 .text.hal_mcu_critical_section_end
                0x0000000008004a7e        0x8 build_sx1261_l0/smtc_hal_mcu.o
                0x0000000008004a7e                hal_mcu_critical_section_end
 .text.hal_mcu_disable_irq
                0x0000000008004a86        0x4 build_sx1261_l0/smtc_hal_mcu.o
                0x0000000008004a86                hal_mcu_disable_irq
 .text.hal_mcu_enable_irq
                0x0000000008004a8a        0x4 build_sx1261_l0/smtc_hal_mcu.o
                0x0000000008004a8a                hal_mcu_enable_irq
 *fill*         0x0000000008004a8e        0x2 
 .text.hal_mcu_reset
                0x0000000008004a90       0x1c build_sx1261_l0/smtc_hal_mcu.o
                0x0000000008004a90                hal_mcu_reset
 .text.hal_mcu_init
                0x0000000008004aac      0x214 build_sx1261_l0/smtc_hal_mcu.o
                0x0000000008004aac                hal_mcu_init
 .text.hal_mcu_set_sleep_for_ms
                0x0000000008004cc0      0x16c build_sx1261_l0/smtc_hal_mcu.o
                0x0000000008004cc0                hal_mcu_set_sleep_for_ms
 .text.SysTick_Handler
                0x0000000008004e2c        0x2 build_sx1261_l0/smtc_hal_mcu.o
                0x0000000008004e2c                SysTick_Handler
 *fill*         0x0000000008004e2e        0x2 
 .text.HardFault_Handler
                0x0000000008004e30       0x38 build_sx1261_l0/smtc_hal_mcu.o
                0x0000000008004e30                HardFault_Handler
 .text.hal_mcu_delay_ms
                0x0000000008004e68       0x16 build_sx1261_l0/smtc_hal_mcu.o
                0x0000000008004e68                hal_mcu_delay_ms
 *fill*         0x0000000008004e7e        0x2 
 .text.LL_I2C_IsActiveFlag_NACK.constprop.0
                0x0000000008004e80       0x10 build_sx1261_l0/smtc_hal_i2c.o
 .text.i2c_read_buffer.constprop.0
                0x0000000008004e90      0x164 build_sx1261_l0/smtc_hal_i2c.o
 .text.hal_i2c_init
                0x0000000008004ff4       0xe8 build_sx1261_l0/smtc_hal_i2c.o
                0x0000000008004ff4                hal_i2c_init
 .text.hal_i2c_deinit
                0x00000000080050dc       0x58 build_sx1261_l0/smtc_hal_i2c.o
                0x00000000080050dc                hal_i2c_deinit
 .text.hal_i2c_set_addr_size
                0x0000000008005134        0xc build_sx1261_l0/smtc_hal_i2c.o
                0x0000000008005134                hal_i2c_set_addr_size
 .text.hal_i2c_read_buffer
                0x0000000008005140        0x8 build_sx1261_l0/smtc_hal_i2c.o
                0x0000000008005140                hal_i2c_read_buffer
 .text.LL_I2C_DeInit
                0x0000000008005148       0x70 build_sx1261_l0/stm32l0xx_ll_i2c.o
                0x0000000008005148                LL_I2C_DeInit
 .text.LL_I2C_Init
                0x00000000080051b8       0x74 build_sx1261_l0/stm32l0xx_ll_i2c.o
                0x00000000080051b8                LL_I2C_Init
 .text.LL_USART_Init
                0x000000000800522c       0xc8 build_sx1261_l0/stm32l0xx_ll_usart.o
                0x000000000800522c                LL_USART_Init
 .text.LL_RCC_HSI_IsReady
                0x00000000080052f4       0x10 build_sx1261_l0/stm32l0xx_ll_rcc.o
 .text.LL_RCC_LSE_IsReady
                0x0000000008005304       0x10 build_sx1261_l0/stm32l0xx_ll_rcc.o
 .text.LL_RCC_IsActiveFlag_HSIDIV
                0x0000000008005314       0x10 build_sx1261_l0/stm32l0xx_ll_rcc.o
 .text.RCC_GetHCLKClockFreq
                0x0000000008005324       0x18 build_sx1261_l0/stm32l0xx_ll_rcc.o
 .text.RCC_GetPCLK1ClockFreq
                0x000000000800533c       0x18 build_sx1261_l0/stm32l0xx_ll_rcc.o
 .text.RCC_GetSystemClockFreq
                0x0000000008005354       0x90 build_sx1261_l0/stm32l0xx_ll_rcc.o
 .text.LL_RCC_GetSystemClocksFreq
                0x00000000080053e4       0x34 build_sx1261_l0/stm32l0xx_ll_rcc.o
                0x00000000080053e4                LL_RCC_GetSystemClocksFreq
 .text.LL_RCC_GetUSARTClockFreq
                0x0000000008005418       0xc4 build_sx1261_l0/stm32l0xx_ll_rcc.o
                0x0000000008005418                LL_RCC_GetUSARTClockFreq
 .text.LL_LPTIM_DeInit
                0x00000000080054dc       0x2c build_sx1261_l0/stm32l0xx_ll_lptim.o
                0x00000000080054dc                LL_LPTIM_DeInit
 .text.LL_LPTIM_Disable
                0x0000000008005508       0xcc build_sx1261_l0/stm32l0xx_ll_lptim.o
                0x0000000008005508                LL_LPTIM_Disable
 .text.LL_Init1msTick
                0x00000000080055d4       0x20 build_sx1261_l0/stm32l0xx_ll_utils.o
                0x00000000080055d4                LL_Init1msTick
 .text.LL_SetSystemCoreClock
                0x00000000080055f4        0xc build_sx1261_l0/stm32l0xx_ll_utils.o
                0x00000000080055f4                LL_SetSystemCoreClock
 .text.smtc_modem_hal_reset_mcu
                0x0000000008005600        0x8 build_sx1261_l0/smtc_modem_hal.o
                0x0000000008005600                smtc_modem_hal_reset_mcu
 .text.smtc_modem_hal_get_time_in_s
                0x0000000008005608        0x8 build_sx1261_l0/smtc_modem_hal.o
                0x0000000008005608                smtc_modem_hal_get_time_in_s
 .text.smtc_modem_hal_get_time_in_ms
                0x0000000008005610        0x8 build_sx1261_l0/smtc_modem_hal.o
                0x0000000008005610                smtc_modem_hal_get_time_in_ms
 .text.smtc_modem_hal_start_timer
                0x0000000008005618       0x12 build_sx1261_l0/smtc_modem_hal.o
                0x0000000008005618                smtc_modem_hal_start_timer
 .text.smtc_modem_hal_stop_timer
                0x000000000800562a        0xa build_sx1261_l0/smtc_modem_hal.o
                0x000000000800562a                smtc_modem_hal_stop_timer
 .text.smtc_modem_hal_disable_modem_irq
                0x0000000008005634        0xe build_sx1261_l0/smtc_modem_hal.o
                0x0000000008005634                smtc_modem_hal_disable_modem_irq
 .text.smtc_modem_hal_enable_modem_irq
                0x0000000008005642        0xe build_sx1261_l0/smtc_modem_hal.o
                0x0000000008005642                smtc_modem_hal_enable_modem_irq
 .text.smtc_modem_hal_context_restore
                0x0000000008005650       0x74 build_sx1261_l0/smtc_modem_hal.o
                0x0000000008005650                smtc_modem_hal_context_restore
 .text.smtc_modem_hal_context_store
                0x00000000080056c4       0x74 build_sx1261_l0/smtc_modem_hal.o
                0x00000000080056c4                smtc_modem_hal_context_store
 .text.smtc_modem_hal_crashlog_store
                0x0000000008005738       0x30 build_sx1261_l0/smtc_modem_hal.o
                0x0000000008005738                smtc_modem_hal_crashlog_store
 .text.smtc_modem_hal_crashlog_get_status
                0x0000000008005768        0xc build_sx1261_l0/smtc_modem_hal.o
                0x0000000008005768                smtc_modem_hal_crashlog_get_status
 .text.smtc_modem_hal_on_panic
                0x0000000008005774       0x6c build_sx1261_l0/smtc_modem_hal.o
                0x0000000008005774                smtc_modem_hal_on_panic
 .text.smtc_modem_hal_get_random_nb_in_range
                0x00000000080057e0        0x8 build_sx1261_l0/smtc_modem_hal.o
                0x00000000080057e0                smtc_modem_hal_get_random_nb_in_range
 .text.smtc_modem_hal_irq_config_radio_irq
                0x00000000080057e8       0x18 build_sx1261_l0/smtc_modem_hal.o
                0x00000000080057e8                smtc_modem_hal_irq_config_radio_irq
 .text.smtc_modem_hal_radio_irq_clear_pending
                0x0000000008005800        0xa build_sx1261_l0/smtc_modem_hal.o
                0x0000000008005800                smtc_modem_hal_radio_irq_clear_pending
 .text.smtc_modem_hal_start_radio_tcxo
                0x000000000800580a        0x2 build_sx1261_l0/smtc_modem_hal.o
                0x000000000800580a                smtc_modem_hal_start_radio_tcxo
 .text.smtc_modem_hal_stop_radio_tcxo
                0x000000000800580c        0x2 build_sx1261_l0/smtc_modem_hal.o
                0x000000000800580c                smtc_modem_hal_stop_radio_tcxo
 .text.smtc_modem_hal_get_radio_tcxo_startup_delay_ms
                0x000000000800580e        0x4 build_sx1261_l0/smtc_modem_hal.o
                0x000000000800580e                smtc_modem_hal_get_radio_tcxo_startup_delay_ms
 .text.smtc_modem_hal_set_ant_switch
                0x0000000008005812        0xc build_sx1261_l0/smtc_modem_hal.o
                0x0000000008005812                smtc_modem_hal_set_ant_switch
 .text.smtc_modem_hal_get_battery_level
                0x000000000800581e        0x4 build_sx1261_l0/smtc_modem_hal.o
                0x000000000800581e                smtc_modem_hal_get_battery_level
 .text.smtc_modem_hal_get_board_delay_ms
                0x0000000008005822        0x4 build_sx1261_l0/smtc_modem_hal.o
                0x0000000008005822                smtc_modem_hal_get_board_delay_ms
 .text.smtc_modem_hal_user_lbm_irq
                0x0000000008005826        0x2 build_sx1261_l0/smtc_modem_hal.o
                0x0000000008005826                smtc_modem_hal_user_lbm_irq
 .text.sx126x_hal_check_device_ready
                0x0000000008005828       0x38 build_sx1261_l0/sx126x_hal.o
 .text.sx126x_hal_write
                0x0000000008005860       0x64 build_sx1261_l0/sx126x_hal.o
                0x0000000008005860                sx126x_hal_write
 .text.sx126x_hal_read
                0x00000000080058c4       0x4a build_sx1261_l0/sx126x_hal.o
                0x00000000080058c4                sx126x_hal_read
 *fill*         0x000000000800590e        0x2 
 .text.sx126x_hal_reset
                0x0000000008005910       0x34 build_sx1261_l0/sx126x_hal.o
                0x0000000008005910                sx126x_hal_reset
 .text.sx126x_hal_wakeup
                0x0000000008005944        0xa build_sx1261_l0/sx126x_hal.o
                0x0000000008005944                sx126x_hal_wakeup
 .text.ral_sx126x_bsp_get_reg_mode
                0x000000000800594e        0x6 build_sx1261_l0/ral_sx126x_bsp.o
                0x000000000800594e                ral_sx126x_bsp_get_reg_mode
 .text.ral_sx126x_bsp_get_rf_switch_cfg
                0x0000000008005954        0x6 build_sx1261_l0/ral_sx126x_bsp.o
                0x0000000008005954                ral_sx126x_bsp_get_rf_switch_cfg
 .text.ral_sx126x_bsp_get_tx_cfg
                0x000000000800595a       0x62 build_sx1261_l0/ral_sx126x_bsp.o
                0x000000000800595a                ral_sx126x_bsp_get_tx_cfg
 .text.ral_sx126x_bsp_get_xosc_cfg
                0x00000000080059bc        0x6 build_sx1261_l0/ral_sx126x_bsp.o
                0x00000000080059bc                ral_sx126x_bsp_get_xosc_cfg
 .text.ral_sx126x_bsp_get_trim_cap
                0x00000000080059c2        0x2 build_sx1261_l0/ral_sx126x_bsp.o
                0x00000000080059c2                ral_sx126x_bsp_get_trim_cap
 .text.ral_sx126x_bsp_get_rx_boost_cfg
                0x00000000080059c4        0x6 build_sx1261_l0/ral_sx126x_bsp.o
                0x00000000080059c4                ral_sx126x_bsp_get_rx_boost_cfg
 .text.ral_sx126x_bsp_get_ocp_value
                0x00000000080059ca        0x2 build_sx1261_l0/ral_sx126x_bsp.o
                0x00000000080059ca                ral_sx126x_bsp_get_ocp_value
 .text.ral_sx126x_bsp_get_lora_cad_det_peak
                0x00000000080059cc        0x2 build_sx1261_l0/ral_sx126x_bsp.o
                0x00000000080059cc                ral_sx126x_bsp_get_lora_cad_det_peak
 *fill*         0x00000000080059ce        0x2 
 .text.radio_utilities_get_tx_power_offset
                0x00000000080059d0        0xc build_sx1261_l0/radio_utilities.o
                0x00000000080059d0                radio_utilities_get_tx_power_offset
 .text.Reset_Handler
                0x00000000080059dc       0x50 build_sx1261_l0/startup_stm32l071xx.o
                0x00000000080059dc                Reset_Handler
 .text.Default_Handler
                0x0000000008005a2c        0x2 build_sx1261_l0/startup_stm32l071xx.o
                0x0000000008005a2c                ADC1_COMP_IRQHandler
                0x0000000008005a2c                TIM6_IRQHandler
                0x0000000008005a2c                PVD_IRQHandler
                0x0000000008005a2c                PendSV_Handler
                0x0000000008005a2c                NMI_Handler
                0x0000000008005a2c                I2C1_IRQHandler
                0x0000000008005a2c                SPI1_IRQHandler
                0x0000000008005a2c                I2C2_IRQHandler
                0x0000000008005a2c                DMA1_Channel4_5_6_7_IRQHandler
                0x0000000008005a2c                TIM3_IRQHandler
                0x0000000008005a2c                RCC_IRQHandler
                0x0000000008005a2c                DMA1_Channel1_IRQHandler
                0x0000000008005a2c                USART4_5_IRQHandler
                0x0000000008005a2c                Default_Handler
                0x0000000008005a2c                TIM22_IRQHandler
                0x0000000008005a2c                TIM7_IRQHandler
                0x0000000008005a2c                I2C3_IRQHandler
                0x0000000008005a2c                SPI2_IRQHandler
                0x0000000008005a2c                SVC_Handler
                0x0000000008005a2c                TIM21_IRQHandler
                0x0000000008005a2c                WWDG_IRQHandler
                0x0000000008005a2c                LPUART1_IRQHandler
                0x0000000008005a2c                TIM2_IRQHandler
                0x0000000008005a2c                DMA1_Channel2_3_IRQHandler
                0x0000000008005a2c                USART2_IRQHandler
                0x0000000008005a2c                FLASH_IRQHandler
                0x0000000008005a2c                USART1_IRQHandler
 .text.empty_callback
                0x0000000008005a2e        0x2 lbm/lbm_lib/./build/basic_modem.a(smtc_modem.o)
                0x0000000008005a2e                empty_callback
 .text.smtc_modem_custom_dr_distribution_to_tab
                0x0000000008005a30       0x42 lbm/lbm_lib/./build/basic_modem.a(smtc_modem.o)
 .text.smtc_modem_send_tx
                0x0000000008005a72       0x60 lbm/lbm_lib/./build/basic_modem.a(smtc_modem.o)
 *fill*         0x0000000008005ad2        0x2 
 .text.smtc_modem_init
                0x0000000008005ad4       0xac lbm/lbm_lib/./build/basic_modem.a(smtc_modem.o)
                0x0000000008005ad4                smtc_modem_init
 .text.smtc_modem_run_engine
                0x0000000008005b80       0x14 lbm/lbm_lib/./build/basic_modem.a(smtc_modem.o)
                0x0000000008005b80                smtc_modem_run_engine
 .text.smtc_modem_is_irq_flag_pending
                0x0000000008005b94       0x10 lbm/lbm_lib/./build/basic_modem.a(smtc_modem.o)
                0x0000000008005b94                smtc_modem_is_irq_flag_pending
 .text.smtc_modem_set_joineui
                0x0000000008005ba4       0x3a lbm/lbm_lib/./build/basic_modem.a(smtc_modem.o)
                0x0000000008005ba4                smtc_modem_set_joineui
 .text.smtc_modem_set_deveui
                0x0000000008005bde       0x3a lbm/lbm_lib/./build/basic_modem.a(smtc_modem.o)
                0x0000000008005bde                smtc_modem_set_deveui
 .text.smtc_modem_set_appkey
                0x0000000008005c18       0x3a lbm/lbm_lib/./build/basic_modem.a(smtc_modem.o)
                0x0000000008005c18                smtc_modem_set_appkey
 .text.smtc_modem_set_nwkkey
                0x0000000008005c52       0x3a lbm/lbm_lib/./build/basic_modem.a(smtc_modem.o)
                0x0000000008005c52                smtc_modem_set_nwkkey
 .text.smtc_modem_set_region
                0x0000000008005c8c       0x34 lbm/lbm_lib/./build/basic_modem.a(smtc_modem.o)
                0x0000000008005c8c                smtc_modem_set_region
 .text.smtc_modem_adr_set_profile
                0x0000000008005cc0       0x98 lbm/lbm_lib/./build/basic_modem.a(smtc_modem.o)
                0x0000000008005cc0                smtc_modem_adr_set_profile
 .text.smtc_modem_join_network
                0x0000000008005d58       0x52 lbm/lbm_lib/./build/basic_modem.a(smtc_modem.o)
                0x0000000008005d58                smtc_modem_join_network
 .text.smtc_modem_request_uplink
                0x0000000008005daa       0x3a lbm/lbm_lib/./build/basic_modem.a(smtc_modem.o)
                0x0000000008005daa                smtc_modem_request_uplink
 .text.smtc_modem_get_event
                0x0000000008005de4       0xc0 lbm/lbm_lib/./build/basic_modem.a(smtc_modem.o)
                0x0000000008005de4                smtc_modem_get_event
 .text.smtc_modem_get_downlink_data
                0x0000000008005ea4       0x7a lbm/lbm_lib/./build/basic_modem.a(smtc_modem.o)
                0x0000000008005ea4                smtc_modem_get_downlink_data
 .text.smtc_modem_set_class
                0x0000000008005f1e       0x2a lbm/lbm_lib/./build/basic_modem.a(smtc_modem.o)
                0x0000000008005f1e                smtc_modem_set_class
 .text.get_modem_event_count
                0x0000000008005f48       0x28 lbm/lbm_lib/./build/basic_modem.a(modem_event_utilities.o)
                0x0000000008005f48                get_modem_event_count
 .text.get_modem_event_status
                0x0000000008005f70       0x28 lbm/lbm_lib/./build/basic_modem.a(modem_event_utilities.o)
                0x0000000008005f70                get_modem_event_status
 .text.set_modem_event_count_and_status
                0x0000000008005f98       0x18 lbm/lbm_lib/./build/basic_modem.a(modem_event_utilities.o)
                0x0000000008005f98                set_modem_event_count_and_status
 .text.modem_event_init
                0x0000000008005fb0       0x24 lbm/lbm_lib/./build/basic_modem.a(modem_event_utilities.o)
                0x0000000008005fb0                modem_event_init
 .text.increment_modem_event_count_and_status
                0x0000000008005fd4       0x20 lbm/lbm_lib/./build/basic_modem.a(modem_event_utilities.o)
                0x0000000008005fd4                increment_modem_event_count_and_status
 .text.decrement_asynchronous_msgnumber
                0x0000000008005ff4       0x14 lbm/lbm_lib/./build/basic_modem.a(modem_event_utilities.o)
                0x0000000008005ff4                decrement_asynchronous_msgnumber
 .text.get_asynchronous_msgnumber
                0x0000000008006008        0xc lbm/lbm_lib/./build/basic_modem.a(modem_event_utilities.o)
                0x0000000008006008                get_asynchronous_msgnumber
 .text.increment_asynchronous_msgnumber
                0x0000000008006014       0x40 lbm/lbm_lib/./build/basic_modem.a(modem_event_utilities.o)
                0x0000000008006014                increment_asynchronous_msgnumber
 .text.get_last_msg_event
                0x0000000008006054       0x2c lbm/lbm_lib/./build/basic_modem.a(modem_event_utilities.o)
                0x0000000008006054                get_last_msg_event
 .text.fifo_ctrl_clear
                0x0000000008006080       0x14 lbm/lbm_lib/./build/basic_modem.a(fifo_ctrl.o)
                0x0000000008006080                fifo_ctrl_clear
 .text.fifo_ctrl_init
                0x0000000008006094        0xc lbm/lbm_lib/./build/basic_modem.a(fifo_ctrl.o)
                0x0000000008006094                fifo_ctrl_init
 .text.fifo_ctrl_print_stat
                0x00000000080060a0        0x2 lbm/lbm_lib/./build/basic_modem.a(fifo_ctrl.o)
                0x00000000080060a0                fifo_ctrl_print_stat
 .text.fifo_ctrl_get_nb_elt
                0x00000000080060a2        0x4 lbm/lbm_lib/./build/basic_modem.a(fifo_ctrl.o)
                0x00000000080060a2                fifo_ctrl_get_nb_elt
 .text.fifo_ctrl_get
                0x00000000080060a6      0x13c lbm/lbm_lib/./build/basic_modem.a(fifo_ctrl.o)
                0x00000000080060a6                fifo_ctrl_get
 .text.fifo_ctrl_set
                0x00000000080061e2      0x1aa lbm/lbm_lib/./build/basic_modem.a(fifo_ctrl.o)
                0x00000000080061e2                fifo_ctrl_set
 .text.modem_downlink_callback
                0x000000000800638c       0xb8 lbm/lbm_lib/./build/basic_modem.a(modem_core.o)
 .text.modem_context_get_fifo_obj
                0x0000000008006444        0x8 lbm/lbm_lib/./build/basic_modem.a(modem_core.o)
                0x0000000008006444                modem_context_get_fifo_obj
 .text.modem_set_test_mode_status
                0x000000000800644c        0xc lbm/lbm_lib/./build/basic_modem.a(modem_core.o)
                0x000000000800644c                modem_set_test_mode_status
 .text.modem_get_test_mode_status
                0x0000000008006458        0xc lbm/lbm_lib/./build/basic_modem.a(modem_core.o)
                0x0000000008006458                modem_get_test_mode_status
 .text.modem_get_user_alarm
                0x0000000008006464        0xc lbm/lbm_lib/./build/basic_modem.a(modem_core.o)
                0x0000000008006464                modem_get_user_alarm
 .text.modem_set_user_alarm
                0x0000000008006470        0xc lbm/lbm_lib/./build/basic_modem.a(modem_core.o)
                0x0000000008006470                modem_set_user_alarm
 .text.modem_get_rp
                0x000000000800647c        0xc lbm/lbm_lib/./build/basic_modem.a(modem_core.o)
                0x000000000800647c                modem_get_rp
 .text.crc      0x0000000008006488       0x34 lbm/lbm_lib/./build/basic_modem.a(modem_core.o)
                0x0000000008006488                crc
 .text.modem_duty_cycle_get_status
                0x00000000080064bc       0x54 lbm/lbm_lib/./build/basic_modem.a(modem_core.o)
                0x00000000080064bc                modem_duty_cycle_get_status
 .text.modem_get_status
                0x0000000008006510       0x3c lbm/lbm_lib/./build/basic_modem.a(modem_core.o)
                0x0000000008006510                modem_get_status
 .text.modem_store_modem_context
                0x000000000800654c       0x54 lbm/lbm_lib/./build/basic_modem.a(modem_core.o)
                0x000000000800654c                modem_store_modem_context
 .text.modem_load_modem_context
                0x00000000080065a0       0x5c lbm/lbm_lib/./build/basic_modem.a(modem_core.o)
                0x00000000080065a0                modem_load_modem_context
 .text.modem_context_init_light
                0x00000000080065fc      0x128 lbm/lbm_lib/./build/basic_modem.a(modem_core.o)
                0x00000000080065fc                modem_context_init_light
 .text.modem_get_reset_counter
                0x0000000008006724       0x10 lbm/lbm_lib/./build/basic_modem.a(modem_core.o)
                0x0000000008006724                modem_get_reset_counter
 .text.supervisor_idle_task_on_launch
                0x0000000008006734        0x2 lbm/lbm_lib/./build/basic_modem.a(modem_supervisor_light.o)
 .text.supervisor_idle_task_on_update
                0x0000000008006736        0x2 lbm/lbm_lib/./build/basic_modem.a(modem_supervisor_light.o)
 .text.modem_supervisor_init_callback
                0x0000000008006738       0x58 lbm/lbm_lib/./build/basic_modem.a(modem_supervisor_light.o)
                0x0000000008006738                modem_supervisor_init_callback
 .text.modem_supervisor_init
                0x0000000008006790       0x64 lbm/lbm_lib/./build/basic_modem.a(modem_supervisor_light.o)
                0x0000000008006790                modem_supervisor_init
 .text.modem_supervisor_add_task
                0x00000000080067f4       0x30 lbm/lbm_lib/./build/basic_modem.a(modem_supervisor_light.o)
                0x00000000080067f4                modem_supervisor_add_task
 .text.modem_supervisor_get_task
                0x0000000008006824        0x8 lbm/lbm_lib/./build/basic_modem.a(modem_supervisor_light.o)
                0x0000000008006824                modem_supervisor_get_task
 .text.modem_supervisor_engine
                0x000000000800682c      0x24c lbm/lbm_lib/./build/basic_modem.a(modem_supervisor_light.o)
                0x000000000800682c                modem_supervisor_engine
 .text.modem_supervisor_get_modem_is_suspended
                0x0000000008006a78       0x10 lbm/lbm_lib/./build/basic_modem.a(modem_supervisor_light.o)
                0x0000000008006a78                modem_supervisor_get_modem_is_suspended
 .text.shift_left_tpm_list
                0x0000000008006a88       0x1c lbm/lbm_lib/./build/basic_modem.a(modem_tx_protocol_manager.o)
 .text.reset_tpm_list
                0x0000000008006aa4       0x14 lbm/lbm_lib/./build/basic_modem.a(modem_tx_protocol_manager.o)
 .text.manage_idle_state
                0x0000000008006ab8        0x4 lbm/lbm_lib/./build/basic_modem.a(modem_tx_protocol_manager.o)
 .text.tpm_abort
                0x0000000008006abc       0x20 lbm/lbm_lib/./build/basic_modem.a(modem_tx_protocol_manager.o)
 .text.modem_tpm_radio_abort_lbt
                0x0000000008006adc        0x8 lbm/lbm_lib/./build/basic_modem.a(modem_tx_protocol_manager.o)
 .text.modem_tx_protocol_manager_engine
                0x0000000008006ae4       0x38 lbm/lbm_lib/./build/basic_modem.a(modem_tx_protocol_manager.o)
 .text.modem_tpm_radio_free_lbt
                0x0000000008006b1c       0x28 lbm/lbm_lib/./build/basic_modem.a(modem_tx_protocol_manager.o)
 .text.manage_tx_nwk_lora_state
                0x0000000008006b44       0x30 lbm/lbm_lib/./build/basic_modem.a(modem_tx_protocol_manager.o)
 .text.compute_tpm_list
                0x0000000008006b74       0x40 lbm/lbm_lib/./build/basic_modem.a(modem_tx_protocol_manager.o)
 .text.update_add_delay_ms
                0x0000000008006bb4       0x4c lbm/lbm_lib/./build/basic_modem.a(modem_tx_protocol_manager.o)
 .text.manage_tx_lora_state
                0x0000000008006c00       0xe0 lbm/lbm_lib/./build/basic_modem.a(modem_tx_protocol_manager.o)
 .text.manage_lbt_state
                0x0000000008006ce0       0x58 lbm/lbm_lib/./build/basic_modem.a(modem_tx_protocol_manager.o)
 .text.tpm_get_next_channel
                0x0000000008006d38       0x20 lbm/lbm_lib/./build/basic_modem.a(modem_tx_protocol_manager.o)
 .text.modem_tpm_radio_busy_lbt
                0x0000000008006d58       0x38 lbm/lbm_lib/./build/basic_modem.a(modem_tx_protocol_manager.o)
 .text.modem_tx_protcol_manager_init
                0x0000000008006d90       0xc0 lbm/lbm_lib/./build/basic_modem.a(modem_tx_protocol_manager.o)
                0x0000000008006d90                modem_tx_protcol_manager_init
 .text.tx_protocol_manager_is_busy
                0x0000000008006e50       0x20 lbm/lbm_lib/./build/basic_modem.a(modem_tx_protocol_manager.o)
                0x0000000008006e50                tx_protocol_manager_is_busy
 .text.tx_protocol_manager_request
                0x0000000008006e70       0xb8 lbm/lbm_lib/./build/basic_modem.a(modem_tx_protocol_manager.o)
                0x0000000008006e70                tx_protocol_manager_request
 .text.tx_protocol_manager_lr1mac_stand_alone_tx
                0x0000000008006f28       0x58 lbm/lbm_lib/./build/basic_modem.a(modem_tx_protocol_manager.o)
                0x0000000008006f28                tx_protocol_manager_lr1mac_stand_alone_tx
 .text.tx_protocol_manager_tx_is_aborted
                0x0000000008006f80       0x18 lbm/lbm_lib/./build/basic_modem.a(modem_tx_protocol_manager.o)
                0x0000000008006f80                tx_protocol_manager_tx_is_aborted
 .text.lorawan_certification_service_on_update
                0x0000000008006f98       0x9c lbm/lbm_lib/./build/basic_modem.a(lorawan_certification.o)
 .text.lorawan_certification_service_on_launch
                0x0000000008007034      0x134 lbm/lbm_lib/./build/basic_modem.a(lorawan_certification.o)
 .text.lorawan_certification_service_downlink_handler
                0x0000000008007168      0x4e8 lbm/lbm_lib/./build/basic_modem.a(lorawan_certification.o)
 .text.lorawan_certification_services_init
                0x0000000008007650       0xc0 lbm/lbm_lib/./build/basic_modem.a(lorawan_certification.o)
                0x0000000008007650                lorawan_certification_services_init
 .text.lorawan_join_management_service_downlink_handler
                0x0000000008007710        0x4 lbm/lbm_lib/./build/basic_modem.a(lorawan_join_management.o)
 .text.lorawan_join_internal_add_task
                0x0000000008007714       0x7c lbm/lbm_lib/./build/basic_modem.a(lorawan_join_management.o)
 .text.lorawan_join_management_service_on_update
                0x0000000008007790       0x60 lbm/lbm_lib/./build/basic_modem.a(lorawan_join_management.o)
 .text.lorawan_join_management_service_on_launch
                0x00000000080077f0       0x50 lbm/lbm_lib/./build/basic_modem.a(lorawan_join_management.o)
 .text.lorawan_join_management_services_init
                0x0000000008007840       0x28 lbm/lbm_lib/./build/basic_modem.a(lorawan_join_management.o)
                0x0000000008007840                lorawan_join_management_services_init
 .text.lorawan_join_add_task
                0x0000000008007868       0x34 lbm/lbm_lib/./build/basic_modem.a(lorawan_join_management.o)
                0x0000000008007868                lorawan_join_add_task
 .text.lorawan_send_management_service_on_update
                0x000000000800789c       0x7c lbm/lbm_lib/./build/basic_modem.a(lorawan_send_management.o)
 .text.lorawan_send_management_service_on_launch
                0x0000000008007918       0x9c lbm/lbm_lib/./build/basic_modem.a(lorawan_send_management.o)
 .text.lorawan_send_management_service_downlink_handler
                0x00000000080079b4       0x24 lbm/lbm_lib/./build/basic_modem.a(lorawan_send_management.o)
 .text.lorawan_send_management_services_init
                0x00000000080079d8       0x28 lbm/lbm_lib/./build/basic_modem.a(lorawan_send_management.o)
                0x00000000080079d8                lorawan_send_management_services_init
 .text.lorawan_send_add_task
                0x0000000008007a00       0xc0 lbm/lbm_lib/./build/basic_modem.a(lorawan_send_management.o)
                0x0000000008007a00                lorawan_send_add_task
 .text.lorawan_cid_request_management_downlink_handler
                0x0000000008007ac0        0x4 lbm/lbm_lib/./build/basic_modem.a(lorawan_cid_request_management.o)
 .text.lorawan_cid_request_management_on_update
                0x0000000008007ac4       0x82 lbm/lbm_lib/./build/basic_modem.a(lorawan_cid_request_management.o)
 .text.lorawan_cid_request_management_on_launch
                0x0000000008007b46       0x6a lbm/lbm_lib/./build/basic_modem.a(lorawan_cid_request_management.o)
 .text.lorawan_cid_request_management_init
                0x0000000008007bb0       0x28 lbm/lbm_lib/./build/basic_modem.a(lorawan_cid_request_management.o)
                0x0000000008007bb0                lorawan_cid_request_management_init
 .text.lorawan_dwn_ack_management_on_update
                0x0000000008007bd8        0x2 lbm/lbm_lib/./build/basic_modem.a(lorawan_dwn_ack_management.o)
 .text.lorawan_dwn_ack_management_on_launch
                0x0000000008007bda       0x54 lbm/lbm_lib/./build/basic_modem.a(lorawan_dwn_ack_management.o)
 *fill*         0x0000000008007c2e        0x2 
 .text.lorawan_dwn_ack_management_init
                0x0000000008007c30       0x28 lbm/lbm_lib/./build/basic_modem.a(lorawan_dwn_ack_management.o)
                0x0000000008007c30                lorawan_dwn_ack_management_init
 .text.lorawan_dwn_ack_add_task
                0x0000000008007c58       0x50 lbm/lbm_lib/./build/basic_modem.a(lorawan_dwn_ack_management.o)
                0x0000000008007c58                lorawan_dwn_ack_add_task
 .text.lorawan_dwn_ack_management_downlink_handler
                0x0000000008007ca8       0x28 lbm/lbm_lib/./build/basic_modem.a(lorawan_dwn_ack_management.o)
 .text.compute_cmac
                0x0000000008007cd0       0x84 lbm/lbm_lib/./build/basic_modem.a(soft_se.o)
 .text.smtc_secure_element_init
                0x0000000008007d54       0x2c lbm/lbm_lib/./build/basic_modem.a(soft_se.o)
                0x0000000008007d54                smtc_secure_element_init
 .text.smtc_secure_element_compute_aes_cmac
                0x0000000008007d80       0x1c lbm/lbm_lib/./build/basic_modem.a(soft_se.o)
                0x0000000008007d80                smtc_secure_element_compute_aes_cmac
 .text.smtc_secure_element_verify_aes_cmac
                0x0000000008007d9c       0x36 lbm/lbm_lib/./build/basic_modem.a(soft_se.o)
                0x0000000008007d9c                smtc_secure_element_verify_aes_cmac
 *fill*         0x0000000008007dd2        0x2 
 .text.smtc_secure_element_aes_encrypt
                0x0000000008007dd4       0x8c lbm/lbm_lib/./build/basic_modem.a(soft_se.o)
                0x0000000008007dd4                smtc_secure_element_aes_encrypt
 .text.smtc_secure_element_set_key.part.0
                0x0000000008007e60       0x88 lbm/lbm_lib/./build/basic_modem.a(soft_se.o)
 .text.smtc_secure_element_set_key
                0x0000000008007ee8       0x12 lbm/lbm_lib/./build/basic_modem.a(soft_se.o)
                0x0000000008007ee8                smtc_secure_element_set_key
 .text.smtc_secure_element_derive_and_store_key
                0x0000000008007efa       0x48 lbm/lbm_lib/./build/basic_modem.a(soft_se.o)
                0x0000000008007efa                smtc_secure_element_derive_and_store_key
 .text.smtc_secure_element_process_join_accept
                0x0000000008007f42       0xa0 lbm/lbm_lib/./build/basic_modem.a(soft_se.o)
                0x0000000008007f42                smtc_secure_element_process_join_accept
 *fill*         0x0000000008007fe2        0x2 
 .text.smtc_secure_element_set_deveui
                0x0000000008007fe4       0x24 lbm/lbm_lib/./build/basic_modem.a(soft_se.o)
                0x0000000008007fe4                smtc_secure_element_set_deveui
 .text.smtc_secure_element_get_deveui
                0x0000000008008008       0x24 lbm/lbm_lib/./build/basic_modem.a(soft_se.o)
                0x0000000008008008                smtc_secure_element_get_deveui
 .text.smtc_secure_element_set_joineui
                0x000000000800802c       0x28 lbm/lbm_lib/./build/basic_modem.a(soft_se.o)
                0x000000000800802c                smtc_secure_element_set_joineui
 .text.smtc_secure_element_get_joineui
                0x0000000008008054       0x28 lbm/lbm_lib/./build/basic_modem.a(soft_se.o)
                0x0000000008008054                smtc_secure_element_get_joineui
 .text.soft_ce_crc
                0x000000000800807c       0x34 lbm/lbm_lib/./build/basic_modem.a(soft_se.o)
                0x000000000800807c                soft_ce_crc
 .text.smtc_secure_element_restore_context
                0x00000000080080b0       0x7c lbm/lbm_lib/./build/basic_modem.a(soft_se.o)
                0x00000000080080b0                smtc_secure_element_restore_context
 .text.smtc_real_is_supported_region
                0x000000000800812c        0xa lbm/lbm_lib/./build/basic_modem.a(smtc_real.o)
                0x000000000800812c                smtc_real_is_supported_region
 *fill*         0x0000000008008136        0x2 
 .text.smtc_real_init
                0x0000000008008138       0x54 lbm/lbm_lib/./build/basic_modem.a(smtc_real.o)
                0x0000000008008138                smtc_real_init
 .text.smtc_real_config
                0x000000000800818c       0x38 lbm/lbm_lib/./build/basic_modem.a(smtc_real.o)
                0x000000000800818c                smtc_real_config
 .text.smtc_real_config_session
                0x00000000080081c4       0x20 lbm/lbm_lib/./build/basic_modem.a(smtc_real.o)
                0x00000000080081c4                smtc_real_config_session
 .text.smtc_real_set_custom_dr_distribution
                0x00000000080081e4       0x12 lbm/lbm_lib/./build/basic_modem.a(smtc_real.o)
                0x00000000080081e4                smtc_real_set_custom_dr_distribution
 .text.smtc_real_set_dr_distribution
                0x00000000080081f6       0x62 lbm/lbm_lib/./build/basic_modem.a(smtc_real.o)
                0x00000000080081f6                smtc_real_set_dr_distribution
 .text.smtc_real_get_number_of_chmask_in_cflist
                0x0000000008008258       0x24 lbm/lbm_lib/./build/basic_modem.a(smtc_real.o)
                0x0000000008008258                smtc_real_get_number_of_chmask_in_cflist
 .text.smtc_real_get_next_channel
                0x000000000800827c       0x30 lbm/lbm_lib/./build/basic_modem.a(smtc_real.o)
                0x000000000800827c                smtc_real_get_next_channel
 .text.smtc_real_get_join_next_channel
                0x00000000080082ac       0x30 lbm/lbm_lib/./build/basic_modem.a(smtc_real.o)
                0x00000000080082ac                smtc_real_get_join_next_channel
 .text.smtc_real_mask_channel_used_for_tx
                0x00000000080082dc       0x20 lbm/lbm_lib/./build/basic_modem.a(smtc_real.o)
                0x00000000080082dc                smtc_real_mask_channel_used_for_tx
 .text.smtc_real_get_rx1_datarate_config
                0x00000000080082fc       0x38 lbm/lbm_lib/./build/basic_modem.a(smtc_real.o)
                0x00000000080082fc                smtc_real_get_rx1_datarate_config
 .text.smtc_real_convert_power_cmd
                0x0000000008008334       0x1a lbm/lbm_lib/./build/basic_modem.a(smtc_real.o)
                0x0000000008008334                smtc_real_convert_power_cmd
 *fill*         0x000000000800834e        0x2 
 .text.smtc_real_set_channel_mask
                0x0000000008008350       0x34 lbm/lbm_lib/./build/basic_modem.a(smtc_real.o)
                0x0000000008008350                smtc_real_set_channel_mask
 .text.smtc_real_init_channel_mask
                0x0000000008008384       0x10 lbm/lbm_lib/./build/basic_modem.a(smtc_real.o)
                0x0000000008008384                smtc_real_init_channel_mask
 .text.smtc_real_init_join_snapshot_channel_mask
                0x0000000008008394       0x20 lbm/lbm_lib/./build/basic_modem.a(smtc_real.o)
                0x0000000008008394                smtc_real_init_join_snapshot_channel_mask
 .text.smtc_real_init_after_join_snapshot_channel_mask
                0x00000000080083b4       0x20 lbm/lbm_lib/./build/basic_modem.a(smtc_real.o)
                0x00000000080083b4                smtc_real_init_after_join_snapshot_channel_mask
 .text.smtc_real_build_channel_mask
                0x00000000080083d4       0x2c lbm/lbm_lib/./build/basic_modem.a(smtc_real.o)
                0x00000000080083d4                smtc_real_build_channel_mask
 .text.smtc_real_enable_all_channels_with_valid_freq
                0x0000000008008400       0x64 lbm/lbm_lib/./build/basic_modem.a(smtc_real.o)
                0x0000000008008400                smtc_real_enable_all_channels_with_valid_freq
 .text.smtc_real_is_rx1_dr_offset_valid
                0x0000000008008464       0x10 lbm/lbm_lib/./build/basic_modem.a(smtc_real.o)
                0x0000000008008464                smtc_real_is_rx1_dr_offset_valid
 .text.smtc_real_is_rx_dr_valid
                0x0000000008008474       0x2a lbm/lbm_lib/./build/basic_modem.a(smtc_real.o)
                0x0000000008008474                smtc_real_is_rx_dr_valid
 .text.smtc_real_is_tx_dr_valid
                0x000000000800849e       0x2a lbm/lbm_lib/./build/basic_modem.a(smtc_real.o)
                0x000000000800849e                smtc_real_is_tx_dr_valid
 .text.smtc_real_is_tx_dr_acceptable
                0x00000000080084c8       0x7c lbm/lbm_lib/./build/basic_modem.a(smtc_real.o)
                0x00000000080084c8                smtc_real_is_tx_dr_acceptable
 .text.smtc_real_decrement_dr_simulation
                0x0000000008008544       0x60 lbm/lbm_lib/./build/basic_modem.a(smtc_real.o)
                0x0000000008008544                smtc_real_decrement_dr_simulation
 .text.smtc_real_is_channel_index_valid
                0x00000000080085a4       0x38 lbm/lbm_lib/./build/basic_modem.a(smtc_real.o)
                0x00000000080085a4                smtc_real_is_channel_index_valid
 .text.smtc_real_is_payload_size_valid
                0x00000000080085dc       0x68 lbm/lbm_lib/./build/basic_modem.a(smtc_real.o)
                0x00000000080085dc                smtc_real_is_payload_size_valid
 .text.smtc_real_set_tx_frequency_channel
                0x0000000008008644       0x38 lbm/lbm_lib/./build/basic_modem.a(smtc_real.o)
                0x0000000008008644                smtc_real_set_tx_frequency_channel
 .text.smtc_real_set_rx1_frequency_channel
                0x000000000800867c       0x48 lbm/lbm_lib/./build/basic_modem.a(smtc_real.o)
                0x000000000800867c                smtc_real_set_rx1_frequency_channel
 .text.smtc_real_set_channel_dr
                0x00000000080086c4       0x68 lbm/lbm_lib/./build/basic_modem.a(smtc_real.o)
                0x00000000080086c4                smtc_real_set_channel_dr
 .text.smtc_real_set_channel_enabled
                0x000000000800872c       0x40 lbm/lbm_lib/./build/basic_modem.a(smtc_real.o)
                0x000000000800872c                smtc_real_set_channel_enabled
 .text.smtc_real_get_tx_channel_frequency
                0x000000000800876c       0x48 lbm/lbm_lib/./build/basic_modem.a(smtc_real.o)
                0x000000000800876c                smtc_real_get_tx_channel_frequency
 .text.smtc_real_get_min_tx_channel_dr
                0x00000000080087b4       0x8a lbm/lbm_lib/./build/basic_modem.a(smtc_real.o)
                0x00000000080087b4                smtc_real_get_min_tx_channel_dr
 .text.smtc_real_decrement_dr
                0x000000000800883e       0x4a lbm/lbm_lib/./build/basic_modem.a(smtc_real.o)
                0x000000000800883e                smtc_real_decrement_dr
 .text.smtc_real_mask_tx_dr_channel
                0x0000000008008888       0x34 lbm/lbm_lib/./build/basic_modem.a(smtc_real.o)
                0x0000000008008888                smtc_real_mask_tx_dr_channel
 .text.smtc_real_mask_tx_dr_channel_up_dwell_time_check
                0x00000000080088bc       0x3c lbm/lbm_lib/./build/basic_modem.a(smtc_real.o)
                0x00000000080088bc                smtc_real_mask_tx_dr_channel_up_dwell_time_check
 .text.smtc_real_get_next_tx_dr
                0x00000000080088f8      0x110 lbm/lbm_lib/./build/basic_modem.a(smtc_real.o)
                0x00000000080088f8                smtc_real_get_next_tx_dr
 .text.smtc_real_get_preamble_len
                0x0000000008008a08        0x4 lbm/lbm_lib/./build/basic_modem.a(smtc_real.o)
                0x0000000008008a08                smtc_real_get_preamble_len
 .text.smtc_real_is_channel_mask_for_mobile_mode
                0x0000000008008a0c       0xc4 lbm/lbm_lib/./build/basic_modem.a(smtc_real.o)
                0x0000000008008a0c                smtc_real_is_channel_mask_for_mobile_mode
 .text.smtc_real_get_modulation_type_from_datarate
                0x0000000008008ad0       0x2c lbm/lbm_lib/./build/basic_modem.a(smtc_real.o)
                0x0000000008008ad0                smtc_real_get_modulation_type_from_datarate
 .text.smtc_real_lora_dr_to_sf_bw
                0x0000000008008afc       0x30 lbm/lbm_lib/./build/basic_modem.a(smtc_real.o)
                0x0000000008008afc                smtc_real_lora_dr_to_sf_bw
 .text.smtc_real_fsk_dr_to_bitrate
                0x0000000008008b2c       0x2c lbm/lbm_lib/./build/basic_modem.a(smtc_real.o)
                0x0000000008008b2c                smtc_real_fsk_dr_to_bitrate
 .text.smtc_real_lr_fhss_dr_to_cr_bw
                0x0000000008008b58       0x30 lbm/lbm_lib/./build/basic_modem.a(smtc_real.o)
                0x0000000008008b58                smtc_real_lr_fhss_dr_to_cr_bw
 .text.smtc_real_lr_fhss_get_header_count
                0x0000000008008b88       0x28 lbm/lbm_lib/./build/basic_modem.a(smtc_real.o)
                0x0000000008008b88                smtc_real_lr_fhss_get_header_count
 .text.smtc_real_lr_fhss_get_grid
                0x0000000008008bb0       0x24 lbm/lbm_lib/./build/basic_modem.a(smtc_real.o)
                0x0000000008008bb0                smtc_real_lr_fhss_get_grid
 .text.smtc_real_clamp_output_power_eirp_vs_freq_and_dr
                0x0000000008008bd4       0x24 lbm/lbm_lib/./build/basic_modem.a(smtc_real.o)
                0x0000000008008bd4                smtc_real_clamp_output_power_eirp_vs_freq_and_dr
 .text.smtc_real_get_current_enabled_frequency_list
                0x0000000008008bf8       0x4a lbm/lbm_lib/./build/basic_modem.a(smtc_real.o)
                0x0000000008008bf8                smtc_real_get_current_enabled_frequency_list
 .text.smtc_real_is_tx_param_setup_req_supported
                0x0000000008008c42        0x6 lbm/lbm_lib/./build/basic_modem.a(smtc_real.o)
                0x0000000008008c42                smtc_real_is_tx_param_setup_req_supported
 .text.smtc_real_is_new_channel_req_supported
                0x0000000008008c48        0x6 lbm/lbm_lib/./build/basic_modem.a(smtc_real.o)
                0x0000000008008c48                smtc_real_is_new_channel_req_supported
 .text.smtc_real_get_rx1_join_delay
                0x0000000008008c4e        0x4 lbm/lbm_lib/./build/basic_modem.a(smtc_real.o)
                0x0000000008008c4e                smtc_real_get_rx1_join_delay
 .text.smtc_real_get_rx2_join_dr
                0x0000000008008c52        0x6 lbm/lbm_lib/./build/basic_modem.a(smtc_real.o)
                0x0000000008008c52                smtc_real_get_rx2_join_dr
 .text.smtc_real_get_coding_rate
                0x0000000008008c58        0x6 lbm/lbm_lib/./build/basic_modem.a(smtc_real.o)
                0x0000000008008c58                smtc_real_get_coding_rate
 .text.smtc_real_get_adr_ack_delay
                0x0000000008008c5e        0x4 lbm/lbm_lib/./build/basic_modem.a(smtc_real.o)
                0x0000000008008c5e                smtc_real_get_adr_ack_delay
 .text.smtc_real_get_adr_ack_limit
                0x0000000008008c62        0x4 lbm/lbm_lib/./build/basic_modem.a(smtc_real.o)
                0x0000000008008c62                smtc_real_get_adr_ack_limit
 .text.smtc_real_get_sync_word
                0x0000000008008c66        0x6 lbm/lbm_lib/./build/basic_modem.a(smtc_real.o)
                0x0000000008008c66                smtc_real_get_sync_word
 .text.smtc_real_get_gfsk_sync_word
                0x0000000008008c6c       0x28 lbm/lbm_lib/./build/basic_modem.a(smtc_real.o)
                0x0000000008008c6c                smtc_real_get_gfsk_sync_word
 .text.smtc_real_get_lr_fhss_sync_word
                0x0000000008008c94       0x28 lbm/lbm_lib/./build/basic_modem.a(smtc_real.o)
                0x0000000008008c94                smtc_real_get_lr_fhss_sync_word
 .text.smtc_real_is_dtc_supported
                0x0000000008008cbc        0x6 lbm/lbm_lib/./build/basic_modem.a(smtc_real.o)
                0x0000000008008cbc                smtc_real_is_dtc_supported
 *fill*         0x0000000008008cc2        0x2 
 .text.smtc_real_get_lbt_duration_ms
                0x0000000008008cc4       0x2c lbm/lbm_lib/./build/basic_modem.a(smtc_real.o)
                0x0000000008008cc4                smtc_real_get_lbt_duration_ms
 .text.smtc_real_get_lbt_threshold_dbm
                0x0000000008008cf0       0x30 lbm/lbm_lib/./build/basic_modem.a(smtc_real.o)
                0x0000000008008cf0                smtc_real_get_lbt_threshold_dbm
 .text.smtc_real_get_lbt_bw_hz
                0x0000000008008d20       0x2c lbm/lbm_lib/./build/basic_modem.a(smtc_real.o)
                0x0000000008008d20                smtc_real_get_lbt_bw_hz
 .text.smtc_real_get_max_payload_size
                0x0000000008008d4c       0x4c lbm/lbm_lib/./build/basic_modem.a(smtc_real.o)
                0x0000000008008d4c                smtc_real_get_max_payload_size
 .text.smtc_real_get_default_max_eirp
                0x0000000008008d98        0x4 lbm/lbm_lib/./build/basic_modem.a(smtc_real.o)
                0x0000000008008d98                smtc_real_get_default_max_eirp
 .text.smtc_real_set_uplink_dwell_time
                0x0000000008008d9c        0x6 lbm/lbm_lib/./build/basic_modem.a(smtc_real.o)
                0x0000000008008d9c                smtc_real_set_uplink_dwell_time
 .text.smtc_real_set_downlink_dwell_time
                0x0000000008008da2        0x6 lbm/lbm_lib/./build/basic_modem.a(smtc_real.o)
                0x0000000008008da2                smtc_real_set_downlink_dwell_time
 .text.smtc_real_decode_freq_from_buf
                0x0000000008008da8       0x16 lbm/lbm_lib/./build/basic_modem.a(smtc_real.o)
                0x0000000008008da8                smtc_real_decode_freq_from_buf
 .text.smtc_real_is_frequency_valid
                0x0000000008008dbe       0x14 lbm/lbm_lib/./build/basic_modem.a(smtc_real.o)
                0x0000000008008dbe                smtc_real_is_frequency_valid
 *fill*         0x0000000008008dd2        0x2 
 .text.smtc_real_is_nwk_received_tx_frequency_valid
                0x0000000008008dd4       0x34 lbm/lbm_lib/./build/basic_modem.a(smtc_real.o)
                0x0000000008008dd4                smtc_real_is_nwk_received_tx_frequency_valid
 .text.smtc_real_update_cflist
                0x0000000008008e08       0xfc lbm/lbm_lib/./build/basic_modem.a(smtc_real.o)
                0x0000000008008e08                smtc_real_update_cflist
 .text.smtc_real_is_tx_power_valid
                0x0000000008008f04        0x8 lbm/lbm_lib/./build/basic_modem.a(smtc_real.o)
                0x0000000008008f04                smtc_real_is_tx_power_valid
 .text.smtc_real_get_regional_parameters_version
                0x0000000008008f0c        0xc lbm/lbm_lib/./build/basic_modem.a(smtc_real.o)
                0x0000000008008f0c                smtc_real_get_regional_parameters_version
 .text.smtc_real_get_symbol_duration_us
                0x0000000008008f18       0x84 lbm/lbm_lib/./build/basic_modem.a(smtc_real.o)
                0x0000000008008f18                smtc_real_get_symbol_duration_us
 .text.smtc_real_get_rx_window_parameters
                0x0000000008008f9c       0xa4 lbm/lbm_lib/./build/basic_modem.a(smtc_real.o)
                0x0000000008008f9c                smtc_real_get_rx_window_parameters
 .text.smtc_real_get_rx_start_time_offset_ms
                0x0000000008009040       0x42 lbm/lbm_lib/./build/basic_modem.a(smtc_real.o)
                0x0000000008009040                smtc_real_get_rx_start_time_offset_ms
 .text.smtc_duty_cycle_get_band
                0x0000000008009082       0x2a lbm/lbm_lib/./build/basic_modem.a(smtc_duty_cycle.o)
 .text.smtc_duty_cycle_init
                0x00000000080090ac       0x1c lbm/lbm_lib/./build/basic_modem.a(smtc_duty_cycle.o)
                0x00000000080090ac                smtc_duty_cycle_init
 .text.smtc_duty_cycle_config
                0x00000000080090c8       0x54 lbm/lbm_lib/./build/basic_modem.a(smtc_duty_cycle.o)
                0x00000000080090c8                smtc_duty_cycle_config
 .text.smtc_duty_cycle_enable_set
                0x000000000800911c       0x20 lbm/lbm_lib/./build/basic_modem.a(smtc_duty_cycle.o)
                0x000000000800911c                smtc_duty_cycle_enable_set
 .text.smtc_duty_cycle_enable_get
                0x000000000800913c       0x14 lbm/lbm_lib/./build/basic_modem.a(smtc_duty_cycle.o)
                0x000000000800913c                smtc_duty_cycle_enable_get
 .text.smtc_duty_cycle_sum
                0x0000000008009150      0x11c lbm/lbm_lib/./build/basic_modem.a(smtc_duty_cycle.o)
                0x0000000008009150                smtc_duty_cycle_sum
 .text.smtc_duty_cycle_update
                0x000000000800926c       0xd0 lbm/lbm_lib/./build/basic_modem.a(smtc_duty_cycle.o)
                0x000000000800926c                smtc_duty_cycle_update
 .text.smtc_duty_cycle_band_get_available_toa_ms
                0x000000000800933c       0x4c lbm/lbm_lib/./build/basic_modem.a(smtc_duty_cycle.o)
                0x000000000800933c                smtc_duty_cycle_band_get_available_toa_ms
 .text.smtc_duty_cycle_is_channel_free
                0x0000000008009388       0x40 lbm/lbm_lib/./build/basic_modem.a(smtc_duty_cycle.o)
                0x0000000008009388                smtc_duty_cycle_is_channel_free
 .text.smtc_duty_cycle_is_band_free
                0x00000000080093c8       0x2c lbm/lbm_lib/./build/basic_modem.a(smtc_duty_cycle.o)
                0x00000000080093c8                smtc_duty_cycle_is_band_free
 .text.smtc_duty_cycle_get_next_free_time_ms
                0x00000000080093f4      0x1d0 lbm/lbm_lib/./build/basic_modem.a(smtc_duty_cycle.o)
                0x00000000080093f4                smtc_duty_cycle_get_next_free_time_ms
 .text.smtc_lbt_rp_callback
                0x00000000080095c4       0x46 lbm/lbm_lib/./build/basic_modem.a(smtc_lbt.o)
                0x00000000080095c4                smtc_lbt_rp_callback
 *fill*         0x000000000800960a        0x2 
 .text.smtc_lbt_launch_callback_for_rp
                0x000000000800960c      0x178 lbm/lbm_lib/./build/basic_modem.a(smtc_lbt.o)
                0x000000000800960c                smtc_lbt_launch_callback_for_rp
 .text.smtc_lbt_init
                0x0000000008009784       0x80 lbm/lbm_lib/./build/basic_modem.a(smtc_lbt.o)
                0x0000000008009784                smtc_lbt_init
 .text.smtc_lbt_set_parameters
                0x0000000008009804       0x14 lbm/lbm_lib/./build/basic_modem.a(smtc_lbt.o)
                0x0000000008009804                smtc_lbt_set_parameters
 .text.smtc_lbt_get_parameters
                0x0000000008009818       0x14 lbm/lbm_lib/./build/basic_modem.a(smtc_lbt.o)
                0x0000000008009818                smtc_lbt_get_parameters
 .text.smtc_lbt_set_state
                0x000000000800982c        0x6 lbm/lbm_lib/./build/basic_modem.a(smtc_lbt.o)
                0x000000000800982c                smtc_lbt_set_state
 .text.smtc_lbt_get_state
                0x0000000008009832        0x6 lbm/lbm_lib/./build/basic_modem.a(smtc_lbt.o)
                0x0000000008009832                smtc_lbt_get_state
 .text.smtc_lbt_listen_channel
                0x0000000008009838      0x110 lbm/lbm_lib/./build/basic_modem.a(smtc_lbt.o)
                0x0000000008009838                smtc_lbt_listen_channel
 .text.smtc_lbt_get_obj
                0x0000000008009948       0x14 lbm/lbm_lib/./build/basic_modem.a(smtc_lbt.o)
                0x0000000008009948                smtc_lbt_get_obj
 .text.ral_sx126x_cfg_trim_cap
                0x000000000800995c       0x7e lbm/lbm_lib/./build/basic_modem.a(ral_sx126x.o)
 *fill*         0x00000000080099da        0x2 
 .text.ral_sx126x_handles_part
                0x00000000080099dc       0x2c lbm/lbm_lib/./build/basic_modem.a(ral_sx126x.o)
                0x00000000080099dc                ral_sx126x_handles_part
 .text.ral_sx126x_reset
                0x0000000008009a08        0x8 lbm/lbm_lib/./build/basic_modem.a(ral_sx126x.o)
                0x0000000008009a08                ral_sx126x_reset
 .text.ral_sx126x_init
                0x0000000008009a10       0x92 lbm/lbm_lib/./build/basic_modem.a(ral_sx126x.o)
                0x0000000008009a10                ral_sx126x_init
 .text.ral_sx126x_wakeup
                0x0000000008009aa2        0x8 lbm/lbm_lib/./build/basic_modem.a(ral_sx126x.o)
                0x0000000008009aa2                ral_sx126x_wakeup
 .text.ral_sx126x_set_sleep
                0x0000000008009aaa        0xe lbm/lbm_lib/./build/basic_modem.a(ral_sx126x.o)
                0x0000000008009aaa                ral_sx126x_set_sleep
 .text.ral_sx126x_set_standby
                0x0000000008009ab8       0x16 lbm/lbm_lib/./build/basic_modem.a(ral_sx126x.o)
                0x0000000008009ab8                ral_sx126x_set_standby
 .text.ral_sx126x_set_fs
                0x0000000008009ace        0x8 lbm/lbm_lib/./build/basic_modem.a(ral_sx126x.o)
                0x0000000008009ace                ral_sx126x_set_fs
 .text.ral_sx126x_set_tx
                0x0000000008009ad6       0x16 lbm/lbm_lib/./build/basic_modem.a(ral_sx126x.o)
                0x0000000008009ad6                ral_sx126x_set_tx
 .text.ral_sx126x_set_rx
                0x0000000008009aec       0x38 lbm/lbm_lib/./build/basic_modem.a(ral_sx126x.o)
                0x0000000008009aec                ral_sx126x_set_rx
 .text.ral_sx126x_cfg_rx_boosted
                0x0000000008009b24        0x8 lbm/lbm_lib/./build/basic_modem.a(ral_sx126x.o)
                0x0000000008009b24                ral_sx126x_cfg_rx_boosted
 .text.ral_sx126x_set_rx_tx_fallback_mode
                0x0000000008009b2c       0x18 lbm/lbm_lib/./build/basic_modem.a(ral_sx126x.o)
                0x0000000008009b2c                ral_sx126x_set_rx_tx_fallback_mode
 .text.ral_sx126x_stop_timer_on_preamble
                0x0000000008009b44        0x8 lbm/lbm_lib/./build/basic_modem.a(ral_sx126x.o)
                0x0000000008009b44                ral_sx126x_stop_timer_on_preamble
 .text.ral_sx126x_set_rx_duty_cycle
                0x0000000008009b4c        0x8 lbm/lbm_lib/./build/basic_modem.a(ral_sx126x.o)
                0x0000000008009b4c                ral_sx126x_set_rx_duty_cycle
 .text.ral_sx126x_set_lora_cad
                0x0000000008009b54       0x14 lbm/lbm_lib/./build/basic_modem.a(ral_sx126x.o)
                0x0000000008009b54                ral_sx126x_set_lora_cad
 .text.ral_sx126x_set_tx_cw
                0x0000000008009b68       0x14 lbm/lbm_lib/./build/basic_modem.a(ral_sx126x.o)
                0x0000000008009b68                ral_sx126x_set_tx_cw
 .text.ral_sx126x_set_tx_infinite_preamble
                0x0000000008009b7c       0x14 lbm/lbm_lib/./build/basic_modem.a(ral_sx126x.o)
                0x0000000008009b7c                ral_sx126x_set_tx_infinite_preamble
 .text.ral_sx126x_cal_img
                0x0000000008009b90        0x8 lbm/lbm_lib/./build/basic_modem.a(ral_sx126x.o)
                0x0000000008009b90                ral_sx126x_cal_img
 .text.ral_sx126x_set_tx_cfg
                0x0000000008009b98       0x82 lbm/lbm_lib/./build/basic_modem.a(ral_sx126x.o)
                0x0000000008009b98                ral_sx126x_set_tx_cfg
 .text.ral_sx126x_set_pkt_payload
                0x0000000008009c1a       0x22 lbm/lbm_lib/./build/basic_modem.a(ral_sx126x.o)
                0x0000000008009c1a                ral_sx126x_set_pkt_payload
 .text.ral_sx126x_get_pkt_payload
                0x0000000008009c3c       0x34 lbm/lbm_lib/./build/basic_modem.a(ral_sx126x.o)
                0x0000000008009c3c                ral_sx126x_get_pkt_payload
 .text.ral_sx126x_set_rf_freq
                0x0000000008009c70        0x8 lbm/lbm_lib/./build/basic_modem.a(ral_sx126x.o)
                0x0000000008009c70                ral_sx126x_set_rf_freq
 .text.ral_sx126x_set_pkt_type
                0x0000000008009c78       0x16 lbm/lbm_lib/./build/basic_modem.a(ral_sx126x.o)
                0x0000000008009c78                ral_sx126x_set_pkt_type
 .text.ral_sx126x_get_pkt_type
                0x0000000008009c8e       0x28 lbm/lbm_lib/./build/basic_modem.a(ral_sx126x.o)
                0x0000000008009c8e                ral_sx126x_get_pkt_type
 .text.ral_sx126x_set_lora_symb_nb_timeout
                0x0000000008009cb6       0x14 lbm/lbm_lib/./build/basic_modem.a(ral_sx126x.o)
                0x0000000008009cb6                ral_sx126x_set_lora_symb_nb_timeout
 .text.ral_sx126x_set_flrc_mod_params
                0x0000000008009cca        0x4 lbm/lbm_lib/./build/basic_modem.a(ral_sx126x.o)
                0x0000000008009cca                ral_sx126x_set_flrc_mod_params
 .text.ral_sx126x_set_flrc_pkt_params
                0x0000000008009cce        0x4 lbm/lbm_lib/./build/basic_modem.a(ral_sx126x.o)
                0x0000000008009cce                ral_sx126x_set_flrc_pkt_params
 .text.ral_sx126x_get_gfsk_rx_pkt_status
                0x0000000008009cd2       0x64 lbm/lbm_lib/./build/basic_modem.a(ral_sx126x.o)
                0x0000000008009cd2                ral_sx126x_get_gfsk_rx_pkt_status
 .text.ral_sx126x_get_lora_rx_pkt_status
                0x0000000008009d36       0x24 lbm/lbm_lib/./build/basic_modem.a(ral_sx126x.o)
                0x0000000008009d36                ral_sx126x_get_lora_rx_pkt_status
 .text.ral_sx126x_get_flrc_rx_pkt_status
                0x0000000008009d5a        0x4 lbm/lbm_lib/./build/basic_modem.a(ral_sx126x.o)
                0x0000000008009d5a                ral_sx126x_get_flrc_rx_pkt_status
 .text.ral_sx126x_get_rssi_inst
                0x0000000008009d5e        0x8 lbm/lbm_lib/./build/basic_modem.a(ral_sx126x.o)
                0x0000000008009d5e                ral_sx126x_get_rssi_inst
 .text.ral_sx126x_get_flrc_time_on_air_in_ms
                0x0000000008009d66        0x4 lbm/lbm_lib/./build/basic_modem.a(ral_sx126x.o)
                0x0000000008009d66                ral_sx126x_get_flrc_time_on_air_in_ms
 .text.ral_sx126x_set_gfsk_sync_word
                0x0000000008009d6a        0x8 lbm/lbm_lib/./build/basic_modem.a(ral_sx126x.o)
                0x0000000008009d6a                ral_sx126x_set_gfsk_sync_word
 .text.ral_sx126x_set_lora_sync_word
                0x0000000008009d72        0x8 lbm/lbm_lib/./build/basic_modem.a(ral_sx126x.o)
                0x0000000008009d72                ral_sx126x_set_lora_sync_word
 .text.ral_sx126x_set_flrc_sync_word
                0x0000000008009d7a        0x4 lbm/lbm_lib/./build/basic_modem.a(ral_sx126x.o)
                0x0000000008009d7a                ral_sx126x_set_flrc_sync_word
 .text.ral_sx126x_set_gfsk_crc_params
                0x0000000008009d7e       0x18 lbm/lbm_lib/./build/basic_modem.a(ral_sx126x.o)
                0x0000000008009d7e                ral_sx126x_set_gfsk_crc_params
 .text.ral_sx126x_set_flrc_crc_params
                0x0000000008009d96        0x4 lbm/lbm_lib/./build/basic_modem.a(ral_sx126x.o)
                0x0000000008009d96                ral_sx126x_set_flrc_crc_params
 .text.ral_sx126x_set_gfsk_whitening_seed
                0x0000000008009d9a        0x8 lbm/lbm_lib/./build/basic_modem.a(ral_sx126x.o)
                0x0000000008009d9a                ral_sx126x_set_gfsk_whitening_seed
 *fill*         0x0000000008009da2        0x2 
 .text.ral_sx126x_get_tx_consumption_in_ua
                0x0000000008009da4       0x9c lbm/lbm_lib/./build/basic_modem.a(ral_sx126x.o)
                0x0000000008009da4                ral_sx126x_get_tx_consumption_in_ua
 .text.ral_sx126x_get_gfsk_rx_consumption_in_ua
                0x0000000008009e40       0x40 lbm/lbm_lib/./build/basic_modem.a(ral_sx126x.o)
                0x0000000008009e40                ral_sx126x_get_gfsk_rx_consumption_in_ua
 .text.ral_sx126x_get_lora_rx_consumption_in_ua
                0x0000000008009e80       0x48 lbm/lbm_lib/./build/basic_modem.a(ral_sx126x.o)
                0x0000000008009e80                ral_sx126x_get_lora_rx_consumption_in_ua
 .text.ral_sx126x_get_random_numbers
                0x0000000008009ec8        0x8 lbm/lbm_lib/./build/basic_modem.a(ral_sx126x.o)
                0x0000000008009ec8                ral_sx126x_get_random_numbers
 .text.ral_sx126x_handle_rx_done
                0x0000000008009ed0        0x8 lbm/lbm_lib/./build/basic_modem.a(ral_sx126x.o)
                0x0000000008009ed0                ral_sx126x_handle_rx_done
 .text.ral_sx126x_handle_tx_done
                0x0000000008009ed8        0x4 lbm/lbm_lib/./build/basic_modem.a(ral_sx126x.o)
                0x0000000008009ed8                ral_sx126x_handle_tx_done
 .text.ral_sx126x_get_lora_cad_det_peak
                0x0000000008009edc       0x86 lbm/lbm_lib/./build/basic_modem.a(ral_sx126x.o)
                0x0000000008009edc                ral_sx126x_get_lora_cad_det_peak
 .text.ral_sx126x_convert_irq_flags_to_ral
                0x0000000008009f62       0x60 lbm/lbm_lib/./build/basic_modem.a(ral_sx126x.o)
                0x0000000008009f62                ral_sx126x_convert_irq_flags_to_ral
 .text.ral_sx126x_get_irq_status
                0x0000000008009fc2       0x22 lbm/lbm_lib/./build/basic_modem.a(ral_sx126x.o)
                0x0000000008009fc2                ral_sx126x_get_irq_status
 .text.ral_sx126x_get_and_clear_irq_status
                0x0000000008009fe4       0x26 lbm/lbm_lib/./build/basic_modem.a(ral_sx126x.o)
                0x0000000008009fe4                ral_sx126x_get_and_clear_irq_status
 .text.ral_sx126x_convert_irq_flags_from_ral
                0x000000000800a00a       0x56 lbm/lbm_lib/./build/basic_modem.a(ral_sx126x.o)
                0x000000000800a00a                ral_sx126x_convert_irq_flags_from_ral
 .text.ral_sx126x_clear_irq_status
                0x000000000800a060       0x14 lbm/lbm_lib/./build/basic_modem.a(ral_sx126x.o)
                0x000000000800a060                ral_sx126x_clear_irq_status
 .text.ral_sx126x_set_dio_irq_params
                0x000000000800a074       0x20 lbm/lbm_lib/./build/basic_modem.a(ral_sx126x.o)
                0x000000000800a074                ral_sx126x_set_dio_irq_params
 .text.ral_sx126x_convert_gfsk_mod_params_from_ral
                0x000000000800a094       0x56 lbm/lbm_lib/./build/basic_modem.a(ral_sx126x.o)
                0x000000000800a094                ral_sx126x_convert_gfsk_mod_params_from_ral
 .text.ral_sx126x_set_gfsk_mod_params
                0x000000000800a0ea       0x2a lbm/lbm_lib/./build/basic_modem.a(ral_sx126x.o)
                0x000000000800a0ea                ral_sx126x_set_gfsk_mod_params
 .text.ral_sx126x_convert_gfsk_pkt_params_from_ral
                0x000000000800a114       0x8c lbm/lbm_lib/./build/basic_modem.a(ral_sx126x.o)
                0x000000000800a114                ral_sx126x_convert_gfsk_pkt_params_from_ral
 .text.ral_sx126x_set_gfsk_pkt_params
                0x000000000800a1a0       0x2a lbm/lbm_lib/./build/basic_modem.a(ral_sx126x.o)
                0x000000000800a1a0                ral_sx126x_set_gfsk_pkt_params
 .text.ral_sx126x_get_gfsk_time_on_air_in_ms
                0x000000000800a1ca       0x22 lbm/lbm_lib/./build/basic_modem.a(ral_sx126x.o)
                0x000000000800a1ca                ral_sx126x_get_gfsk_time_on_air_in_ms
 .text.ral_sx126x_convert_lora_mod_params_from_ral
                0x000000000800a1ec       0x56 lbm/lbm_lib/./build/basic_modem.a(ral_sx126x.o)
                0x000000000800a1ec                ral_sx126x_convert_lora_mod_params_from_ral
 .text.ral_sx126x_set_lora_mod_params
                0x000000000800a242       0x1a lbm/lbm_lib/./build/basic_modem.a(ral_sx126x.o)
                0x000000000800a242                ral_sx126x_set_lora_mod_params
 .text.ral_sx126x_convert_lora_pkt_params_from_ral
                0x000000000800a25c       0x26 lbm/lbm_lib/./build/basic_modem.a(ral_sx126x.o)
                0x000000000800a25c                ral_sx126x_convert_lora_pkt_params_from_ral
 .text.ral_sx126x_set_lora_pkt_params
                0x000000000800a282       0x26 lbm/lbm_lib/./build/basic_modem.a(ral_sx126x.o)
                0x000000000800a282                ral_sx126x_set_lora_pkt_params
 .text.ral_sx126x_get_lora_time_on_air_in_ms
                0x000000000800a2a8       0x20 lbm/lbm_lib/./build/basic_modem.a(ral_sx126x.o)
                0x000000000800a2a8                ral_sx126x_get_lora_time_on_air_in_ms
 .text.ral_sx126x_convert_lora_cr_to_ral
                0x000000000800a2c8       0x28 lbm/lbm_lib/./build/basic_modem.a(ral_sx126x.o)
                0x000000000800a2c8                ral_sx126x_convert_lora_cr_to_ral
 .text.ral_sx126x_get_lora_rx_pkt_cr_crc
                0x000000000800a2f0       0x1c lbm/lbm_lib/./build/basic_modem.a(ral_sx126x.o)
                0x000000000800a2f0                ral_sx126x_get_lora_rx_pkt_cr_crc
 .text.ral_sx126x_convert_lora_cad_params_from_ral
                0x000000000800a30c       0x56 lbm/lbm_lib/./build/basic_modem.a(ral_sx126x.o)
                0x000000000800a30c                ral_sx126x_convert_lora_cad_params_from_ral
 .text.ral_sx126x_set_lora_cad_params
                0x000000000800a362       0x1a lbm/lbm_lib/./build/basic_modem.a(ral_sx126x.o)
                0x000000000800a362                ral_sx126x_set_lora_cad_params
 .text.ral_sx126x_convert_lr_fhss_params_from_ral
                0x000000000800a37c       0x1c lbm/lbm_lib/./build/basic_modem.a(ral_sx126x.o)
                0x000000000800a37c                ral_sx126x_convert_lr_fhss_params_from_ral
 .text.ral_sx126x_lr_fhss_init
                0x000000000800a398       0x1a lbm/lbm_lib/./build/basic_modem.a(ral_sx126x.o)
                0x000000000800a398                ral_sx126x_lr_fhss_init
 .text.ral_sx126x_lr_fhss_build_frame
                0x000000000800a3b2       0x34 lbm/lbm_lib/./build/basic_modem.a(ral_sx126x.o)
                0x000000000800a3b2                ral_sx126x_lr_fhss_build_frame
 .text.ral_sx126x_lr_fhss_handle_hop
                0x000000000800a3e6       0x1e lbm/lbm_lib/./build/basic_modem.a(ral_sx126x.o)
                0x000000000800a3e6                ral_sx126x_lr_fhss_handle_hop
 .text.ral_sx126x_lr_fhss_handle_tx_done
                0x000000000800a404       0x1e lbm/lbm_lib/./build/basic_modem.a(ral_sx126x.o)
                0x000000000800a404                ral_sx126x_lr_fhss_handle_tx_done
 .text.ral_sx126x_lr_fhss_get_time_on_air_in_ms
                0x000000000800a422       0x20 lbm/lbm_lib/./build/basic_modem.a(ral_sx126x.o)
                0x000000000800a422                ral_sx126x_lr_fhss_get_time_on_air_in_ms
 .text.ral_sx126x_lr_fhss_get_hop_sequence_count
                0x000000000800a442       0x1c lbm/lbm_lib/./build/basic_modem.a(ral_sx126x.o)
                0x000000000800a442                ral_sx126x_lr_fhss_get_hop_sequence_count
 .text.ral_sx126x_lr_fhss_get_bit_delay_in_us
                0x000000000800a45e       0x20 lbm/lbm_lib/./build/basic_modem.a(ral_sx126x.o)
                0x000000000800a45e                ral_sx126x_lr_fhss_get_bit_delay_in_us
 .text.ralf_sx126x_setup_gfsk
                0x000000000800a47e       0x9a lbm/lbm_lib/./build/basic_modem.a(ralf_sx126x.o)
                0x000000000800a47e                ralf_sx126x_setup_gfsk
 .text.ralf_sx126x_setup_lora
                0x000000000800a518       0x70 lbm/lbm_lib/./build/basic_modem.a(ralf_sx126x.o)
                0x000000000800a518                ralf_sx126x_setup_lora
 .text.ralf_sx126x_setup_flrc
                0x000000000800a588        0x4 lbm/lbm_lib/./build/basic_modem.a(ralf_sx126x.o)
                0x000000000800a588                ralf_sx126x_setup_flrc
 .text.ralf_sx126x_setup_lora_cad
                0x000000000800a58c       0x60 lbm/lbm_lib/./build/basic_modem.a(ralf_sx126x.o)
                0x000000000800a58c                ralf_sx126x_setup_lora_cad
 .text.rp_task_launch_current
                0x000000000800a5ec       0x2e lbm/lbm_lib/./build/basic_modem.a(radio_planner.o)
 *fill*         0x000000000800a61a        0x2 
 .text.rp_timer_irq_callback
                0x000000000800a61c       0x14 lbm/lbm_lib/./build/basic_modem.a(radio_planner.o)
 .text.rp_hook_callback
                0x000000000800a630       0x40 lbm/lbm_lib/./build/basic_modem.a(radio_planner.o)
 .text.rp_task_call_aborted
                0x000000000800a670       0x68 lbm/lbm_lib/./build/basic_modem.a(radio_planner.o)
 .text.rp_task_compute_ranking
                0x000000000800a6d8       0x64 lbm/lbm_lib/./build/basic_modem.a(radio_planner.o)
 .text.rp_consumption_statistics_updated
                0x000000000800a73c      0x250 lbm/lbm_lib/./build/basic_modem.a(radio_planner.o)
 .text.rp_task_arbiter.constprop.0
                0x000000000800a98c      0x464 lbm/lbm_lib/./build/basic_modem.a(radio_planner.o)
 .text.rp_init  0x000000000800adf0       0x88 lbm/lbm_lib/./build/basic_modem.a(radio_planner.o)
                0x000000000800adf0                rp_init
 .text.rp_hook_init
                0x000000000800ae78       0x50 lbm/lbm_lib/./build/basic_modem.a(radio_planner.o)
                0x000000000800ae78                rp_hook_init
 .text.rp_release_hook
                0x000000000800aec8       0x40 lbm/lbm_lib/./build/basic_modem.a(radio_planner.o)
                0x000000000800aec8                rp_release_hook
 .text.rp_hook_get_id
                0x000000000800af08       0x38 lbm/lbm_lib/./build/basic_modem.a(radio_planner.o)
                0x000000000800af08                rp_hook_get_id
 .text.rp_task_enqueue
                0x000000000800af40      0x140 lbm/lbm_lib/./build/basic_modem.a(radio_planner.o)
                0x000000000800af40                rp_task_enqueue
 .text.rp_task_abort
                0x000000000800b080       0x70 lbm/lbm_lib/./build/basic_modem.a(radio_planner.o)
                0x000000000800b080                rp_task_abort
 .text.rp_get_status
                0x000000000800b0f0       0x34 lbm/lbm_lib/./build/basic_modem.a(radio_planner.o)
                0x000000000800b0f0                rp_get_status
 .text.rp_get_irq_flag
                0x000000000800b124       0x18 lbm/lbm_lib/./build/basic_modem.a(radio_planner.o)
                0x000000000800b124                rp_get_irq_flag
 .text.rp_disable_failsafe
                0x000000000800b13c       0x18 lbm/lbm_lib/./build/basic_modem.a(radio_planner.o)
                0x000000000800b13c                rp_disable_failsafe
 .text.rp_get_pkt_payload
                0x000000000800b154      0x10c lbm/lbm_lib/./build/basic_modem.a(radio_planner.o)
                0x000000000800b154                rp_get_pkt_payload
 .text.rp_callback
                0x000000000800b260      0x400 lbm/lbm_lib/./build/basic_modem.a(radio_planner.o)
                0x000000000800b260                rp_callback
 .text.rp_radio_irq_callback
                0x000000000800b660       0x24 lbm/lbm_lib/./build/basic_modem.a(radio_planner.o)
                0x000000000800b660                rp_radio_irq_callback
 .text.lorawan_api_init
                0x000000000800b684       0x50 lbm/lbm_lib/./build/basic_modem.a(lorawan_api.o)
                0x000000000800b684                lorawan_api_init
 .text.lorawan_api_get_region
                0x000000000800b6d4       0x2c lbm/lbm_lib/./build/basic_modem.a(lorawan_api.o)
                0x000000000800b6d4                lorawan_api_get_region
 .text.lorawan_api_set_region
                0x000000000800b700       0x74 lbm/lbm_lib/./build/basic_modem.a(lorawan_api.o)
                0x000000000800b700                lorawan_api_set_region
 .text.lorawan_api_payload_send
                0x000000000800b774       0x54 lbm/lbm_lib/./build/basic_modem.a(lorawan_api.o)
                0x000000000800b774                lorawan_api_payload_send
 .text.lorawan_api_send_stack_cid_req
                0x000000000800b7c8       0x38 lbm/lbm_lib/./build/basic_modem.a(lorawan_api.o)
                0x000000000800b7c8                lorawan_api_send_stack_cid_req
 .text.lorawan_api_join
                0x000000000800b800       0x30 lbm/lbm_lib/./build/basic_modem.a(lorawan_api.o)
                0x000000000800b800                lorawan_api_join
 .text.lorawan_api_isjoined
                0x000000000800b830       0x2c lbm/lbm_lib/./build/basic_modem.a(lorawan_api.o)
                0x000000000800b830                lorawan_api_isjoined
 .text.lorawan_api_join_status_clear
                0x000000000800b85c       0x2c lbm/lbm_lib/./build/basic_modem.a(lorawan_api.o)
                0x000000000800b85c                lorawan_api_join_status_clear
 .text.lorawan_api_dr_strategy_set
                0x000000000800b888       0x30 lbm/lbm_lib/./build/basic_modem.a(lorawan_api.o)
                0x000000000800b888                lorawan_api_dr_strategy_set
 .text.lorawan_api_dr_custom_set
                0x000000000800b8b8       0x30 lbm/lbm_lib/./build/basic_modem.a(lorawan_api.o)
                0x000000000800b8b8                lorawan_api_dr_custom_set
 .text.lorawan_api_process
                0x000000000800b8e8       0x30 lbm/lbm_lib/./build/basic_modem.a(lorawan_api.o)
                0x000000000800b8e8                lorawan_api_process
 .text.lorawan_api_get_activation_mode
                0x000000000800b918       0x30 lbm/lbm_lib/./build/basic_modem.a(lorawan_api.o)
                0x000000000800b918                lorawan_api_get_activation_mode
 .text.lorawan_api_set_activation_mode
                0x000000000800b948       0x34 lbm/lbm_lib/./build/basic_modem.a(lorawan_api.o)
                0x000000000800b948                lorawan_api_set_activation_mode
 .text.lorawan_api_next_max_payload_length_get
                0x000000000800b97c       0x30 lbm/lbm_lib/./build/basic_modem.a(lorawan_api.o)
                0x000000000800b97c                lorawan_api_next_max_payload_length_get
 .text.lorawan_api_set_deveui
                0x000000000800b9ac       0x2c lbm/lbm_lib/./build/basic_modem.a(lorawan_api.o)
                0x000000000800b9ac                lorawan_api_set_deveui
 .text.lorawan_api_set_joineui
                0x000000000800b9d8       0x2c lbm/lbm_lib/./build/basic_modem.a(lorawan_api.o)
                0x000000000800b9d8                lorawan_api_set_joineui
 .text.lorawan_api_set_appkey
                0x000000000800ba04       0x30 lbm/lbm_lib/./build/basic_modem.a(lorawan_api.o)
                0x000000000800ba04                lorawan_api_set_appkey
 .text.lorawan_api_set_nwkkey
                0x000000000800ba34       0x30 lbm/lbm_lib/./build/basic_modem.a(lorawan_api.o)
                0x000000000800ba34                lorawan_api_set_nwkkey
 .text.lorawan_api_mask_tx_dr_channel_up_dwell_time_check
                0x000000000800ba64       0x30 lbm/lbm_lib/./build/basic_modem.a(lorawan_api.o)
                0x000000000800ba64                lorawan_api_mask_tx_dr_channel_up_dwell_time_check
 .text.lorawan_api_next_join_time_second_get
                0x000000000800ba94       0x30 lbm/lbm_lib/./build/basic_modem.a(lorawan_api.o)
                0x000000000800ba94                lorawan_api_next_join_time_second_get
 .text.lorawan_api_next_network_free_duty_cycle_ms_get
                0x000000000800bac4       0x30 lbm/lbm_lib/./build/basic_modem.a(lorawan_api.o)
                0x000000000800bac4                lorawan_api_next_network_free_duty_cycle_ms_get
 .text.lorawan_api_reset_no_rx_packet_in_mobile_mode_cnt
                0x000000000800baf4       0x30 lbm/lbm_lib/./build/basic_modem.a(lorawan_api.o)
                0x000000000800baf4                lorawan_api_reset_no_rx_packet_in_mobile_mode_cnt
 .text.lorawan_api_join_duty_cycle_backoff_bypass_get
                0x000000000800bb24       0x18 lbm/lbm_lib/./build/basic_modem.a(lorawan_api.o)
                0x000000000800bb24                lorawan_api_join_duty_cycle_backoff_bypass_get
 .text.lorawan_api_modem_certification_set
                0x000000000800bb3c       0x34 lbm/lbm_lib/./build/basic_modem.a(lorawan_api.o)
                0x000000000800bb3c                lorawan_api_modem_certification_set
 .text.lorawan_api_modem_certification_is_enabled
                0x000000000800bb70       0x30 lbm/lbm_lib/./build/basic_modem.a(lorawan_api.o)
                0x000000000800bb70                lorawan_api_modem_certification_is_enabled
 .text.lorawan_api_stack_mac_get
                0x000000000800bba0       0x2c lbm/lbm_lib/./build/basic_modem.a(lorawan_api.o)
                0x000000000800bba0                lorawan_api_stack_mac_get
 .text.lorawan_api_get_spec_version
                0x000000000800bbcc       0x4c lbm/lbm_lib/./build/basic_modem.a(lorawan_api.o)
                0x000000000800bbcc                lorawan_api_get_spec_version
 .text.lorawan_api_get_regional_parameters_version
                0x000000000800bc18       0x3c lbm/lbm_lib/./build/basic_modem.a(lorawan_api.o)
                0x000000000800bc18                lorawan_api_get_regional_parameters_version
 .text.lorawan_api_get_link_check_ans
                0x000000000800bc54       0x38 lbm/lbm_lib/./build/basic_modem.a(lorawan_api.o)
                0x000000000800bc54                lorawan_api_get_link_check_ans
 .text.lorawan_api_get_device_time_req_status
                0x000000000800bc8c       0x30 lbm/lbm_lib/./build/basic_modem.a(lorawan_api.o)
                0x000000000800bc8c                lorawan_api_get_device_time_req_status
 .text.lorawan_api_get_ping_slot_info_req_status
                0x000000000800bcbc       0x30 lbm/lbm_lib/./build/basic_modem.a(lorawan_api.o)
                0x000000000800bcbc                lorawan_api_get_ping_slot_info_req_status
 .text.lorawan_api_set_ping_slot_periodicity
                0x000000000800bcec       0x34 lbm/lbm_lib/./build/basic_modem.a(lorawan_api.o)
                0x000000000800bcec                lorawan_api_set_ping_slot_periodicity
 .text.lorawan_api_get_current_enabled_frequencies_list
                0x000000000800bd20       0x1c lbm/lbm_lib/./build/basic_modem.a(lorawan_api.o)
                0x000000000800bd20                lorawan_api_get_current_enabled_frequencies_list
 .text.lorawan_api_tx_ack_bit_set
                0x000000000800bd3c       0x18 lbm/lbm_lib/./build/basic_modem.a(lorawan_api.o)
                0x000000000800bd3c                lorawan_api_tx_ack_bit_set
 .text.lorawan_api_tx_ack_bit_get
                0x000000000800bd54       0x18 lbm/lbm_lib/./build/basic_modem.a(lorawan_api.o)
                0x000000000800bd54                lorawan_api_tx_ack_bit_get
 .text.lorawan_api_core_abort
                0x000000000800bd6c       0x18 lbm/lbm_lib/./build/basic_modem.a(lorawan_api.o)
                0x000000000800bd6c                lorawan_api_core_abort
 .text.lorawan_api_update_join_channel
                0x000000000800bd84       0x18 lbm/lbm_lib/./build/basic_modem.a(lorawan_api.o)
                0x000000000800bd84                lorawan_api_update_join_channel
 .text.lorawan_api_update_next_tx_channel
                0x000000000800bd9c       0x18 lbm/lbm_lib/./build/basic_modem.a(lorawan_api.o)
                0x000000000800bd9c                lorawan_api_update_next_tx_channel
 .text.lorawan_api_get_time_of_nwk_ans
                0x000000000800bdb4       0x18 lbm/lbm_lib/./build/basic_modem.a(lorawan_api.o)
                0x000000000800bdb4                lorawan_api_get_time_of_nwk_ans
 .text.lorawan_api_set_time_of_nwk_ans
                0x000000000800bdcc       0x18 lbm/lbm_lib/./build/basic_modem.a(lorawan_api.o)
                0x000000000800bdcc                lorawan_api_set_time_of_nwk_ans
 .text.lorawan_api_set_next_tx_at_time
                0x000000000800bde4       0x18 lbm/lbm_lib/./build/basic_modem.a(lorawan_api.o)
                0x000000000800bde4                lorawan_api_set_next_tx_at_time
 .text.lorawan_api_set_join_status
                0x000000000800bdfc       0x18 lbm/lbm_lib/./build/basic_modem.a(lorawan_api.o)
                0x000000000800bdfc                lorawan_api_set_join_status
 .text.modem_test_empty_callback
                0x000000000800be14        0x2 lbm/lbm_lib/./build/basic_modem.a(smtc_modem_test.o)
                0x000000000800be14                modem_test_empty_callback
 *fill*         0x000000000800be16        0x2 
 .text.test_mode_cw_callback_for_rp
                0x000000000800be18       0x84 lbm/lbm_lib/./build/basic_modem.a(smtc_modem_test.o)
                0x000000000800be18                test_mode_cw_callback_for_rp
 .text.smtc_modem_test_start
                0x000000000800be9c       0x54 lbm/lbm_lib/./build/basic_modem.a(smtc_modem_test.o)
                0x000000000800be9c                smtc_modem_test_start
 .text.smtc_modem_test_tx_cw
                0x000000000800bef0       0xb4 lbm/lbm_lib/./build/basic_modem.a(smtc_modem_test.o)
                0x000000000800bef0                smtc_modem_test_tx_cw
 .text.smtc_modem_test_radio_reset
                0x000000000800bfa4       0x54 lbm/lbm_lib/./build/basic_modem.a(smtc_modem_test.o)
                0x000000000800bfa4                smtc_modem_test_radio_reset
 .text.smtc_modem_test_nop
                0x000000000800bff8       0x34 lbm/lbm_lib/./build/basic_modem.a(smtc_modem_test.o)
                0x000000000800bff8                smtc_modem_test_nop
 .text.smtc_modem_test_stop
                0x000000000800c02c       0x38 lbm/lbm_lib/./build/basic_modem.a(smtc_modem_test.o)
                0x000000000800c02c                smtc_modem_test_stop
 .text.xor_block
                0x000000000800c064       0x82 lbm/lbm_lib/./build/basic_modem.a(aes.o)
 .text.copy_and_key
                0x000000000800c0e6       0x84 lbm/lbm_lib/./build/basic_modem.a(aes.o)
 *fill*         0x000000000800c16a        0x2 
 .text.aes_set_key
                0x000000000800c16c      0x110 lbm/lbm_lib/./build/basic_modem.a(aes.o)
                0x000000000800c16c                aes_set_key
 .text.aes_encrypt
                0x000000000800c27c      0x2d4 lbm/lbm_lib/./build/basic_modem.a(aes.o)
                0x000000000800c27c                aes_encrypt
 .text.AES_CMAC_Init
                0x000000000800c550       0x20 lbm/lbm_lib/./build/basic_modem.a(cmac.o)
                0x000000000800c550                AES_CMAC_Init
 .text.AES_CMAC_SetKey
                0x000000000800c570        0xe lbm/lbm_lib/./build/basic_modem.a(cmac.o)
                0x000000000800c570                AES_CMAC_SetKey
 .text.AES_CMAC_Update
                0x000000000800c57e       0xde lbm/lbm_lib/./build/basic_modem.a(cmac.o)
                0x000000000800c57e                AES_CMAC_Update
 .text.AES_CMAC_Final
                0x000000000800c65c      0x14e lbm/lbm_lib/./build/basic_modem.a(cmac.o)
                0x000000000800c65c                AES_CMAC_Final
 .text.smtc_modem_crypto_payload_encrypt
                0x000000000800c7aa       0xce lbm/lbm_lib/./build/basic_modem.a(smtc_modem_crypto.o)
                0x000000000800c7aa                smtc_modem_crypto_payload_encrypt
 .text.smtc_modem_crypto_payload_decrypt
                0x000000000800c878       0x20 lbm/lbm_lib/./build/basic_modem.a(smtc_modem_crypto.o)
                0x000000000800c878                smtc_modem_crypto_payload_decrypt
 .text.smtc_modem_crypto_compute_join_mic
                0x000000000800c898       0x1a lbm/lbm_lib/./build/basic_modem.a(smtc_modem_crypto.o)
                0x000000000800c898                smtc_modem_crypto_compute_join_mic
 .text.smtc_modem_crypto_process_join_accept
                0x000000000800c8b2       0x2c lbm/lbm_lib/./build/basic_modem.a(smtc_modem_crypto.o)
                0x000000000800c8b2                smtc_modem_crypto_process_join_accept
 .text.smtc_modem_crypto_derive_skeys
                0x000000000800c8de       0x98 lbm/lbm_lib/./build/basic_modem.a(smtc_modem_crypto.o)
                0x000000000800c8de                smtc_modem_crypto_derive_skeys
 .text.smtc_modem_crypto_verify_mic
                0x000000000800c976       0x90 lbm/lbm_lib/./build/basic_modem.a(smtc_modem_crypto.o)
                0x000000000800c976                smtc_modem_crypto_verify_mic
 .text.smtc_modem_crypto_compute_and_add_mic
                0x000000000800ca06       0x72 lbm/lbm_lib/./build/basic_modem.a(smtc_modem_crypto.o)
                0x000000000800ca06                smtc_modem_crypto_compute_and_add_mic
 .text.smtc_modem_crypto_set_key
                0x000000000800ca78       0x52 lbm/lbm_lib/./build/basic_modem.a(smtc_modem_crypto.o)
                0x000000000800ca78                smtc_modem_crypto_set_key
 *fill*         0x000000000800caca        0x2 
 .text.region_eu_868_init
                0x000000000800cacc      0x15c lbm/lbm_lib/./build/basic_modem.a(region_eu_868.o)
                0x000000000800cacc                region_eu_868_init
 .text.region_eu_868_config
                0x000000000800cc28       0x78 lbm/lbm_lib/./build/basic_modem.a(region_eu_868.o)
                0x000000000800cc28                region_eu_868_config
 .text.region_eu_868_get_next_channel
                0x000000000800cca0       0xa2 lbm/lbm_lib/./build/basic_modem.a(region_eu_868.o)
                0x000000000800cca0                region_eu_868_get_next_channel
 .text.region_eu_868_get_join_next_channel
                0x000000000800cd42        0xc lbm/lbm_lib/./build/basic_modem.a(region_eu_868.o)
                0x000000000800cd42                region_eu_868_get_join_next_channel
 .text.region_eu_868_build_channel_mask
                0x000000000800cd4e       0x98 lbm/lbm_lib/./build/basic_modem.a(region_eu_868.o)
                0x000000000800cd4e                region_eu_868_build_channel_mask
 *fill*         0x000000000800cde6        0x2 
 .text.region_eu_868_get_modulation_type_from_datarate
                0x000000000800cde8       0x34 lbm/lbm_lib/./build/basic_modem.a(region_eu_868.o)
                0x000000000800cde8                region_eu_868_get_modulation_type_from_datarate
 .text.region_eu_868_lora_dr_to_sf_bw
                0x000000000800ce1c       0x34 lbm/lbm_lib/./build/basic_modem.a(region_eu_868.o)
                0x000000000800ce1c                region_eu_868_lora_dr_to_sf_bw
 .text.region_eu_868_fsk_dr_to_bitrate
                0x000000000800ce50       0x24 lbm/lbm_lib/./build/basic_modem.a(region_eu_868.o)
                0x000000000800ce50                region_eu_868_fsk_dr_to_bitrate
 .text.region_eu_868_lr_fhss_dr_to_cr_bw
                0x000000000800ce74       0x38 lbm/lbm_lib/./build/basic_modem.a(region_eu_868.o)
                0x000000000800ce74                region_eu_868_lr_fhss_dr_to_cr_bw
 .text.ral_compute_lora_ldro
                0x000000000800ceac       0x52 lbm/lbm_lib/./build/basic_modem.a(lr1_stack_mac_layer.o)
 .text.ral_set_dio_irq_params
                0x000000000800cefe        0xa lbm/lbm_lib/./build/basic_modem.a(lr1_stack_mac_layer.o)
 .text.lr1_stack_mac_tx_lora_launch_callback_for_rp
                0x000000000800cf08       0xd8 lbm/lbm_lib/./build/basic_modem.a(lr1_stack_mac_layer.o)
                0x000000000800cf08                lr1_stack_mac_tx_lora_launch_callback_for_rp
 .text.lr1_stack_mac_rx_lora_launch_callback_for_rp
                0x000000000800cfe0       0xac lbm/lbm_lib/./build/basic_modem.a(lr1_stack_mac_layer.o)
                0x000000000800cfe0                lr1_stack_mac_rx_lora_launch_callback_for_rp
 .text.lr1_stack_mac_rx_gfsk_launch_callback_for_rp
                0x000000000800d08c       0xac lbm/lbm_lib/./build/basic_modem.a(lr1_stack_mac_layer.o)
                0x000000000800d08c                lr1_stack_mac_rx_gfsk_launch_callback_for_rp
 .text.lr1_stack_mac_tx_lr_fhss_launch_callback_for_rp
                0x000000000800d138      0x12c lbm/lbm_lib/./build/basic_modem.a(lr1_stack_mac_layer.o)
                0x000000000800d138                lr1_stack_mac_tx_lr_fhss_launch_callback_for_rp
 .text.lr1_stack_mac_tx_gfsk_launch_callback_for_rp
                0x000000000800d264       0xdc lbm/lbm_lib/./build/basic_modem.a(lr1_stack_mac_layer.o)
                0x000000000800d264                lr1_stack_mac_tx_gfsk_launch_callback_for_rp
 .text.lr1_stack_mac_session_init
                0x000000000800d340       0x90 lbm/lbm_lib/./build/basic_modem.a(lr1_stack_mac_layer.o)
                0x000000000800d340                lr1_stack_mac_session_init
 .text.lr1_stack_mac_init
                0x000000000800d3d0       0x88 lbm/lbm_lib/./build/basic_modem.a(lr1_stack_mac_layer.o)
                0x000000000800d3d0                lr1_stack_mac_init
 .text.lr1_stack_mac_region_init
                0x000000000800d458        0xa lbm/lbm_lib/./build/basic_modem.a(lr1_stack_mac_layer.o)
                0x000000000800d458                lr1_stack_mac_region_init
 *fill*         0x000000000800d462        0x2 
 .text.lr1_stack_mac_region_config
                0x000000000800d464       0x4c lbm/lbm_lib/./build/basic_modem.a(lr1_stack_mac_layer.o)
                0x000000000800d464                lr1_stack_mac_region_config
 .text.lr1_stack_mac_tx_frame_build
                0x000000000800d4b0       0xdc lbm/lbm_lib/./build/basic_modem.a(lr1_stack_mac_layer.o)
                0x000000000800d4b0                lr1_stack_mac_tx_frame_build
 .text.lr1_stack_mac_tx_frame_encrypt
                0x000000000800d58c       0x98 lbm/lbm_lib/./build/basic_modem.a(lr1_stack_mac_layer.o)
                0x000000000800d58c                lr1_stack_mac_tx_frame_encrypt
 .text.lr1_stack_mac_tx_radio_start
                0x000000000800d624      0x32c lbm/lbm_lib/./build/basic_modem.a(lr1_stack_mac_layer.o)
                0x000000000800d624                lr1_stack_mac_tx_radio_start
 .text.lr1_stack_mac_rx_radio_start
                0x000000000800d950      0x218 lbm/lbm_lib/./build/basic_modem.a(lr1_stack_mac_layer.o)
                0x000000000800d950                lr1_stack_mac_rx_radio_start
 .text.lr1_stack_mac_rp_callback
                0x000000000800db68      0x1ac lbm/lbm_lib/./build/basic_modem.a(lr1_stack_mac_layer.o)
                0x000000000800db68                lr1_stack_mac_rp_callback
 .text.lr1_stack_mac_rx_timer_configure
                0x000000000800dd14      0x13c lbm/lbm_lib/./build/basic_modem.a(lr1_stack_mac_layer.o)
                0x000000000800dd14                lr1_stack_mac_rx_timer_configure
 .text.lr1_stack_mac_update_tx_done
                0x000000000800de50       0x70 lbm/lbm_lib/./build/basic_modem.a(lr1_stack_mac_layer.o)
                0x000000000800de50                lr1_stack_mac_update_tx_done
 .text.lr1_stack_mac_cmd_parse
                0x000000000800dec0      0x858 lbm/lbm_lib/./build/basic_modem.a(lr1_stack_mac_layer.o)
                0x000000000800dec0                lr1_stack_mac_cmd_parse
 .text.lr1_stack_mac_join_request_build
                0x000000000800e718       0xb4 lbm/lbm_lib/./build/basic_modem.a(lr1_stack_mac_layer.o)
                0x000000000800e718                lr1_stack_mac_join_request_build
 .text.lr1_stack_mac_join_accept
                0x000000000800e7cc      0x130 lbm/lbm_lib/./build/basic_modem.a(lr1_stack_mac_layer.o)
                0x000000000800e7cc                lr1_stack_mac_join_accept
 .text.lr1_stack_network_next_free_duty_cycle_ms_get
                0x000000000800e8fc       0x34 lbm/lbm_lib/./build/basic_modem.a(lr1_stack_mac_layer.o)
                0x000000000800e8fc                lr1_stack_network_next_free_duty_cycle_ms_get
 .text.lr1_stack_toa_get
                0x000000000800e930      0x178 lbm/lbm_lib/./build/basic_modem.a(lr1_stack_mac_layer.o)
                0x000000000800e930                lr1_stack_toa_get
 .text.lr1_stack_mac_update
                0x000000000800eaa8      0x294 lbm/lbm_lib/./build/basic_modem.a(lr1_stack_mac_layer.o)
                0x000000000800eaa8                lr1_stack_mac_update
 .text.lr1_stack_mac_tx_ack_bit_set
                0x000000000800ed3c        0xc lbm/lbm_lib/./build/basic_modem.a(lr1_stack_mac_layer.o)
                0x000000000800ed3c                lr1_stack_mac_tx_ack_bit_set
 .text.lr1_stack_mac_tx_ack_bit_get
                0x000000000800ed48        0xc lbm/lbm_lib/./build/basic_modem.a(lr1_stack_mac_layer.o)
                0x000000000800ed48                lr1_stack_mac_tx_ack_bit_get
 .text.lr1mac_rx_payload_max_size_check
                0x000000000800ed54       0x18 lbm/lbm_lib/./build/basic_modem.a(lr1_stack_mac_layer.o)
                0x000000000800ed54                lr1mac_rx_payload_max_size_check
 .text.lr1_stack_mac_rx_frame_decode
                0x000000000800ed6c      0x2d0 lbm/lbm_lib/./build/basic_modem.a(lr1_stack_mac_layer.o)
                0x000000000800ed6c                lr1_stack_mac_rx_frame_decode
 .text.lr1mac_core_join
                0x000000000800f03c       0x70 lbm/lbm_lib/./build/basic_modem.a(lr1mac_core.o)
                0x000000000800f03c                lr1mac_core_join
 .text.lr1_mac_joined_status_get
                0x000000000800f0ac        0xc lbm/lbm_lib/./build/basic_modem.a(lr1mac_core.o)
                0x000000000800f0ac                lr1_mac_joined_status_get
 .text.lr1mac_core_payload_send
                0x000000000800f0b8       0xf4 lbm/lbm_lib/./build/basic_modem.a(lr1mac_core.o)
                0x000000000800f0b8                lr1mac_core_payload_send
 .text.lr1mac_core_send_stack_cid_req
                0x000000000800f1ac       0xe0 lbm/lbm_lib/./build/basic_modem.a(lr1mac_core.o)
                0x000000000800f1ac                lr1mac_core_send_stack_cid_req
 .text.lr1mac_core_dr_strategy_set
                0x000000000800f28c       0x94 lbm/lbm_lib/./build/basic_modem.a(lr1mac_core.o)
                0x000000000800f28c                lr1mac_core_dr_strategy_set
 .text.lr1mac_core_context_save
                0x000000000800f320       0xc4 lbm/lbm_lib/./build/basic_modem.a(lr1mac_core.o)
                0x000000000800f320                lr1mac_core_context_save
 .text.lr1mac_mac_update
                0x000000000800f3e4      0x158 lbm/lbm_lib/./build/basic_modem.a(lr1mac_core.o)
 .text.lr1mac_core_process
                0x000000000800f53c      0x1cc lbm/lbm_lib/./build/basic_modem.a(lr1mac_core.o)
                0x000000000800f53c                lr1mac_core_process
 .text.lr1mac_core_context_load
                0x000000000800f708       0x70 lbm/lbm_lib/./build/basic_modem.a(lr1mac_core.o)
                0x000000000800f708                lr1mac_core_context_load
 .text.lr1mac_core_context_factory_reset
                0x000000000800f778       0x58 lbm/lbm_lib/./build/basic_modem.a(lr1mac_core.o)
                0x000000000800f778                lr1mac_core_context_factory_reset
 .text.lr1mac_core_init
                0x000000000800f7d0      0x108 lbm/lbm_lib/./build/basic_modem.a(lr1mac_core.o)
                0x000000000800f7d0                lr1mac_core_init
 .text.lr1mac_core_next_max_payload_length_get
                0x000000000800f8d8       0x1a lbm/lbm_lib/./build/basic_modem.a(lr1mac_core.o)
                0x000000000800f8d8                lr1mac_core_next_max_payload_length_get
 .text.lr1mac_core_get_activation_mode
                0x000000000800f8f2        0x6 lbm/lbm_lib/./build/basic_modem.a(lr1mac_core.o)
                0x000000000800f8f2                lr1mac_core_get_activation_mode
 .text.lr1mac_core_set_activation_mode
                0x000000000800f8f8        0x6 lbm/lbm_lib/./build/basic_modem.a(lr1mac_core.o)
                0x000000000800f8f8                lr1mac_core_set_activation_mode
 .text.lr1mac_core_next_join_time_second_get
                0x000000000800f8fe        0x8 lbm/lbm_lib/./build/basic_modem.a(lr1mac_core.o)
                0x000000000800f8fe                lr1mac_core_next_join_time_second_get
 .text.lr1mac_core_get_region
                0x000000000800f906        0x6 lbm/lbm_lib/./build/basic_modem.a(lr1mac_core.o)
                0x000000000800f906                lr1mac_core_get_region
 .text.lr1mac_core_set_region
                0x000000000800f90c       0x34 lbm/lbm_lib/./build/basic_modem.a(lr1mac_core.o)
                0x000000000800f90c                lr1mac_core_set_region
 .text.lr1mac_core_reset_no_rx_packet_in_mobile_mode_cnt
                0x000000000800f940        0xc lbm/lbm_lib/./build/basic_modem.a(lr1mac_core.o)
                0x000000000800f940                lr1mac_core_reset_no_rx_packet_in_mobile_mode_cnt
 .text.lr1mac_core_join_duty_cycle_backoff_bypass_get
                0x000000000800f94c        0xc lbm/lbm_lib/./build/basic_modem.a(lr1mac_core.o)
                0x000000000800f94c                lr1mac_core_join_duty_cycle_backoff_bypass_get
 .text.lr1mac_core_certification_set
                0x000000000800f958       0x1c lbm/lbm_lib/./build/basic_modem.a(lr1mac_core.o)
                0x000000000800f958                lr1mac_core_certification_set
 .text.lr1mac_core_certification_get
                0x000000000800f974        0xc lbm/lbm_lib/./build/basic_modem.a(lr1mac_core.o)
                0x000000000800f974                lr1mac_core_certification_get
 .text.lr1mac_core_get_lorawan_version
                0x000000000800f980        0xc lbm/lbm_lib/./build/basic_modem.a(lr1mac_core.o)
                0x000000000800f980                lr1mac_core_get_lorawan_version
 .text.lr1mac_core_set_ping_slot_periodicity
                0x000000000800f98c       0x2c lbm/lbm_lib/./build/basic_modem.a(lr1mac_core.o)
                0x000000000800f98c                lr1mac_core_set_ping_slot_periodicity
 .text.lr1_mac_core_get_link_check_ans
                0x000000000800f9b8       0x2c lbm/lbm_lib/./build/basic_modem.a(lr1mac_core.o)
                0x000000000800f9b8                lr1_mac_core_get_link_check_ans
 .text.lr1_mac_core_get_device_time_req_status
                0x000000000800f9e4       0x14 lbm/lbm_lib/./build/basic_modem.a(lr1mac_core.o)
                0x000000000800f9e4                lr1_mac_core_get_device_time_req_status
 .text.lr1_mac_core_get_ping_slot_info_req_status
                0x000000000800f9f8       0x14 lbm/lbm_lib/./build/basic_modem.a(lr1mac_core.o)
                0x000000000800f9f8                lr1_mac_core_get_ping_slot_info_req_status
 .text.lr1mac_core_update_join_channel
                0x000000000800fa0c       0x7c lbm/lbm_lib/./build/basic_modem.a(lr1mac_core.o)
                0x000000000800fa0c                lr1mac_core_update_join_channel
 .text.lr1mac_core_update_next_tx_channel
                0x000000000800fa88       0x1e lbm/lbm_lib/./build/basic_modem.a(lr1mac_core.o)
                0x000000000800fa88                lr1mac_core_update_next_tx_channel
 .text.lr1mac_core_get_time_of_nwk_ans
                0x000000000800faa6        0x8 lbm/lbm_lib/./build/basic_modem.a(lr1mac_core.o)
                0x000000000800faa6                lr1mac_core_get_time_of_nwk_ans
 .text.lr1mac_core_set_time_of_nwk_ans
                0x000000000800faae        0x8 lbm/lbm_lib/./build/basic_modem.a(lr1mac_core.o)
                0x000000000800faae                lr1mac_core_set_time_of_nwk_ans
 .text.lr1mac_core_set_next_tx_at_time
                0x000000000800fab6        0x8 lbm/lbm_lib/./build/basic_modem.a(lr1mac_core.o)
                0x000000000800fab6                lr1mac_core_set_next_tx_at_time
 *fill*         0x000000000800fabe        0x2 
 .text.lr1mac_core_set_join_status
                0x000000000800fac0        0xc lbm/lbm_lib/./build/basic_modem.a(lr1mac_core.o)
                0x000000000800fac0                lr1mac_core_set_join_status
 .text.lr1mac_core_abort
                0x000000000800facc       0x48 lbm/lbm_lib/./build/basic_modem.a(lr1mac_core.o)
                0x000000000800facc                lr1mac_core_abort
 .text.lr1mac_core_join_status_clear
                0x000000000800fb14       0x20 lbm/lbm_lib/./build/basic_modem.a(lr1mac_core.o)
                0x000000000800fb14                lr1mac_core_join_status_clear
 .text.lr1mac_utilities_crc
                0x000000000800fb34       0x38 lbm/lbm_lib/./build/basic_modem.a(lr1mac_utilities.o)
                0x000000000800fb34                lr1mac_utilities_crc
 .text.SMTC_GET_BIT8
                0x000000000800fb6c       0x10 lbm/lbm_lib/./build/basic_modem.a(lr1mac_utilities.o)
                0x000000000800fb6c                SMTC_GET_BIT8
 .text.SMTC_SET_BIT8
                0x000000000800fb7c       0x12 lbm/lbm_lib/./build/basic_modem.a(lr1mac_utilities.o)
                0x000000000800fb7c                SMTC_SET_BIT8
 .text.SMTC_CLR_BIT8
                0x000000000800fb8e       0x14 lbm/lbm_lib/./build/basic_modem.a(lr1mac_utilities.o)
                0x000000000800fb8e                SMTC_CLR_BIT8
 .text.SMTC_PUT_BIT8
                0x000000000800fba2       0x12 lbm/lbm_lib/./build/basic_modem.a(lr1mac_utilities.o)
                0x000000000800fba2                SMTC_PUT_BIT8
 .text.SMTC_ARE_CLR_BYTE8
                0x000000000800fbb4       0x18 lbm/lbm_lib/./build/basic_modem.a(lr1mac_utilities.o)
                0x000000000800fbb4                SMTC_ARE_CLR_BYTE8
 .text.SMTC_GET_BIT16
                0x000000000800fbcc       0x12 lbm/lbm_lib/./build/basic_modem.a(lr1mac_utilities.o)
                0x000000000800fbcc                SMTC_GET_BIT16
 .text.SMTC_SET_BIT16
                0x000000000800fbde       0x14 lbm/lbm_lib/./build/basic_modem.a(lr1mac_utilities.o)
                0x000000000800fbde                SMTC_SET_BIT16
 .text.SMTC_CLR_BIT16
                0x000000000800fbf2       0x16 lbm/lbm_lib/./build/basic_modem.a(lr1mac_utilities.o)
                0x000000000800fbf2                SMTC_CLR_BIT16
 .text.SMTC_PUT_BIT16
                0x000000000800fc08       0x12 lbm/lbm_lib/./build/basic_modem.a(lr1mac_utilities.o)
                0x000000000800fc08                SMTC_PUT_BIT16
 .text.lr1mac_rx_payload_min_size_check
                0x000000000800fc1a        0xe lbm/lbm_lib/./build/basic_modem.a(lr1mac_utilities.o)
                0x000000000800fc1a                lr1mac_rx_payload_min_size_check
 .text.lr1mac_rx_mhdr_extract
                0x000000000800fc28       0x32 lbm/lbm_lib/./build/basic_modem.a(lr1mac_utilities.o)
                0x000000000800fc28                lr1mac_rx_mhdr_extract
 .text.lr1mac_rx_fhdr_extract
                0x000000000800fc5a       0x6c lbm/lbm_lib/./build/basic_modem.a(lr1mac_utilities.o)
                0x000000000800fc5a                lr1mac_rx_fhdr_extract
 .text.lr1mac_fcnt_dwn_accept
                0x000000000800fcc6       0x32 lbm/lbm_lib/./build/basic_modem.a(lr1mac_utilities.o)
                0x000000000800fcc6                lr1mac_fcnt_dwn_accept
 .text.lr1_stack_mac_cmd_ans_cut
                0x000000000800fcf8       0x38 lbm/lbm_lib/./build/basic_modem.a(lr1mac_utilities.o)
                0x000000000800fcf8                lr1_stack_mac_cmd_ans_cut
 .text.sx126x_set_sleep
                0x000000000800fd30       0x1a lbm/lbm_lib/./build/basic_modem.a(sx126x.o)
                0x000000000800fd30                sx126x_set_sleep
 .text.sx126x_set_standby
                0x000000000800fd4a       0x1a lbm/lbm_lib/./build/basic_modem.a(sx126x.o)
                0x000000000800fd4a                sx126x_set_standby
 .text.sx126x_set_fs
                0x000000000800fd64       0x1c lbm/lbm_lib/./build/basic_modem.a(sx126x.o)
                0x000000000800fd64                sx126x_set_fs
 .text.sx126x_set_tx_with_timeout_in_rtc_step
                0x000000000800fd80       0x22 lbm/lbm_lib/./build/basic_modem.a(sx126x.o)
                0x000000000800fd80                sx126x_set_tx_with_timeout_in_rtc_step
 .text.sx126x_set_tx
                0x000000000800fda2       0x18 lbm/lbm_lib/./build/basic_modem.a(sx126x.o)
                0x000000000800fda2                sx126x_set_tx
 .text.sx126x_set_rx_with_timeout_in_rtc_step
                0x000000000800fdba       0x22 lbm/lbm_lib/./build/basic_modem.a(sx126x.o)
                0x000000000800fdba                sx126x_set_rx_with_timeout_in_rtc_step
 .text.sx126x_set_rx
                0x000000000800fddc       0x18 lbm/lbm_lib/./build/basic_modem.a(sx126x.o)
                0x000000000800fddc                sx126x_set_rx
 .text.sx126x_stop_timer_on_preamble
                0x000000000800fdf4       0x1a lbm/lbm_lib/./build/basic_modem.a(sx126x.o)
                0x000000000800fdf4                sx126x_stop_timer_on_preamble
 .text.sx126x_set_rx_duty_cycle_with_timings_in_rtc_step
                0x000000000800fe0e       0x2c lbm/lbm_lib/./build/basic_modem.a(sx126x.o)
                0x000000000800fe0e                sx126x_set_rx_duty_cycle_with_timings_in_rtc_step
 .text.sx126x_set_rx_duty_cycle
                0x000000000800fe3a        0xc lbm/lbm_lib/./build/basic_modem.a(sx126x.o)
                0x000000000800fe3a                sx126x_set_rx_duty_cycle
 *fill*         0x000000000800fe46        0x2 
 .text.sx126x_set_cad
                0x000000000800fe48       0x1c lbm/lbm_lib/./build/basic_modem.a(sx126x.o)
                0x000000000800fe48                sx126x_set_cad
 .text.sx126x_set_tx_cw
                0x000000000800fe64       0x1c lbm/lbm_lib/./build/basic_modem.a(sx126x.o)
                0x000000000800fe64                sx126x_set_tx_cw
 .text.sx126x_set_tx_infinite_preamble
                0x000000000800fe80       0x1c lbm/lbm_lib/./build/basic_modem.a(sx126x.o)
                0x000000000800fe80                sx126x_set_tx_infinite_preamble
 .text.sx126x_set_reg_mode
                0x000000000800fe9c       0x1a lbm/lbm_lib/./build/basic_modem.a(sx126x.o)
                0x000000000800fe9c                sx126x_set_reg_mode
 .text.sx126x_cal
                0x000000000800feb6       0x1a lbm/lbm_lib/./build/basic_modem.a(sx126x.o)
                0x000000000800feb6                sx126x_cal
 .text.sx126x_cal_img
                0x000000000800fed0       0x1c lbm/lbm_lib/./build/basic_modem.a(sx126x.o)
                0x000000000800fed0                sx126x_cal_img
 .text.sx126x_cal_img_in_mhz
                0x000000000800feec       0x12 lbm/lbm_lib/./build/basic_modem.a(sx126x.o)
                0x000000000800feec                sx126x_cal_img_in_mhz
 .text.sx126x_set_pa_cfg
                0x000000000800fefe       0x28 lbm/lbm_lib/./build/basic_modem.a(sx126x.o)
                0x000000000800fefe                sx126x_set_pa_cfg
 .text.sx126x_set_rx_tx_fallback_mode
                0x000000000800ff26       0x1a lbm/lbm_lib/./build/basic_modem.a(sx126x.o)
                0x000000000800ff26                sx126x_set_rx_tx_fallback_mode
 .text.sx126x_write_register
                0x000000000800ff40       0x20 lbm/lbm_lib/./build/basic_modem.a(sx126x.o)
                0x000000000800ff40                sx126x_write_register
 .text.sx126x_read_register
                0x000000000800ff60       0x24 lbm/lbm_lib/./build/basic_modem.a(sx126x.o)
                0x000000000800ff60                sx126x_read_register
 .text.sx126x_write_buffer
                0x000000000800ff84       0x1c lbm/lbm_lib/./build/basic_modem.a(sx126x.o)
                0x000000000800ff84                sx126x_write_buffer
 .text.sx126x_read_buffer
                0x000000000800ffa0       0x20 lbm/lbm_lib/./build/basic_modem.a(sx126x.o)
                0x000000000800ffa0                sx126x_read_buffer
 .text.sx126x_set_dio_irq_params
                0x000000000800ffc0       0x36 lbm/lbm_lib/./build/basic_modem.a(sx126x.o)
                0x000000000800ffc0                sx126x_set_dio_irq_params
 .text.sx126x_get_irq_status
                0x000000000800fff6       0x2e lbm/lbm_lib/./build/basic_modem.a(sx126x.o)
                0x000000000800fff6                sx126x_get_irq_status
 .text.sx126x_clear_irq_status
                0x0000000008010024       0x1e lbm/lbm_lib/./build/basic_modem.a(sx126x.o)
                0x0000000008010024                sx126x_clear_irq_status
 .text.sx126x_get_and_clear_irq_status
                0x0000000008010042       0x3a lbm/lbm_lib/./build/basic_modem.a(sx126x.o)
                0x0000000008010042                sx126x_get_and_clear_irq_status
 .text.sx126x_set_dio2_as_rf_sw_ctrl
                0x000000000801007c       0x1a lbm/lbm_lib/./build/basic_modem.a(sx126x.o)
                0x000000000801007c                sx126x_set_dio2_as_rf_sw_ctrl
 .text.sx126x_set_dio3_as_tcxo_ctrl
                0x0000000008010096       0x24 lbm/lbm_lib/./build/basic_modem.a(sx126x.o)
                0x0000000008010096                sx126x_set_dio3_as_tcxo_ctrl
 .text.sx126x_set_rf_freq_in_pll_steps
                0x00000000080100ba       0x26 lbm/lbm_lib/./build/basic_modem.a(sx126x.o)
                0x00000000080100ba                sx126x_set_rf_freq_in_pll_steps
 .text.sx126x_set_pkt_type
                0x00000000080100e0       0x1a lbm/lbm_lib/./build/basic_modem.a(sx126x.o)
                0x00000000080100e0                sx126x_set_pkt_type
 .text.sx126x_get_pkt_type
                0x00000000080100fa       0x18 lbm/lbm_lib/./build/basic_modem.a(sx126x.o)
                0x00000000080100fa                sx126x_get_pkt_type
 .text.sx126x_set_tx_params
                0x0000000008010112       0x1c lbm/lbm_lib/./build/basic_modem.a(sx126x.o)
                0x0000000008010112                sx126x_set_tx_params
 *fill*         0x000000000801012e        0x2 
 .text.sx126x_set_lora_mod_params
                0x0000000008010130       0x70 lbm/lbm_lib/./build/basic_modem.a(sx126x.o)
                0x0000000008010130                sx126x_set_lora_mod_params
 .text.sx126x_set_gfsk_pkt_params
                0x00000000080101a0       0x3e lbm/lbm_lib/./build/basic_modem.a(sx126x.o)
                0x00000000080101a0                sx126x_set_gfsk_pkt_params
 *fill*         0x00000000080101de        0x2 
 .text.sx126x_set_lora_pkt_params
                0x00000000080101e0       0x74 lbm/lbm_lib/./build/basic_modem.a(sx126x.o)
                0x00000000080101e0                sx126x_set_lora_pkt_params
 .text.sx126x_set_cad_params
                0x0000000008010254       0x34 lbm/lbm_lib/./build/basic_modem.a(sx126x.o)
                0x0000000008010254                sx126x_set_cad_params
 .text.sx126x_set_buffer_base_address
                0x0000000008010288       0x1c lbm/lbm_lib/./build/basic_modem.a(sx126x.o)
                0x0000000008010288                sx126x_set_buffer_base_address
 .text.sx126x_set_lora_symb_nb_timeout
                0x00000000080102a4       0x74 lbm/lbm_lib/./build/basic_modem.a(sx126x.o)
                0x00000000080102a4                sx126x_set_lora_symb_nb_timeout
 .text.sx126x_get_status
                0x0000000008010318       0x3c lbm/lbm_lib/./build/basic_modem.a(sx126x.o)
                0x0000000008010318                sx126x_get_status
 .text.sx126x_get_rx_buffer_status
                0x0000000008010354       0x2c lbm/lbm_lib/./build/basic_modem.a(sx126x.o)
                0x0000000008010354                sx126x_get_rx_buffer_status
 .text.sx126x_get_gfsk_pkt_status
                0x0000000008010380       0x78 lbm/lbm_lib/./build/basic_modem.a(sx126x.o)
                0x0000000008010380                sx126x_get_gfsk_pkt_status
 .text.sx126x_get_lora_pkt_status
                0x00000000080103f8       0x58 lbm/lbm_lib/./build/basic_modem.a(sx126x.o)
                0x00000000080103f8                sx126x_get_lora_pkt_status
 .text.sx126x_get_rssi_inst
                0x0000000008010450       0x30 lbm/lbm_lib/./build/basic_modem.a(sx126x.o)
                0x0000000008010450                sx126x_get_rssi_inst
 .text.sx126x_reset
                0x0000000008010480        0x8 lbm/lbm_lib/./build/basic_modem.a(sx126x.o)
                0x0000000008010480                sx126x_reset
 .text.sx126x_wakeup
                0x0000000008010488        0x8 lbm/lbm_lib/./build/basic_modem.a(sx126x.o)
                0x0000000008010488                sx126x_wakeup
 .text.sx126x_get_gfsk_bw_param
                0x0000000008010490       0x30 lbm/lbm_lib/./build/basic_modem.a(sx126x.o)
                0x0000000008010490                sx126x_get_gfsk_bw_param
 .text.sx126x_get_lora_bw_in_hz
                0x00000000080104c0       0x14 lbm/lbm_lib/./build/basic_modem.a(sx126x.o)
                0x00000000080104c0                sx126x_get_lora_bw_in_hz
 .text.sx126x_get_lora_time_on_air_numerator
                0x00000000080104d4       0x60 lbm/lbm_lib/./build/basic_modem.a(sx126x.o)
                0x00000000080104d4                sx126x_get_lora_time_on_air_numerator
 .text.sx126x_get_lora_time_on_air_in_ms
                0x0000000008010534       0x22 lbm/lbm_lib/./build/basic_modem.a(sx126x.o)
                0x0000000008010534                sx126x_get_lora_time_on_air_in_ms
 *fill*         0x0000000008010556        0x2 
 .text.sx126x_get_gfsk_time_on_air_numerator
                0x0000000008010558       0x38 lbm/lbm_lib/./build/basic_modem.a(sx126x.o)
                0x0000000008010558                sx126x_get_gfsk_time_on_air_numerator
 .text.sx126x_get_gfsk_time_on_air_in_ms
                0x0000000008010590       0x1a lbm/lbm_lib/./build/basic_modem.a(sx126x.o)
                0x0000000008010590                sx126x_get_gfsk_time_on_air_in_ms
 *fill*         0x00000000080105aa        0x2 
 .text.sx126x_get_random_numbers
                0x00000000080105ac       0xd4 lbm/lbm_lib/./build/basic_modem.a(sx126x.o)
                0x00000000080105ac                sx126x_get_random_numbers
 .text.sx126x_convert_freq_in_hz_to_pll_step
                0x0000000008010680       0x30 lbm/lbm_lib/./build/basic_modem.a(sx126x.o)
                0x0000000008010680                sx126x_convert_freq_in_hz_to_pll_step
 .text.sx126x_set_rf_freq
                0x00000000080106b0       0x14 lbm/lbm_lib/./build/basic_modem.a(sx126x.o)
                0x00000000080106b0                sx126x_set_rf_freq
 .text.sx126x_set_gfsk_mod_params
                0x00000000080106c4       0x80 lbm/lbm_lib/./build/basic_modem.a(sx126x.o)
                0x00000000080106c4                sx126x_set_gfsk_mod_params
 .text.sx126x_convert_timeout_in_ms_to_rtc_step
                0x0000000008010744        0x4 lbm/lbm_lib/./build/basic_modem.a(sx126x.o)
                0x0000000008010744                sx126x_convert_timeout_in_ms_to_rtc_step
 .text.sx126x_cfg_rx_boosted
                0x0000000008010748       0x28 lbm/lbm_lib/./build/basic_modem.a(sx126x.o)
                0x0000000008010748                sx126x_cfg_rx_boosted
 .text.sx126x_set_gfsk_sync_word
                0x0000000008010770       0x26 lbm/lbm_lib/./build/basic_modem.a(sx126x.o)
                0x0000000008010770                sx126x_set_gfsk_sync_word
 .text.sx126x_set_lora_sync_word
                0x0000000008010796       0x44 lbm/lbm_lib/./build/basic_modem.a(sx126x.o)
                0x0000000008010796                sx126x_set_lora_sync_word
 *fill*         0x00000000080107da        0x2 
 .text.sx126x_set_gfsk_crc_seed
                0x00000000080107dc       0x1c lbm/lbm_lib/./build/basic_modem.a(sx126x.o)
                0x00000000080107dc                sx126x_set_gfsk_crc_seed
 .text.sx126x_set_gfsk_crc_polynomial
                0x00000000080107f8       0x1c lbm/lbm_lib/./build/basic_modem.a(sx126x.o)
                0x00000000080107f8                sx126x_set_gfsk_crc_polynomial
 .text.sx126x_set_gfsk_whitening_seed
                0x0000000008010814       0x54 lbm/lbm_lib/./build/basic_modem.a(sx126x.o)
                0x0000000008010814                sx126x_set_gfsk_whitening_seed
 .text.sx126x_cfg_tx_clamp
                0x0000000008010868       0x34 lbm/lbm_lib/./build/basic_modem.a(sx126x.o)
                0x0000000008010868                sx126x_cfg_tx_clamp
 .text.sx126x_stop_rtc
                0x000000000801089c       0x4c lbm/lbm_lib/./build/basic_modem.a(sx126x.o)
                0x000000000801089c                sx126x_stop_rtc
 .text.sx126x_handle_rx_done
                0x00000000080108e8        0x8 lbm/lbm_lib/./build/basic_modem.a(sx126x.o)
                0x00000000080108e8                sx126x_handle_rx_done
 .text.sx126x_set_ocp_value
                0x00000000080108f0       0x18 lbm/lbm_lib/./build/basic_modem.a(sx126x.o)
                0x00000000080108f0                sx126x_set_ocp_value
 .text.sx126x_set_trimming_capacitor_values
                0x0000000008010908       0x18 lbm/lbm_lib/./build/basic_modem.a(sx126x.o)
                0x0000000008010908                sx126x_set_trimming_capacitor_values
 .text.sx126x_add_registers_to_retention_list
                0x0000000008010920       0xb4 lbm/lbm_lib/./build/basic_modem.a(sx126x.o)
                0x0000000008010920                sx126x_add_registers_to_retention_list
 .text.sx126x_init_retention_list
                0x00000000080109d4       0x20 lbm/lbm_lib/./build/basic_modem.a(sx126x.o)
                0x00000000080109d4                sx126x_init_retention_list
 .text.sx126x_get_lora_params_from_header
                0x00000000080109f4       0x50 lbm/lbm_lib/./build/basic_modem.a(sx126x.o)
                0x00000000080109f4                sx126x_get_lora_params_from_header
 .text.sx126x_lr_fhss_init
                0x0000000008010a44       0x60 lbm/lbm_lib/./build/basic_modem.a(sx126x_lr_fhss.o)
                0x0000000008010a44                sx126x_lr_fhss_init
 .text.sx126x_lr_fhss_get_bit_delay_in_us
                0x0000000008010aa4       0x20 lbm/lbm_lib/./build/basic_modem.a(sx126x_lr_fhss.o)
                0x0000000008010aa4                sx126x_lr_fhss_get_bit_delay_in_us
 .text.sx126x_lr_fhss_write_payload
                0x0000000008010ac4        0xc lbm/lbm_lib/./build/basic_modem.a(sx126x_lr_fhss.o)
                0x0000000008010ac4                sx126x_lr_fhss_write_payload
 .text.sx126x_lr_fhss_handle_tx_done
                0x0000000008010ad0       0x18 lbm/lbm_lib/./build/basic_modem.a(sx126x_lr_fhss.o)
                0x0000000008010ad0                sx126x_lr_fhss_handle_tx_done
 .text.sx126x_lr_fhss_write_hop_config
                0x0000000008010ae8       0x1c lbm/lbm_lib/./build/basic_modem.a(sx126x_lr_fhss.o)
                0x0000000008010ae8                sx126x_lr_fhss_write_hop_config
 .text.sx126x_lr_fhss_write_hop
                0x0000000008010b04       0x34 lbm/lbm_lib/./build/basic_modem.a(sx126x_lr_fhss.o)
                0x0000000008010b04                sx126x_lr_fhss_write_hop
 .text.sx126x_lr_fhss_get_next_freq_in_pll_steps
                0x0000000008010b38       0x68 lbm/lbm_lib/./build/basic_modem.a(sx126x_lr_fhss.o)
                0x0000000008010b38                sx126x_lr_fhss_get_next_freq_in_pll_steps
 .text.sx126x_lr_fhss_process_parameters
                0x0000000008010ba0       0x8e lbm/lbm_lib/./build/basic_modem.a(sx126x_lr_fhss.o)
                0x0000000008010ba0                sx126x_lr_fhss_process_parameters
 .text.sx126x_lr_fhss_write_hop_sequence_head
                0x0000000008010c2e       0x98 lbm/lbm_lib/./build/basic_modem.a(sx126x_lr_fhss.o)
                0x0000000008010c2e                sx126x_lr_fhss_write_hop_sequence_head
 .text.sx126x_lr_fhss_build_frame
                0x0000000008010cc6       0x5a lbm/lbm_lib/./build/basic_modem.a(sx126x_lr_fhss.o)
                0x0000000008010cc6                sx126x_lr_fhss_build_frame
 .text.sx126x_lr_fhss_handle_hop
                0x0000000008010d20       0x44 lbm/lbm_lib/./build/basic_modem.a(sx126x_lr_fhss.o)
                0x0000000008010d20                sx126x_lr_fhss_handle_hop
 .text.lr_fhss_extract_bit_in_byte_vector
                0x0000000008010d64       0x10 lbm/lbm_lib/./build/basic_modem.a(lr_fhss_mac.o)
 .text.lr_fhss_set_bit_in_byte_vector
                0x0000000008010d74       0x1a lbm/lbm_lib/./build/basic_modem.a(lr_fhss_mac.o)
 *fill*         0x0000000008010d8e        0x2 
 .text.lr_fhss_convolution_encode_viterbi_1_2_base.constprop.0.isra.0
                0x0000000008010d90       0x58 lbm/lbm_lib/./build/basic_modem.a(lr_fhss_mac.o)
 .text.lr_fhss_get_hop_sequence_count
                0x0000000008010de8       0x1c lbm/lbm_lib/./build/basic_modem.a(lr_fhss_mac.o)
                0x0000000008010de8                lr_fhss_get_hop_sequence_count
 .text.lr_fhss_process_parameters
                0x0000000008010e04       0x8c lbm/lbm_lib/./build/basic_modem.a(lr_fhss_mac.o)
                0x0000000008010e04                lr_fhss_process_parameters
 .text.lr_fhss_get_hop_params
                0x0000000008010e90       0xdc lbm/lbm_lib/./build/basic_modem.a(lr_fhss_mac.o)
                0x0000000008010e90                lr_fhss_get_hop_params
 .text.lr_fhss_get_next_state
                0x0000000008010f6c       0x2a lbm/lbm_lib/./build/basic_modem.a(lr_fhss_mac.o)
                0x0000000008010f6c                lr_fhss_get_next_state
 .text.lr_fhss_get_next_freq_in_grid
                0x0000000008010f96       0x2a lbm/lbm_lib/./build/basic_modem.a(lr_fhss_mac.o)
                0x0000000008010f96                lr_fhss_get_next_freq_in_grid
 .text.lr_fhss_build_frame
                0x0000000008010fc0      0x3b0 lbm/lbm_lib/./build/basic_modem.a(lr_fhss_mac.o)
                0x0000000008010fc0                lr_fhss_build_frame
 .text.lr_fhss_get_time_on_air_in_ms
                0x0000000008011370       0x18 lbm/lbm_lib/./build/basic_modem.a(lr_fhss_mac.o)
                0x0000000008011370                lr_fhss_get_time_on_air_in_ms
 *(.glue_7)
 .glue_7        0x0000000008011388        0x0 linker stubs
 *(.glue_7t)
 .glue_7t       0x0000000008011388        0x0 linker stubs
 *(.eh_frame)
 .eh_frame      0x0000000008011388        0x0 /usr/lib/gcc/arm-none-eabi/10.3.1/thumb/v6-m/nofp/crtbegin.o
 *(.init)
 .init          0x0000000008011388        0x4 /usr/lib/gcc/arm-none-eabi/10.3.1/thumb/v6-m/nofp/crti.o
                0x0000000008011388                _init
 .init          0x000000000801138c        0x8 /usr/lib/gcc/arm-none-eabi/10.3.1/thumb/v6-m/nofp/crtn.o
 *(.fini)
 .fini          0x0000000008011394        0x4 /usr/lib/gcc/arm-none-eabi/10.3.1/thumb/v6-m/nofp/crti.o
                0x0000000008011394                _fini
 .fini          0x0000000008011398        0x8 /usr/lib/gcc/arm-none-eabi/10.3.1/thumb/v6-m/nofp/crtn.o
                0x00000000080113a0                . = ALIGN (0x4)
                0x00000000080113a0                _etext = .

.vfp11_veneer   0x00000000080113a0        0x0
 .vfp11_veneer  0x00000000080113a0        0x0 linker stubs

.v4_bx          0x00000000080113a0        0x0
 .v4_bx         0x00000000080113a0        0x0 linker stubs

.iplt           0x00000000080113a0        0x0
 .iplt          0x00000000080113a0        0x0 /usr/lib/gcc/arm-none-eabi/10.3.1/thumb/v6-m/nofp/crtbegin.o

.rodata         0x00000000080113a0     0x38d8
                0x00000000080113a0                . = ALIGN (0x4)
 *(.rodata)
 .rodata        0x00000000080113a0        0x3 build_sx1261_l0/sht3x.o
 *fill*         0x00000000080113a3        0x1 
 .rodata        0x00000000080113a4       0x20 build_sx1261_l0/sha256.o
 .rodata        0x00000000080113c4        0xc build_sx1261_l0/smtc_hal_gpio.o
 .rodata        0x00000000080113d0       0x56 build_sx1261_l0/smtc_hal_mcu.o
 .rodata        0x0000000008011426      0x1ce lbm/lbm_lib/./build/basic_modem.a(soft_se.o)
 .rodata        0x00000000080115f4       0x14 lbm/lbm_lib/./build/basic_modem.a(sx126x.o)
 .rodata        0x0000000008011608       0x13 lbm/lbm_lib/./build/basic_modem.a(sx126x_lr_fhss.o)
 .rodata        0x000000000801161b        0xf lbm/lbm_lib/./build/basic_modem.a(lr_fhss_mac.o)
 *fill*         0x000000000801162a        0x2 
 .rodata        0x000000000801162c        0x4 /usr/lib/gcc/arm-none-eabi/10.3.1/../../../arm-none-eabi/lib/thumb/v6-m/nofp/libc_nano.a(lib_a-impure.o)
                0x000000000801162c                _global_impure_ptr
 .rodata        0x0000000008011630       0x84 /usr/lib/gcc/arm-none-eabi/10.3.1/../../../arm-none-eabi/lib/thumb/v6-m/nofp/libc_nano.a(lib_a-nano-vfprintf_i.o)
 .rodata        0x00000000080116b4       0x60 /usr/lib/gcc/arm-none-eabi/10.3.1/../../../arm-none-eabi/lib/thumb/v6-m/nofp/libc_nano.a(lib_a-findfp.o)
                0x00000000080116b4                __sf_fake_stderr
                0x00000000080116d4                __sf_fake_stdout
                0x00000000080116f4                __sf_fake_stdin
 *(.rodata*)
 .rodata.send_uplink_counter_on_port.constprop.0.str1.1
                0x0000000008011714      0x113 build_sx1261_l0/main.o
                                        0x114 (size before relaxing)
 .rodata.modem_event_callback.str1.1
                0x0000000008011827      0x455 build_sx1261_l0/main.o
                                        0x457 (size before relaxing)
 .rodata.main.str1.1
                0x0000000008011c7c       0x86 build_sx1261_l0/main.o
 .rodata.__func__.0
                0x0000000008011d02       0x1c build_sx1261_l0/main.o
 .rodata.__func__.1
                0x0000000008011d1e       0x15 build_sx1261_l0/main.o
 .rodata.settings_init.str1.1
                0x0000000008011d33       0x35 build_sx1261_l0/settings.o
                                         0x36 (size before relaxing)
 .rodata.settings_print.str1.1
                0x0000000008011d68      0x132 build_sx1261_l0/settings.o
 *fill*         0x0000000008011e9a        0x2 
 .rodata.K.0    0x0000000008011e9c      0x100 build_sx1261_l0/sha256.o
 .rodata.AHBPrescTable
                0x0000000008011f9c       0x10 build_sx1261_l0/system_stm32l0xx.o
                0x0000000008011f9c                AHBPrescTable
 .rodata.APBPrescTable
                0x0000000008011fac        0x8 build_sx1261_l0/system_stm32l0xx.o
                0x0000000008011fac                APBPrescTable
 .rodata.PLLMulTable
                0x0000000008011fb4        0x9 build_sx1261_l0/system_stm32l0xx.o
                0x0000000008011fb4                PLLMulTable
 .rodata.hal_eeprom_write_buffer.str1.1
                0x0000000008011fbd       0x20 build_sx1261_l0/smtc_hal_eeprom.o
                                         0x21 (size before relaxing)
 .rodata.__func__.0
                0x0000000008011fdd       0x18 build_sx1261_l0/smtc_hal_eeprom.o
 .rodata.hal_lp_timer_init.str1.1
                0x0000000008011ff5       0x21 build_sx1261_l0/smtc_hal_lp_timer.o
 .rodata.__func__.0
                0x0000000008011ff5       0x19 build_sx1261_l0/smtc_hal_lp_timer.o
 .rodata.__func__.1
                0x000000000801200e       0x18 build_sx1261_l0/smtc_hal_lp_timer.o
 .rodata.__func__.2
                0x0000000008012026       0x12 build_sx1261_l0/smtc_hal_lp_timer.o
 .rodata.__func__.3
                0x0000000008012038       0x13 build_sx1261_l0/smtc_hal_lp_timer.o
 .rodata.__func__.4
                0x000000000801204b       0x12 build_sx1261_l0/smtc_hal_lp_timer.o
 .rodata.__func__.0
                0x000000000801205d       0x14 build_sx1261_l0/smtc_hal_mcu.o
 .rodata.smtc_modem_hal_context_restore.str1.1
                0x0000000008012071       0x21 build_sx1261_l0/smtc_modem_hal.o
 .rodata.smtc_modem_hal_crashlog_store.cst1
                0x0000000008012071        0x1 build_sx1261_l0/smtc_modem_hal.o
 .rodata.smtc_modem_hal_on_panic.str1.1
                0x0000000008012072       0x20 build_sx1261_l0/smtc_modem_hal.o
 .rodata.__func__.1
                0x0000000008012092       0x1d build_sx1261_l0/smtc_modem_hal.o
 .rodata.__func__.2
                0x00000000080120af       0x1f build_sx1261_l0/smtc_modem_hal.o
 .rodata.smtc_modem_init.str1.1
                0x00000000080120ce       0xa2 lbm/lbm_lib/./build/basic_modem.a(smtc_modem.o)
 .rodata.smtc_modem_get_event.str1.1
                0x0000000008012170       0x1f lbm/lbm_lib/./build/basic_modem.a(smtc_modem.o)
 .rodata.__func__.0
                0x000000000801218f       0x15 lbm/lbm_lib/./build/basic_modem.a(smtc_modem.o)
 .rodata.__func__.1
                0x00000000080121a4       0x10 lbm/lbm_lib/./build/basic_modem.a(smtc_modem.o)
 .rodata.get_modem_event_count.str1.1
                0x00000000080121b4        0x1 lbm/lbm_lib/./build/basic_modem.a(modem_event_utilities.o)
 .rodata.__func__.0
                0x00000000080121b4       0x17 lbm/lbm_lib/./build/basic_modem.a(modem_event_utilities.o)
 .rodata.__func__.1
                0x00000000080121cb       0x16 lbm/lbm_lib/./build/basic_modem.a(modem_event_utilities.o)
 .rodata.modem_supervisor_init_callback.str1.1
                0x00000000080121e1        0x1 lbm/lbm_lib/./build/basic_modem.a(modem_supervisor_light.o)
 .rodata.modem_supervisor_engine.str1.1
                0x00000000080121e1       0x2c lbm/lbm_lib/./build/basic_modem.a(modem_supervisor_light.o)
 .rodata.__func__.0
                0x000000000801220d       0x18 lbm/lbm_lib/./build/basic_modem.a(modem_supervisor_light.o)
 .rodata.__func__.1
                0x0000000008012225       0x1f lbm/lbm_lib/./build/basic_modem.a(modem_supervisor_light.o)
 .rodata.launch_tpm_func
                0x0000000008012244       0x10 lbm/lbm_lib/./build/basic_modem.a(modem_tx_protocol_manager.o)
 .rodata.lorawan_certification_service_on_update.str1.1
                0x0000000008012254       0x1b lbm/lbm_lib/./build/basic_modem.a(lorawan_certification.o)
 .rodata.lorawan_certification_service_downlink_handler.str1.1
                0x000000000801226f       0x11 lbm/lbm_lib/./build/basic_modem.a(lorawan_certification.o)
 .rodata.lorawan_certification_services_init.str1.1
                0x0000000008012280       0x23 lbm/lbm_lib/./build/basic_modem.a(lorawan_certification.o)
 .rodata.__func__.0
                0x00000000080122a3       0x28 lbm/lbm_lib/./build/basic_modem.a(lorawan_certification.o)
 .rodata.__func__.1
                0x00000000080122cb       0x28 lbm/lbm_lib/./build/basic_modem.a(lorawan_certification.o)
 .rodata.__func__.2
                0x00000000080122f3       0x24 lbm/lbm_lib/./build/basic_modem.a(lorawan_certification.o)
 *fill*         0x0000000008012317        0x1 
 .rodata.lorawan_certification_periodicity_table_s
                0x0000000008012318       0x16 lbm/lbm_lib/./build/basic_modem.a(lorawan_certification.o)
 .rodata.lorawan_join_internal_add_task.str1.1
                0x000000000801232e       0x36 lbm/lbm_lib/./build/basic_modem.a(lorawan_join_management.o)
 .rodata.lorawan_join_add_task.str1.1
                0x0000000008012364       0x1c lbm/lbm_lib/./build/basic_modem.a(lorawan_join_management.o)
 .rodata.__func__.1
                0x0000000008012380       0x16 lbm/lbm_lib/./build/basic_modem.a(lorawan_join_management.o)
 .rodata.__func__.2
                0x0000000008012396       0x1f lbm/lbm_lib/./build/basic_modem.a(lorawan_join_management.o)
 .rodata.lorawan_send_add_task.str1.1
                0x00000000080123b5       0x36 lbm/lbm_lib/./build/basic_modem.a(lorawan_send_management.o)
                                         0x52 (size before relaxing)
 .rodata.__func__.1
                0x00000000080123eb       0x16 lbm/lbm_lib/./build/basic_modem.a(lorawan_send_management.o)
 .rodata.lorawan_dwn_ack_add_task.str1.1
                0x0000000008012401       0x1c lbm/lbm_lib/./build/basic_modem.a(lorawan_dwn_ack_management.o)
 .rodata.__func__.1
                0x0000000008012401       0x19 lbm/lbm_lib/./build/basic_modem.a(lorawan_dwn_ack_management.o)
 .rodata.smtc_real_init.str1.1
                0x000000000801241a        0x1 lbm/lbm_lib/./build/basic_modem.a(smtc_real.o)
 .rodata.smtc_real_get_symbol_duration_us.str1.1
                0x000000000801241a        0xd lbm/lbm_lib/./build/basic_modem.a(smtc_real.o)
 .rodata.__func__.0
                0x0000000008012427       0x21 lbm/lbm_lib/./build/basic_modem.a(smtc_real.o)
 .rodata.__func__.10
                0x0000000008012448       0x31 lbm/lbm_lib/./build/basic_modem.a(smtc_real.o)
 .rodata.__func__.11
                0x0000000008012479       0x1b lbm/lbm_lib/./build/basic_modem.a(smtc_real.o)
 .rodata.__func__.12
                0x0000000008012494       0x23 lbm/lbm_lib/./build/basic_modem.a(smtc_real.o)
 .rodata.__func__.13
                0x00000000080124b7       0x1e lbm/lbm_lib/./build/basic_modem.a(smtc_real.o)
 .rodata.__func__.14
                0x00000000080124d5       0x1c lbm/lbm_lib/./build/basic_modem.a(smtc_real.o)
 .rodata.__func__.15
                0x00000000080124f1       0x1b lbm/lbm_lib/./build/basic_modem.a(smtc_real.o)
 .rodata.__func__.16
                0x000000000801250c       0x2c lbm/lbm_lib/./build/basic_modem.a(smtc_real.o)
 .rodata.__func__.18
                0x0000000008012538       0x23 lbm/lbm_lib/./build/basic_modem.a(smtc_real.o)
 .rodata.__func__.19
                0x000000000801255b       0x1e lbm/lbm_lib/./build/basic_modem.a(smtc_real.o)
 .rodata.__func__.20
                0x0000000008012579       0x19 lbm/lbm_lib/./build/basic_modem.a(smtc_real.o)
 .rodata.__func__.21
                0x0000000008012592       0x24 lbm/lbm_lib/./build/basic_modem.a(smtc_real.o)
 .rodata.__func__.22
                0x00000000080125b6       0x23 lbm/lbm_lib/./build/basic_modem.a(smtc_real.o)
 .rodata.__func__.23
                0x00000000080125d9       0x20 lbm/lbm_lib/./build/basic_modem.a(smtc_real.o)
 .rodata.__func__.24
                0x00000000080125f9       0x21 lbm/lbm_lib/./build/basic_modem.a(smtc_real.o)
 .rodata.__func__.25
                0x000000000801261a       0x2d lbm/lbm_lib/./build/basic_modem.a(smtc_real.o)
 .rodata.__func__.26
                0x0000000008012647       0x1e lbm/lbm_lib/./build/basic_modem.a(smtc_real.o)
 .rodata.__func__.27
                0x0000000008012665       0x2e lbm/lbm_lib/./build/basic_modem.a(smtc_real.o)
 .rodata.__func__.28
                0x0000000008012693       0x22 lbm/lbm_lib/./build/basic_modem.a(smtc_real.o)
 .rodata.__func__.29
                0x00000000080126b5       0x1d lbm/lbm_lib/./build/basic_modem.a(smtc_real.o)
 .rodata.__func__.30
                0x00000000080126d2       0x30 lbm/lbm_lib/./build/basic_modem.a(smtc_real.o)
 .rodata.__func__.31
                0x0000000008012702       0x2a lbm/lbm_lib/./build/basic_modem.a(smtc_real.o)
 .rodata.__func__.32
                0x000000000801272c       0x1b lbm/lbm_lib/./build/basic_modem.a(smtc_real.o)
 .rodata.__func__.33
                0x0000000008012747       0x22 lbm/lbm_lib/./build/basic_modem.a(smtc_real.o)
 .rodata.__func__.34
                0x0000000008012769       0x23 lbm/lbm_lib/./build/basic_modem.a(smtc_real.o)
 .rodata.__func__.35
                0x000000000801278c       0x20 lbm/lbm_lib/./build/basic_modem.a(smtc_real.o)
 .rodata.__func__.36
                0x00000000080127ac       0x1b lbm/lbm_lib/./build/basic_modem.a(smtc_real.o)
 .rodata.__func__.37
                0x00000000080127c7       0x29 lbm/lbm_lib/./build/basic_modem.a(smtc_real.o)
 .rodata.__func__.38
                0x00000000080127f0       0x19 lbm/lbm_lib/./build/basic_modem.a(smtc_real.o)
 .rodata.__func__.39
                0x0000000008012809       0x11 lbm/lbm_lib/./build/basic_modem.a(smtc_real.o)
 .rodata.__func__.4
                0x000000000801281a       0x1f lbm/lbm_lib/./build/basic_modem.a(smtc_real.o)
 .rodata.__func__.40
                0x0000000008012839        0xf lbm/lbm_lib/./build/basic_modem.a(smtc_real.o)
 .rodata.__func__.5
                0x0000000008012848       0x18 lbm/lbm_lib/./build/basic_modem.a(smtc_real.o)
 .rodata.__func__.6
                0x0000000008012860       0x20 lbm/lbm_lib/./build/basic_modem.a(smtc_real.o)
 .rodata.__func__.7
                0x0000000008012880       0x1e lbm/lbm_lib/./build/basic_modem.a(smtc_real.o)
 .rodata.__func__.8
                0x000000000801289e       0x20 lbm/lbm_lib/./build/basic_modem.a(smtc_real.o)
 .rodata.__func__.9
                0x00000000080128be       0x1d lbm/lbm_lib/./build/basic_modem.a(smtc_real.o)
 .rodata.smtc_duty_cycle_config.str1.1
                0x00000000080128db        0x1 lbm/lbm_lib/./build/basic_modem.a(smtc_duty_cycle.o)
 .rodata.__func__.0
                0x00000000080128db       0x26 lbm/lbm_lib/./build/basic_modem.a(smtc_duty_cycle.o)
 .rodata.__func__.1
                0x0000000008012901       0x17 lbm/lbm_lib/./build/basic_modem.a(smtc_duty_cycle.o)
 .rodata.smtc_lbt_launch_callback_for_rp.str1.1
                0x0000000008012918      0x20b lbm/lbm_lib/./build/basic_modem.a(smtc_lbt.o)
 .rodata.smtc_lbt_init.str1.1
                0x0000000008012b23        0xe lbm/lbm_lib/./build/basic_modem.a(smtc_lbt.o)
 .rodata.smtc_lbt_listen_channel.str1.1
                0x0000000008012b31       0x4b lbm/lbm_lib/./build/basic_modem.a(smtc_lbt.o)
 .rodata.__func__.0
                0x0000000008012b7c       0x18 lbm/lbm_lib/./build/basic_modem.a(smtc_lbt.o)
 .rodata.__func__.1
                0x0000000008012b94       0x20 lbm/lbm_lib/./build/basic_modem.a(smtc_lbt.o)
 .rodata.__func__.2
                0x0000000008012bb4        0xe lbm/lbm_lib/./build/basic_modem.a(smtc_lbt.o)
 .rodata.ral_sx126x_handles_part.str1.1
                0x0000000008012bc2        0xe lbm/lbm_lib/./build/basic_modem.a(ral_sx126x.o)
 .rodata.ral_sx126x_convert_tx_dbm_to_ua_reg_mode_dcdc_hp
                0x0000000008012bd0       0x80 lbm/lbm_lib/./build/basic_modem.a(ral_sx126x.o)
 .rodata.ral_sx126x_convert_tx_dbm_to_ua_reg_mode_dcdc_lp
                0x0000000008012c50       0x84 lbm/lbm_lib/./build/basic_modem.a(ral_sx126x.o)
 .rodata.ral_sx126x_convert_tx_dbm_to_ua_reg_mode_ldo_hp
                0x0000000008012cd4       0x80 lbm/lbm_lib/./build/basic_modem.a(ral_sx126x.o)
 .rodata.ral_sx126x_convert_tx_dbm_to_ua_reg_mode_ldo_lp
                0x0000000008012d54       0x84 lbm/lbm_lib/./build/basic_modem.a(ral_sx126x.o)
 .rodata.rp_hook_callback.str1.1
                0x0000000008012dd8        0x1 lbm/lbm_lib/./build/basic_modem.a(radio_planner.o)
 .rodata.rp_task_arbiter.constprop.0.str1.1
                0x0000000008012dd8       0xb7 lbm/lbm_lib/./build/basic_modem.a(radio_planner.o)
 .rodata.rp_task_enqueue.str1.1
                0x0000000008012e8f        0xf lbm/lbm_lib/./build/basic_modem.a(radio_planner.o)
 .rodata.rp_get_pkt_payload.str1.1
                0x0000000008012e9e      0x1c1 lbm/lbm_lib/./build/basic_modem.a(radio_planner.o)
 .rodata.rp_callback.str1.1
                0x000000000801305f      0x26f lbm/lbm_lib/./build/basic_modem.a(radio_planner.o)
 .rodata.__func__.0
                0x00000000080132ce       0x13 lbm/lbm_lib/./build/basic_modem.a(radio_planner.o)
 .rodata.__func__.1
                0x00000000080132e1       0x12 lbm/lbm_lib/./build/basic_modem.a(radio_planner.o)
 .rodata.__func__.10
                0x00000000080132f3        0xf lbm/lbm_lib/./build/basic_modem.a(radio_planner.o)
 .rodata.__func__.11
                0x0000000008013302       0x10 lbm/lbm_lib/./build/basic_modem.a(radio_planner.o)
 .rodata.__func__.12
                0x0000000008013312        0xd lbm/lbm_lib/./build/basic_modem.a(radio_planner.o)
 .rodata.__func__.3
                0x000000000801331f        0xc lbm/lbm_lib/./build/basic_modem.a(radio_planner.o)
 .rodata.__func__.5
                0x000000000801332b        0xe lbm/lbm_lib/./build/basic_modem.a(radio_planner.o)
 .rodata.__func__.6
                0x0000000008013339        0xe lbm/lbm_lib/./build/basic_modem.a(radio_planner.o)
 .rodata.__func__.7
                0x0000000008013347       0x11 lbm/lbm_lib/./build/basic_modem.a(radio_planner.o)
 .rodata.__func__.8
                0x0000000008013358       0x10 lbm/lbm_lib/./build/basic_modem.a(radio_planner.o)
 .rodata.__func__.9
                0x0000000008013368       0x10 lbm/lbm_lib/./build/basic_modem.a(radio_planner.o)
 .rodata.lorawan_api_init.str1.1
                0x0000000008013378       0x1c lbm/lbm_lib/./build/basic_modem.a(lorawan_api.o)
 .rodata.__func__.16
                0x0000000008013378       0x2c lbm/lbm_lib/./build/basic_modem.a(lorawan_api.o)
 .rodata.__func__.17
                0x00000000080133a4       0x1d lbm/lbm_lib/./build/basic_modem.a(lorawan_api.o)
 .rodata.__func__.24
                0x00000000080133c1       0x1a lbm/lbm_lib/./build/basic_modem.a(lorawan_api.o)
 .rodata.__func__.26
                0x00000000080133db       0x2b lbm/lbm_lib/./build/basic_modem.a(lorawan_api.o)
 .rodata.__func__.27
                0x0000000008013406       0x24 lbm/lbm_lib/./build/basic_modem.a(lorawan_api.o)
 .rodata.__func__.31
                0x000000000801342a       0x32 lbm/lbm_lib/./build/basic_modem.a(lorawan_api.o)
 .rodata.__func__.50
                0x000000000801345c       0x30 lbm/lbm_lib/./build/basic_modem.a(lorawan_api.o)
 .rodata.__func__.52
                0x000000000801348c       0x26 lbm/lbm_lib/./build/basic_modem.a(lorawan_api.o)
 .rodata.__func__.56
                0x00000000080134b2       0x33 lbm/lbm_lib/./build/basic_modem.a(lorawan_api.o)
 .rodata.__func__.6
                0x00000000080134e5       0x26 lbm/lbm_lib/./build/basic_modem.a(lorawan_api.o)
 .rodata.__func__.62
                0x000000000801350b       0x17 lbm/lbm_lib/./build/basic_modem.a(lorawan_api.o)
 .rodata.__func__.63
                0x0000000008013522       0x17 lbm/lbm_lib/./build/basic_modem.a(lorawan_api.o)
 .rodata.__func__.64
                0x0000000008013539       0x18 lbm/lbm_lib/./build/basic_modem.a(lorawan_api.o)
 .rodata.__func__.66
                0x0000000008013551       0x17 lbm/lbm_lib/./build/basic_modem.a(lorawan_api.o)
 .rodata.__func__.7
                0x0000000008013568       0x2a lbm/lbm_lib/./build/basic_modem.a(lorawan_api.o)
 .rodata.__func__.70
                0x0000000008013592       0x28 lbm/lbm_lib/./build/basic_modem.a(lorawan_api.o)
 .rodata.__func__.71
                0x00000000080135ba       0x20 lbm/lbm_lib/./build/basic_modem.a(lorawan_api.o)
 .rodata.__func__.72
                0x00000000080135da       0x20 lbm/lbm_lib/./build/basic_modem.a(lorawan_api.o)
 .rodata.__func__.75
                0x00000000080135fa       0x14 lbm/lbm_lib/./build/basic_modem.a(lorawan_api.o)
 .rodata.__func__.78
                0x000000000801360e       0x1a lbm/lbm_lib/./build/basic_modem.a(lorawan_api.o)
 .rodata.__func__.8
                0x0000000008013628       0x27 lbm/lbm_lib/./build/basic_modem.a(lorawan_api.o)
 .rodata.__func__.80
                0x000000000801364f       0x1c lbm/lbm_lib/./build/basic_modem.a(lorawan_api.o)
 .rodata.__func__.81
                0x000000000801366b       0x1e lbm/lbm_lib/./build/basic_modem.a(lorawan_api.o)
 .rodata.__func__.82
                0x0000000008013689       0x15 lbm/lbm_lib/./build/basic_modem.a(lorawan_api.o)
 .rodata.__func__.83
                0x000000000801369e       0x11 lbm/lbm_lib/./build/basic_modem.a(lorawan_api.o)
 .rodata.__func__.84
                0x00000000080136af       0x1f lbm/lbm_lib/./build/basic_modem.a(lorawan_api.o)
 .rodata.__func__.86
                0x00000000080136ce       0x19 lbm/lbm_lib/./build/basic_modem.a(lorawan_api.o)
 .rodata.__func__.87
                0x00000000080136e7       0x17 lbm/lbm_lib/./build/basic_modem.a(lorawan_api.o)
 .rodata.__func__.88
                0x00000000080136fe       0x17 lbm/lbm_lib/./build/basic_modem.a(lorawan_api.o)
 .rodata.__func__.89
                0x0000000008013715       0x11 lbm/lbm_lib/./build/basic_modem.a(lorawan_api.o)
 .rodata.__func__.9
                0x0000000008013726       0x1f lbm/lbm_lib/./build/basic_modem.a(lorawan_api.o)
 *fill*         0x0000000008013745        0x3 
 .rodata.duty_cycle_by_band_eu_868
                0x0000000008013748        0xc lbm/lbm_lib/./build/basic_modem.a(lorawan_api.o)
 .rodata.frequency_range_by_band_eu_868
                0x0000000008013754       0x30 lbm/lbm_lib/./build/basic_modem.a(lorawan_api.o)
 .rodata.test_mode_cw_callback_for_rp.str1.1
                0x0000000008013784       0xb4 lbm/lbm_lib/./build/basic_modem.a(smtc_modem_test.o)
 .rodata.__func__.0
                0x0000000008013838       0x1d lbm/lbm_lib/./build/basic_modem.a(smtc_modem_test.o)
 *fill*         0x0000000008013855        0x3 
 .rodata.gfm2_sbox
                0x0000000008013858      0x100 lbm/lbm_lib/./build/basic_modem.a(aes.o)
 .rodata.gfm3_sbox
                0x0000000008013958      0x100 lbm/lbm_lib/./build/basic_modem.a(aes.o)
 .rodata.sbox   0x0000000008013a58      0x100 lbm/lbm_lib/./build/basic_modem.a(aes.o)
 .rodata.region_eu_868_get_modulation_type_from_datarate.str1.1
                0x0000000008013b58        0x6 lbm/lbm_lib/./build/basic_modem.a(region_eu_868.o)
 .rodata.region_eu_868_lora_dr_to_sf_bw.str1.1
                0x0000000008013b5e        0x1 lbm/lbm_lib/./build/basic_modem.a(region_eu_868.o)
 *fill*         0x0000000008013b5e        0x2 
 .rodata.DEFAULT_DR_DISTRIBUTION_EU_868
                0x0000000008013b60        0xc lbm/lbm_lib/./build/basic_modem.a(region_eu_868.o)
 .rodata.JOIN_DR_DISTRIBUTION_EU_868
                0x0000000008013b6c        0xc lbm/lbm_lib/./build/basic_modem.a(region_eu_868.o)
 .rodata.MOBILE_LONGRANGE_DR_DISTRIBUTION_EU_868
                0x0000000008013b78        0xc lbm/lbm_lib/./build/basic_modem.a(region_eu_868.o)
 .rodata.MOBILE_LOWPER_DR_DISTRIBUTION_EU_868
                0x0000000008013b84        0xc lbm/lbm_lib/./build/basic_modem.a(region_eu_868.o)
 .rodata.M_eu_868
                0x0000000008013b90        0xc lbm/lbm_lib/./build/basic_modem.a(region_eu_868.o)
 .rodata.SYNC_WORD_GFSK_EU_868
                0x0000000008013b9c        0x3 lbm/lbm_lib/./build/basic_modem.a(region_eu_868.o)
 *fill*         0x0000000008013b9f        0x1 
 .rodata.SYNC_WORD_LR_FHSS_EU_868
                0x0000000008013ba0        0x4 lbm/lbm_lib/./build/basic_modem.a(region_eu_868.o)
 .rodata.__func__.0
                0x0000000008013ba4       0x22 lbm/lbm_lib/./build/basic_modem.a(region_eu_868.o)
 .rodata.__func__.1
                0x0000000008013bc6       0x20 lbm/lbm_lib/./build/basic_modem.a(region_eu_868.o)
 .rodata.__func__.2
                0x0000000008013be6       0x1f lbm/lbm_lib/./build/basic_modem.a(region_eu_868.o)
 .rodata.__func__.3
                0x0000000008013c05       0x30 lbm/lbm_lib/./build/basic_modem.a(region_eu_868.o)
 *fill*         0x0000000008013c35        0x3 
 .rodata.datarate_backoff_eu_868
                0x0000000008013c38        0xc lbm/lbm_lib/./build/basic_modem.a(region_eu_868.o)
 .rodata.datarate_offsets_eu_868
                0x0000000008013c44       0x48 lbm/lbm_lib/./build/basic_modem.a(region_eu_868.o)
 .rodata.datarates_to_bandwidths_eu_868
                0x0000000008013c8c       0x1c lbm/lbm_lib/./build/basic_modem.a(region_eu_868.o)
 .rodata.datarates_to_lr_fhss_bw_eu_868
                0x0000000008013ca8       0x30 lbm/lbm_lib/./build/basic_modem.a(region_eu_868.o)
 .rodata.datarates_to_lr_fhss_cr_eu_868
                0x0000000008013cd8       0x30 lbm/lbm_lib/./build/basic_modem.a(region_eu_868.o)
 .rodata.datarates_to_sf_eu_868
                0x0000000008013d08        0x7 lbm/lbm_lib/./build/basic_modem.a(region_eu_868.o)
 *fill*         0x0000000008013d0f        0x1 
 .rodata.default_freq_eu_868
                0x0000000008013d10        0xc lbm/lbm_lib/./build/basic_modem.a(region_eu_868.o)
 .rodata.duty_cycle_by_band_eu_868
                0x0000000008013d1c        0xc lbm/lbm_lib/./build/basic_modem.a(region_eu_868.o)
 .rodata.frequency_range_by_band_eu_868
                0x0000000008013d28       0x30 lbm/lbm_lib/./build/basic_modem.a(region_eu_868.o)
 .rodata.lr1_stack_mac_tx_lora_launch_callback_for_rp.str1.1
                0x0000000008013d58       0xed lbm/lbm_lib/./build/basic_modem.a(lr1_stack_mac_layer.o)
                                        0x13a (size before relaxing)
 .rodata.lr1_stack_mac_rx_lora_launch_callback_for_rp.str1.1
                0x0000000008013e45      0x13a lbm/lbm_lib/./build/basic_modem.a(lr1_stack_mac_layer.o)
 .rodata.lr1_stack_mac_rx_gfsk_launch_callback_for_rp.str1.1
                0x0000000008013f7f       0xc9 lbm/lbm_lib/./build/basic_modem.a(lr1_stack_mac_layer.o)
 .rodata.lr1_stack_mac_tx_lr_fhss_launch_callback_for_rp.str1.1
                0x0000000008014048      0x2a0 lbm/lbm_lib/./build/basic_modem.a(lr1_stack_mac_layer.o)
 .rodata.lr1_stack_mac_tx_gfsk_launch_callback_for_rp.str1.1
                0x00000000080142e8       0x4d lbm/lbm_lib/./build/basic_modem.a(lr1_stack_mac_layer.o)
 .rodata.lr1_stack_mac_tx_frame_encrypt.str1.1
                0x0000000008014335       0x4d lbm/lbm_lib/./build/basic_modem.a(lr1_stack_mac_layer.o)
 .rodata.lr1_stack_mac_tx_radio_start.str1.1
                0x0000000008014382       0xa6 lbm/lbm_lib/./build/basic_modem.a(lr1_stack_mac_layer.o)
                                         0xa7 (size before relaxing)
 .rodata.lr1_stack_mac_rx_radio_start.str1.1
                0x0000000008014428       0x13 lbm/lbm_lib/./build/basic_modem.a(lr1_stack_mac_layer.o)
                                         0x2d (size before relaxing)
 .rodata.lr1_stack_mac_join_request_build.str1.1
                0x000000000801443b       0x2a lbm/lbm_lib/./build/basic_modem.a(lr1_stack_mac_layer.o)
 .rodata.lr1_stack_mac_update.str1.1
                0x0000000008014465       0x55 lbm/lbm_lib/./build/basic_modem.a(lr1_stack_mac_layer.o)
 .rodata.lr1_stack_mac_rx_frame_decode.str1.1
                0x00000000080144ba       0x3b lbm/lbm_lib/./build/basic_modem.a(lr1_stack_mac_layer.o)
 .rodata.__func__.0
                0x00000000080144f5       0x12 lbm/lbm_lib/./build/basic_modem.a(lr1_stack_mac_layer.o)
 .rodata.__func__.1
                0x0000000008014507       0x21 lbm/lbm_lib/./build/basic_modem.a(lr1_stack_mac_layer.o)
 .rodata.__func__.10
                0x0000000008014528       0x30 lbm/lbm_lib/./build/basic_modem.a(lr1_stack_mac_layer.o)
 .rodata.__func__.11
                0x0000000008014558       0x2d lbm/lbm_lib/./build/basic_modem.a(lr1_stack_mac_layer.o)
 .rodata.__func__.12
                0x0000000008014585       0x2d lbm/lbm_lib/./build/basic_modem.a(lr1_stack_mac_layer.o)
 .rodata.__func__.13
                0x00000000080145b2       0x1f lbm/lbm_lib/./build/basic_modem.a(lr1_stack_mac_layer.o)
 .rodata.__func__.2
                0x00000000080145d1       0x15 lbm/lbm_lib/./build/basic_modem.a(lr1_stack_mac_layer.o)
 .rodata.__func__.3
                0x00000000080145e6       0x1e lbm/lbm_lib/./build/basic_modem.a(lr1_stack_mac_layer.o)
 .rodata.__func__.4
                0x0000000008014604       0x21 lbm/lbm_lib/./build/basic_modem.a(lr1_stack_mac_layer.o)
 .rodata.__func__.5
                0x0000000008014625       0x1a lbm/lbm_lib/./build/basic_modem.a(lr1_stack_mac_layer.o)
 .rodata.__func__.6
                0x000000000801463f       0x1d lbm/lbm_lib/./build/basic_modem.a(lr1_stack_mac_layer.o)
 .rodata.__func__.7
                0x000000000801465c       0x1d lbm/lbm_lib/./build/basic_modem.a(lr1_stack_mac_layer.o)
 .rodata.__func__.8
                0x0000000008014679       0x2d lbm/lbm_lib/./build/basic_modem.a(lr1_stack_mac_layer.o)
 .rodata.__func__.9
                0x00000000080146a6       0x2d lbm/lbm_lib/./build/basic_modem.a(lr1_stack_mac_layer.o)
 *fill*         0x00000000080146d3        0x1 
 .rodata.smtc_real_max_eirp_dbm_from_idx
                0x00000000080146d4       0x10 lbm/lbm_lib/./build/basic_modem.a(lr1_stack_mac_layer.o)
 .rodata.lr1mac_core_process.str1.1
                0x00000000080146e4       0x4c lbm/lbm_lib/./build/basic_modem.a(lr1mac_core.o)
 .rodata.__func__.0
                0x0000000008014730       0x14 lbm/lbm_lib/./build/basic_modem.a(lr1mac_core.o)
 .rodata.lr1mac_cmd_mac_ans_size
                0x0000000008014744       0x14 lbm/lbm_lib/./build/basic_modem.a(lr1mac_utilities.o)
 .rodata.sx126x_set_fs.str1.1
                0x0000000008014758        0x2 lbm/lbm_lib/./build/basic_modem.a(sx126x.o)
 .rodata.sx126x_set_cad.str1.1
                0x000000000801475a        0x2 lbm/lbm_lib/./build/basic_modem.a(sx126x.o)
 .rodata.sx126x_set_tx_cw.str1.1
                0x000000000801475c        0x2 lbm/lbm_lib/./build/basic_modem.a(sx126x.o)
 .rodata.sx126x_set_tx_infinite_preamble.str1.1
                0x000000000801475e        0x2 lbm/lbm_lib/./build/basic_modem.a(sx126x.o)
 .rodata.sx126x_set_lora_symb_nb_timeout.cst1
                0x0000000008014760        0x1 lbm/lbm_lib/./build/basic_modem.a(sx126x.o)
 .rodata.sx126x_get_status.str1.1
                0x0000000008014761        0x2 lbm/lbm_lib/./build/basic_modem.a(sx126x.o)
 .rodata.CSWTCH.31
                0x0000000008014763        0x7 lbm/lbm_lib/./build/basic_modem.a(sx126x.o)
 *fill*         0x000000000801476a        0x2 
 .rodata.CSWTCH.86
                0x000000000801476c       0x2c lbm/lbm_lib/./build/basic_modem.a(sx126x.o)
 .rodata.CSWTCH.42
                0x0000000008014798        0x3 lbm/lbm_lib/./build/basic_modem.a(lr_fhss_mac.o)
 *fill*         0x000000000801479b        0x1 
 .rodata.lr_fhss_channel_count
                0x000000000801479c       0x14 lbm/lbm_lib/./build/basic_modem.a(lr_fhss_mac.o)
 .rodata.lr_fhss_header_crc8_lut
                0x00000000080147b0      0x100 lbm/lbm_lib/./build/basic_modem.a(lr_fhss_mac.o)
                0x00000000080147b0                lr_fhss_header_crc8_lut
 .rodata.lr_fhss_header_interleaver_minus_one
                0x00000000080148b0       0x50 lbm/lbm_lib/./build/basic_modem.a(lr_fhss_mac.o)
 .rodata.lr_fhss_lfsr_poly1
                0x0000000008014900        0x6 lbm/lbm_lib/./build/basic_modem.a(lr_fhss_mac.o)
 *fill*         0x0000000008014906        0x2 
 .rodata.lr_fhss_lfsr_poly2
                0x0000000008014908        0x4 lbm/lbm_lib/./build/basic_modem.a(lr_fhss_mac.o)
 .rodata.lr_fhss_lfsr_poly3
                0x000000000801490c        0x2 lbm/lbm_lib/./build/basic_modem.a(lr_fhss_mac.o)
 *fill*         0x000000000801490e        0x2 
 .rodata.lr_fhss_payload_crc16_lut
                0x0000000008014910      0x200 lbm/lbm_lib/./build/basic_modem.a(lr_fhss_mac.o)
                0x0000000008014910                lr_fhss_payload_crc16_lut
 .rodata.lr_fhss_viterbi_1_2_table
                0x0000000008014b10       0x20 lbm/lbm_lib/./build/basic_modem.a(lr_fhss_mac.o)
 .rodata.lr_fhss_viterbi_1_3_table
                0x0000000008014b30       0x80 lbm/lbm_lib/./build/basic_modem.a(lr_fhss_mac.o)
 .rodata.str1.4
                0x0000000008014bb0       0x4a /usr/lib/gcc/arm-none-eabi/10.3.1/../../../arm-none-eabi/lib/thumb/v6-m/nofp/libc_nano.a(lib_a-rand.o)
 *fill*         0x0000000008014bfa        0x2 
 .rodata.str1.4
                0x0000000008014bfc       0x3f /usr/lib/gcc/arm-none-eabi/10.3.1/../../../arm-none-eabi/lib/thumb/v6-m/nofp/libc_nano.a(lib_a-assert.o)
                                         0x43 (size before relaxing)
 *fill*         0x0000000008014c3b        0x1 
 .rodata.str1.4
                0x0000000008014c3c       0x13 /usr/lib/gcc/arm-none-eabi/10.3.1/../../../arm-none-eabi/lib/thumb/v6-m/nofp/libc_nano.a(lib_a-nano-svfprintf.o)
 .rodata.str1.4
                0x0000000008014c4f       0x13 /usr/lib/gcc/arm-none-eabi/10.3.1/../../../arm-none-eabi/lib/thumb/v6-m/nofp/libc_nano.a(lib_a-nano-vfprintf.o)
 *fill*         0x0000000008014c4f        0x1 
 .rodata.str1.4
                0x0000000008014c50       0x25 /usr/lib/gcc/arm-none-eabi/10.3.1/../../../arm-none-eabi/lib/thumb/v6-m/nofp/libc_nano.a(lib_a-nano-vfprintf_i.o)
                0x0000000008014c78                . = ALIGN (0x4)
 *fill*         0x0000000008014c75        0x3 

.ARM.extab
 *(.ARM.extab* .gnu.linkonce.armextab.*)

.ARM            0x0000000008014c78        0x8
                0x0000000008014c78                __exidx_start = .
 *(.ARM.exidx*)
 .ARM.exidx     0x0000000008014c78        0x8 /usr/lib/gcc/arm-none-eabi/10.3.1/thumb/v6-m/nofp/libgcc.a(_udivmoddi4.o)
                0x0000000008014c80                __exidx_end = .

.rel.dyn        0x0000000008014c80        0x0
 .rel.iplt      0x0000000008014c80        0x0 /usr/lib/gcc/arm-none-eabi/10.3.1/thumb/v6-m/nofp/crtbegin.o

.preinit_array  0x0000000008014c80        0x0
                0x0000000008014c80                PROVIDE (__preinit_array_start = .)
 *(.preinit_array*)
                0x0000000008014c80                PROVIDE (__preinit_array_end = .)

.init_array     0x0000000008014c80        0x4
                0x0000000008014c80                PROVIDE (__init_array_start = .)
 *(SORT_BY_NAME(.init_array.*))
 *(.init_array*)
 .init_array    0x0000000008014c80        0x4 /usr/lib/gcc/arm-none-eabi/10.3.1/thumb/v6-m/nofp/crtbegin.o
                0x0000000008014c84                PROVIDE (__init_array_end = .)

.fini_array     0x0000000008014c84        0x4
                0x0000000008014c84                PROVIDE (__fini_array_start = .)
 *(SORT_BY_NAME(.fini_array.*))
 *(.fini_array*)
 .fini_array    0x0000000008014c84        0x4 /usr/lib/gcc/arm-none-eabi/10.3.1/thumb/v6-m/nofp/crtbegin.o
                0x0000000008014c88                PROVIDE (__fini_array_end = .)
                0x0000000008014c88                _sidata = LOADADDR (.data)

.data           0x0000000020000000      0x22c load address 0x0000000008014c88
                0x0000000020000000                . = ALIGN (0x4)
                0x0000000020000000                _sdata = .
 *(.data)
 .data          0x0000000020000000       0x64 /usr/lib/gcc/arm-none-eabi/10.3.1/../../../arm-none-eabi/lib/thumb/v6-m/nofp/libc_nano.a(lib_a-impure.o)
                0x0000000020000000                _impure_ptr
 *(.data*)
 .data.SystemCoreClock
                0x0000000020000064        0x4 build_sx1261_l0/system_stm32l0xx.o
                0x0000000020000064                SystemCoreClock
 .data.radio_mode
                0x0000000020000068        0x1 build_sx1261_l0/sx126x_hal.o
 *fill*         0x0000000020000069        0x3 
 .data.modem_radio
                0x000000002000006c      0x110 lbm/lbm_lib/./build/basic_modem.a(smtc_modem.o)
                0x000000002000006c                modem_radio
 .data.modem_service_config
                0x000000002000017c        0x8 lbm/lbm_lib/./build/basic_modem.a(modem_core.o)
 .data.gfsk_bw  0x0000000020000184       0xa8 lbm/lbm_lib/./build/basic_modem.a(sx126x.o)
                0x0000000020000184                gfsk_bw
                0x000000002000022c                . = ALIGN (0x4)
                0x000000002000022c                _edata = .

.tm_clone_table
                0x000000002000022c        0x0 load address 0x0000000008014eb4
 .tm_clone_table
                0x000000002000022c        0x0 /usr/lib/gcc/arm-none-eabi/10.3.1/thumb/v6-m/nofp/crtbegin.o
 .tm_clone_table
                0x000000002000022c        0x0 /usr/lib/gcc/arm-none-eabi/10.3.1/thumb/v6-m/nofp/crtend.o

.igot.plt       0x000000002000022c        0x0 load address 0x0000000008014eb4
 .igot.plt      0x000000002000022c        0x0 /usr/lib/gcc/arm-none-eabi/10.3.1/thumb/v6-m/nofp/crtbegin.o
                0x000000002000022c                . = ALIGN (0x4)

.bss            0x000000002000022c     0x1ac8 load address 0x0000000008014eb4
                0x000000002000022c                _sbss = .
                0x000000002000022c                __bss_start__ = _sbss
 *(.bss)
 .bss           0x000000002000022c       0x1c /usr/lib/gcc/arm-none-eabi/10.3.1/thumb/v6-m/nofp/crtbegin.o
 .bss           0x0000000020000248        0x8 /usr/lib/gcc/arm-none-eabi/10.3.1/../../../arm-none-eabi/lib/thumb/v6-m/nofp/libc_nano.a(lib_a-nano-mallocr.o)
                0x0000000020000248                __malloc_free_list
                0x000000002000024c                __malloc_sbrk_start
 .bss           0x0000000020000250        0x4 /usr/lib/gcc/arm-none-eabi/10.3.1/../../../arm-none-eabi/lib/thumb/v6-m/nofp/libc_nano.a(lib_a-reent.o)
                0x0000000020000250                errno
 .bss           0x0000000020000254        0x4 /usr/lib/gcc/arm-none-eabi/10.3.1/../../../arm-none-eabi/lib/thumb/v6-m/nofp/libnosys.a(sbrk.o)
 *(.bss*)
 .bss.rx_metadata
                0x0000000020000258       0x10 build_sx1261_l0/main.o
 .bss.rx_payload
                0x0000000020000268       0xf2 build_sx1261_l0/main.o
 .bss.rx_payload_size
                0x000000002000035a        0x1 build_sx1261_l0/main.o
 .bss.rx_remaining
                0x000000002000035b        0x1 build_sx1261_l0/main.o
 .bss.transmission_flag
                0x000000002000035c        0x1 build_sx1261_l0/main.o
 *fill*         0x000000002000035d        0x3 
 .bss.transmission_timer
                0x0000000020000360       0x18 build_sx1261_l0/main.o
 .bss.uplink_counter
                0x0000000020000378        0x4 build_sx1261_l0/main.o
 .bss._max_expected_busy_time
                0x000000002000037c        0x4 build_sx1261_l0/mx25.o
 .bss.cs        0x0000000020000380        0x1 build_sx1261_l0/mx25.o
 .bss.address   0x0000000020000381        0x1 build_sx1261_l0/sht3x.o
 *fill*         0x0000000020000382        0x2 
 .bss.keys      0x0000000020000384       0x40 build_sx1261_l0/settings.o
                0x0000000020000384                keys
 .bss.settings  0x00000000200003c4       0x28 build_sx1261_l0/settings.o
                0x00000000200003c4                settings
 .bss.TimerListHead
                0x00000000200003ec        0x4 build_sx1261_l0/timer.o
 .bss.context   0x00000000200003f0        0x4 build_sx1261_l0/timer_rtc.o
 .bss.wakeup_timer_rounds
                0x00000000200003f4        0x4 build_sx1261_l0/timer_rtc.o
 .bss.gpio_irq  0x00000000200003f8       0x40 build_sx1261_l0/smtc_hal_gpio.o
 .bss.lptim_tmr_irq
                0x0000000020000438        0x8 build_sx1261_l0/smtc_hal_lp_timer.o
 .bss.offset_to_test_wrapping
                0x0000000020000440        0x4 build_sx1261_l0/smtc_hal_rtc.o
 .bss.wut       0x0000000020000444       0x18 build_sx1261_l0/smtc_hal_mcu.o
 .bss.wut_flag  0x000000002000045c        0x1 build_sx1261_l0/smtc_hal_mcu.o
 .bss.i2c_internal_addr_size
                0x000000002000045d        0x1 build_sx1261_l0/smtc_hal_i2c.o
 *fill*         0x000000002000045e        0x2 
 .bss.radio_dio_irq
                0x0000000020000460        0xc build_sx1261_l0/smtc_modem_hal.o
 .bss.board_tx_pwr_offset_db
                0x000000002000046c        0x1 build_sx1261_l0/radio_utilities.o
 *fill*         0x000000002000046d        0x3 
 .bss.modem_radio_planner
                0x0000000020000470      0x4dc lbm/lbm_lib/./build/basic_modem.a(smtc_modem.o)
                0x0000000020000470                modem_radio_planner
 .bss.modem_event_ctx
                0x000000002000094c       0x7c lbm/lbm_lib/./build/basic_modem.a(modem_event_utilities.o)
                0x000000002000094c                modem_event_ctx
 .bss.modem_ctx_light
                0x00000000200009c8      0x34c lbm/lbm_lib/./build/basic_modem.a(modem_core.o)
                0x00000000200009c8                modem_ctx_light
 .bss.modem_supervisor_context
                0x0000000020000d14       0xc8 lbm/lbm_lib/./build/basic_modem.a(modem_supervisor_light.o)
                0x0000000020000d14                modem_supervisor_context
 .bss.modem_tpm_context
                0x0000000020000ddc      0x130 lbm/lbm_lib/./build/basic_modem.a(modem_tx_protocol_manager.o)
 .bss.certif_service_ctx
                0x0000000020000f0c      0x114 lbm/lbm_lib/./build/basic_modem.a(lorawan_certification.o)
 .bss.nap       0x0000000020001020        0x1 lbm/lbm_lib/./build/basic_modem.a(lorawan_join_management.o)
 .bss.lorawan_send_management_obj
                0x0000000020001021       0xf7 lbm/lbm_lib/./build/basic_modem.a(lorawan_send_management.o)
 .bss.soft_se_data
                0x0000000020001118      0x1ce lbm/lbm_lib/./build/basic_modem.a(soft_se.o)
 *fill*         0x00000000200012e6        0x2 
 .bss.dtc_context
                0x00000000200012e8      0x1e8 lbm/lbm_lib/./build/basic_modem.a(smtc_duty_cycle.o)
 .bss.lbt_obj_declare
                0x00000000200014d0       0x40 lbm/lbm_lib/./build/basic_modem.a(smtc_lbt.o)
 .bss.lr1mac_core_context
                0x0000000020001510      0x690 lbm/lbm_lib/./build/basic_modem.a(lorawan_api.o)
 .bss.modem_test_context
                0x0000000020001ba0      0x154 lbm/lbm_lib/./build/basic_modem.a(smtc_modem_test.o)
                0x0000000020001ba0                modem_test_context
 *(COMMON)
                0x0000000020001cf4                . = ALIGN (0x4)
                0x0000000020001cf4                _ebss = .
                0x0000000020001cf4                __bss_end__ = _ebss

.noinit         0x0000000020001cf4       0xf4 load address 0x0000000008014eb4
 .noinit        0x0000000020001cf4       0xf4 build_sx1261_l0/smtc_modem_hal.o

._user_heap_stack
                0x0000000020001de8      0x600 load address 0x0000000008014eb4
                0x0000000020001de8                . = ALIGN (0x4)
                0x0000000020001de8                PROVIDE (end = .)
                [!provide]                        PROVIDE (_end = .)
                0x0000000020001fe8                . = (. + _Min_Heap_Size)
 *fill*         0x0000000020001de8      0x200 
                0x00000000200023e8                . = (. + _Min_Stack_Size)
 *fill*         0x0000000020001fe8      0x400 
                0x00000000200023e8                . = ALIGN (0x4)

/DISCARD/
 libc.a(*)
 libm.a(*)
 libgcc.a(*)

.ARM.attributes
                0x0000000000000000       0x28
 *(.ARM.attributes)
 .ARM.attributes
                0x0000000000000000       0x1e /usr/lib/gcc/arm-none-eabi/10.3.1/thumb/v6-m/nofp/crti.o
 .ARM.attributes
                0x000000000000001e       0x2c /usr/lib/gcc/arm-none-eabi/10.3.1/thumb/v6-m/nofp/crtbegin.o
 .ARM.attributes
                0x000000000000004a       0x28 build_sx1261_l0/main.o
 .ARM.attributes
                0x0000000000000072       0x28 build_sx1261_l0/mx25.o
 .ARM.attributes
                0x000000000000009a       0x28 build_sx1261_l0/sht3x.o
 .ARM.attributes
                0x00000000000000c2       0x28 build_sx1261_l0/settings.o
 .ARM.attributes
                0x00000000000000ea       0x28 build_sx1261_l0/sha256.o
 .ARM.attributes
                0x0000000000000112       0x28 build_sx1261_l0/timer.o
 .ARM.attributes
                0x000000000000013a       0x28 build_sx1261_l0/timer_rtc.o
 .ARM.attributes
                0x0000000000000162       0x28 build_sx1261_l0/system_stm32l0xx.o
 .ARM.attributes
                0x000000000000018a       0x28 build_sx1261_l0/smtc_hal_watchdog.o
 .ARM.attributes
                0x00000000000001b2       0x28 build_sx1261_l0/smtc_hal_spi.o
 .ARM.attributes
                0x00000000000001da       0x28 build_sx1261_l0/smtc_hal_rng.o
 .ARM.attributes
                0x0000000000000202       0x28 build_sx1261_l0/smtc_hal_eeprom.o
 .ARM.attributes
                0x000000000000022a       0x28 build_sx1261_l0/smtc_hal_gpio.o
 .ARM.attributes
                0x0000000000000252       0x28 build_sx1261_l0/smtc_hal_uart.o
 .ARM.attributes
                0x000000000000027a       0x28 build_sx1261_l0/smtc_hal_lp_timer.o
 .ARM.attributes
                0x00000000000002a2       0x28 build_sx1261_l0/smtc_hal_rtc.o
 .ARM.attributes
                0x00000000000002ca       0x28 build_sx1261_l0/smtc_hal_trace.o
 .ARM.attributes
                0x00000000000002f2       0x28 build_sx1261_l0/smtc_hal_mcu.o
 .ARM.attributes
                0x000000000000031a       0x28 build_sx1261_l0/smtc_hal_i2c.o
 .ARM.attributes
                0x0000000000000342       0x28 build_sx1261_l0/stm32l0xx_ll_i2c.o
 .ARM.attributes
                0x000000000000036a       0x28 build_sx1261_l0/stm32l0xx_ll_usart.o
 .ARM.attributes
                0x0000000000000392       0x28 build_sx1261_l0/stm32l0xx_ll_rcc.o
 .ARM.attributes
                0x00000000000003ba       0x28 build_sx1261_l0/stm32l0xx_ll_lptim.o
 .ARM.attributes
                0x00000000000003e2       0x28 build_sx1261_l0/stm32l0xx_ll_utils.o
 .ARM.attributes
                0x000000000000040a       0x28 build_sx1261_l0/smtc_modem_hal.o
 .ARM.attributes
                0x0000000000000432       0x28 build_sx1261_l0/sx126x_hal.o
 .ARM.attributes
                0x000000000000045a       0x28 build_sx1261_l0/ral_sx126x_bsp.o
 .ARM.attributes
                0x0000000000000482       0x28 build_sx1261_l0/radio_utilities.o
 .ARM.attributes
                0x00000000000004aa       0x22 build_sx1261_l0/startup_stm32l071xx.o
 .ARM.attributes
                0x00000000000004cc       0x28 lbm/lbm_lib/./build/basic_modem.a(smtc_modem.o)
 .ARM.attributes
                0x00000000000004f4       0x28 lbm/lbm_lib/./build/basic_modem.a(modem_event_utilities.o)
 .ARM.attributes
                0x000000000000051c       0x28 lbm/lbm_lib/./build/basic_modem.a(fifo_ctrl.o)
 .ARM.attributes
                0x0000000000000544       0x28 lbm/lbm_lib/./build/basic_modem.a(modem_core.o)
 .ARM.attributes
                0x000000000000056c       0x28 lbm/lbm_lib/./build/basic_modem.a(modem_supervisor_light.o)
 .ARM.attributes
                0x0000000000000594       0x28 lbm/lbm_lib/./build/basic_modem.a(modem_tx_protocol_manager.o)
 .ARM.attributes
                0x00000000000005bc       0x28 lbm/lbm_lib/./build/basic_modem.a(lorawan_certification.o)
 .ARM.attributes
                0x00000000000005e4       0x28 lbm/lbm_lib/./build/basic_modem.a(lorawan_join_management.o)
 .ARM.attributes
                0x000000000000060c       0x28 lbm/lbm_lib/./build/basic_modem.a(lorawan_send_management.o)
 .ARM.attributes
                0x0000000000000634       0x28 lbm/lbm_lib/./build/basic_modem.a(lorawan_cid_request_management.o)
 .ARM.attributes
                0x000000000000065c       0x28 lbm/lbm_lib/./build/basic_modem.a(lorawan_dwn_ack_management.o)
 .ARM.attributes
                0x0000000000000684       0x28 lbm/lbm_lib/./build/basic_modem.a(soft_se.o)
 .ARM.attributes
                0x00000000000006ac       0x28 lbm/lbm_lib/./build/basic_modem.a(smtc_real.o)
 .ARM.attributes
                0x00000000000006d4       0x28 lbm/lbm_lib/./build/basic_modem.a(smtc_duty_cycle.o)
 .ARM.attributes
                0x00000000000006fc       0x28 lbm/lbm_lib/./build/basic_modem.a(smtc_lbt.o)
 .ARM.attributes
                0x0000000000000724       0x28 lbm/lbm_lib/./build/basic_modem.a(ral_sx126x.o)
 .ARM.attributes
                0x000000000000074c       0x28 lbm/lbm_lib/./build/basic_modem.a(ralf_sx126x.o)
 .ARM.attributes
                0x0000000000000774       0x28 lbm/lbm_lib/./build/basic_modem.a(radio_planner.o)
 .ARM.attributes
                0x000000000000079c       0x28 lbm/lbm_lib/./build/basic_modem.a(lorawan_api.o)
 .ARM.attributes
                0x00000000000007c4       0x28 lbm/lbm_lib/./build/basic_modem.a(smtc_modem_test.o)
 .ARM.attributes
                0x00000000000007ec       0x28 lbm/lbm_lib/./build/basic_modem.a(aes.o)
 .ARM.attributes
                0x0000000000000814       0x28 lbm/lbm_lib/./build/basic_modem.a(cmac.o)
 .ARM.attributes
                0x000000000000083c       0x28 lbm/lbm_lib/./build/basic_modem.a(smtc_modem_crypto.o)
 .ARM.attributes
                0x0000000000000864       0x28 lbm/lbm_lib/./build/basic_modem.a(region_eu_868.o)
 .ARM.attributes
                0x000000000000088c       0x28 lbm/lbm_lib/./build/basic_modem.a(lr1_stack_mac_layer.o)
 .ARM.attributes
                0x00000000000008b4       0x28 lbm/lbm_lib/./build/basic_modem.a(lr1mac_core.o)
 .ARM.attributes
                0x00000000000008dc       0x28 lbm/lbm_lib/./build/basic_modem.a(lr1mac_utilities.o)
 .ARM.attributes
                0x0000000000000904       0x28 lbm/lbm_lib/./build/basic_modem.a(sx126x.o)
 .ARM.attributes
                0x000000000000092c       0x28 lbm/lbm_lib/./build/basic_modem.a(sx126x_lr_fhss.o)
 .ARM.attributes
                0x0000000000000954       0x28 lbm/lbm_lib/./build/basic_modem.a(lr_fhss_mac.o)
 .ARM.attributes
                0x000000000000097c       0x2c /usr/lib/gcc/arm-none-eabi/10.3.1/../../../arm-none-eabi/lib/thumb/v6-m/nofp/libc_nano.a(lib_a-impure.o)
 .ARM.attributes
                0x00000000000009a8       0x2c /usr/lib/gcc/arm-none-eabi/10.3.1/../../../arm-none-eabi/lib/thumb/v6-m/nofp/libc_nano.a(lib_a-init.o)
 .ARM.attributes
                0x00000000000009d4       0x2c /usr/lib/gcc/arm-none-eabi/10.3.1/../../../arm-none-eabi/lib/thumb/v6-m/nofp/libc_nano.a(lib_a-memcmp.o)
 .ARM.attributes
                0x0000000000000a00       0x2c /usr/lib/gcc/arm-none-eabi/10.3.1/../../../arm-none-eabi/lib/thumb/v6-m/nofp/libc_nano.a(lib_a-memcpy-stub.o)
 .ARM.attributes
                0x0000000000000a2c       0x2c /usr/lib/gcc/arm-none-eabi/10.3.1/../../../arm-none-eabi/lib/thumb/v6-m/nofp/libc_nano.a(lib_a-memset.o)
 .ARM.attributes
                0x0000000000000a58       0x2c /usr/lib/gcc/arm-none-eabi/10.3.1/../../../arm-none-eabi/lib/thumb/v6-m/nofp/libc_nano.a(lib_a-rand.o)
 .ARM.attributes
                0x0000000000000a84       0x2c /usr/lib/gcc/arm-none-eabi/10.3.1/../../../arm-none-eabi/lib/thumb/v6-m/nofp/libc_nano.a(lib_a-snprintf.o)
 .ARM.attributes
                0x0000000000000ab0       0x1b /usr/lib/gcc/arm-none-eabi/10.3.1/../../../arm-none-eabi/lib/thumb/v6-m/nofp/libc_nano.a(lib_a-strcmp.o)
 .ARM.attributes
                0x0000000000000acb       0x2c /usr/lib/gcc/arm-none-eabi/10.3.1/../../../arm-none-eabi/lib/thumb/v6-m/nofp/libc_nano.a(lib_a-strlen-stub.o)
 .ARM.attributes
                0x0000000000000af7       0x2c /usr/lib/gcc/arm-none-eabi/10.3.1/../../../arm-none-eabi/lib/thumb/v6-m/nofp/libc_nano.a(lib_a-vsprintf.o)
 .ARM.attributes
                0x0000000000000b23       0x2c /usr/lib/gcc/arm-none-eabi/10.3.1/../../../arm-none-eabi/lib/thumb/v6-m/nofp/libc_nano.a(lib_a-assert.o)
 .ARM.attributes
                0x0000000000000b4f       0x2c /usr/lib/gcc/arm-none-eabi/10.3.1/../../../arm-none-eabi/lib/thumb/v6-m/nofp/libc_nano.a(lib_a-fprintf.o)
 .ARM.attributes
                0x0000000000000b7b       0x2c /usr/lib/gcc/arm-none-eabi/10.3.1/../../../arm-none-eabi/lib/thumb/v6-m/nofp/libc_nano.a(lib_a-malloc.o)
 .ARM.attributes
                0x0000000000000ba7       0x2c /usr/lib/gcc/arm-none-eabi/10.3.1/../../../arm-none-eabi/lib/thumb/v6-m/nofp/libc_nano.a(lib_a-nano-freer.o)
 .ARM.attributes
                0x0000000000000bd3       0x2c /usr/lib/gcc/arm-none-eabi/10.3.1/../../../arm-none-eabi/lib/thumb/v6-m/nofp/libc_nano.a(lib_a-nano-mallocr.o)
 .ARM.attributes
                0x0000000000000bff       0x2c /usr/lib/gcc/arm-none-eabi/10.3.1/../../../arm-none-eabi/lib/thumb/v6-m/nofp/libc_nano.a(lib_a-nano-svfprintf.o)
 .ARM.attributes
                0x0000000000000c2b       0x2c /usr/lib/gcc/arm-none-eabi/10.3.1/../../../arm-none-eabi/lib/thumb/v6-m/nofp/libc_nano.a(lib_a-nano-vfprintf.o)
 .ARM.attributes
                0x0000000000000c57       0x2c /usr/lib/gcc/arm-none-eabi/10.3.1/../../../arm-none-eabi/lib/thumb/v6-m/nofp/libc_nano.a(lib_a-nano-vfprintf_i.o)
 .ARM.attributes
                0x0000000000000c83       0x2c /usr/lib/gcc/arm-none-eabi/10.3.1/../../../arm-none-eabi/lib/thumb/v6-m/nofp/libc_nano.a(lib_a-sbrkr.o)
 .ARM.attributes
                0x0000000000000caf       0x2c /usr/lib/gcc/arm-none-eabi/10.3.1/../../../arm-none-eabi/lib/thumb/v6-m/nofp/libc_nano.a(lib_a-wbuf.o)
 .ARM.attributes
                0x0000000000000cdb       0x2c /usr/lib/gcc/arm-none-eabi/10.3.1/../../../arm-none-eabi/lib/thumb/v6-m/nofp/libc_nano.a(lib_a-wsetup.o)
 .ARM.attributes
                0x0000000000000d07       0x2c /usr/lib/gcc/arm-none-eabi/10.3.1/../../../arm-none-eabi/lib/thumb/v6-m/nofp/libc_nano.a(lib_a-abort.o)
 .ARM.attributes
                0x0000000000000d33       0x2c /usr/lib/gcc/arm-none-eabi/10.3.1/../../../arm-none-eabi/lib/thumb/v6-m/nofp/libc_nano.a(lib_a-fflush.o)
 .ARM.attributes
                0x0000000000000d5f       0x2c /usr/lib/gcc/arm-none-eabi/10.3.1/../../../arm-none-eabi/lib/thumb/v6-m/nofp/libc_nano.a(lib_a-findfp.o)
 .ARM.attributes
                0x0000000000000d8b       0x2c /usr/lib/gcc/arm-none-eabi/10.3.1/../../../arm-none-eabi/lib/thumb/v6-m/nofp/libc_nano.a(lib_a-fvwrite.o)
 .ARM.attributes
                0x0000000000000db7       0x2c /usr/lib/gcc/arm-none-eabi/10.3.1/../../../arm-none-eabi/lib/thumb/v6-m/nofp/libc_nano.a(lib_a-fwalk.o)
 .ARM.attributes
                0x0000000000000de3       0x2c /usr/lib/gcc/arm-none-eabi/10.3.1/../../../arm-none-eabi/lib/thumb/v6-m/nofp/libc_nano.a(lib_a-makebuf.o)
 .ARM.attributes
                0x0000000000000e0f       0x2c /usr/lib/gcc/arm-none-eabi/10.3.1/../../../arm-none-eabi/lib/thumb/v6-m/nofp/libc_nano.a(lib_a-memchr-stub.o)
 .ARM.attributes
                0x0000000000000e3b       0x2c /usr/lib/gcc/arm-none-eabi/10.3.1/../../../arm-none-eabi/lib/thumb/v6-m/nofp/libc_nano.a(lib_a-memmove.o)
 .ARM.attributes
                0x0000000000000e67       0x2c /usr/lib/gcc/arm-none-eabi/10.3.1/../../../arm-none-eabi/lib/thumb/v6-m/nofp/libc_nano.a(lib_a-mlock.o)
 .ARM.attributes
                0x0000000000000e93       0x2c /usr/lib/gcc/arm-none-eabi/10.3.1/../../../arm-none-eabi/lib/thumb/v6-m/nofp/libc_nano.a(lib_a-nano-reallocr.o)
 .ARM.attributes
                0x0000000000000ebf       0x2c /usr/lib/gcc/arm-none-eabi/10.3.1/../../../arm-none-eabi/lib/thumb/v6-m/nofp/libc_nano.a(lib_a-reent.o)
 .ARM.attributes
                0x0000000000000eeb       0x2c /usr/lib/gcc/arm-none-eabi/10.3.1/../../../arm-none-eabi/lib/thumb/v6-m/nofp/libc_nano.a(lib_a-signal.o)
 .ARM.attributes
                0x0000000000000f17       0x2c /usr/lib/gcc/arm-none-eabi/10.3.1/../../../arm-none-eabi/lib/thumb/v6-m/nofp/libc_nano.a(lib_a-signalr.o)
 .ARM.attributes
                0x0000000000000f43       0x2c /usr/lib/gcc/arm-none-eabi/10.3.1/../../../arm-none-eabi/lib/thumb/v6-m/nofp/libc_nano.a(lib_a-stdio.o)
 .ARM.attributes
                0x0000000000000f6f       0x2c /usr/lib/gcc/arm-none-eabi/10.3.1/../../../arm-none-eabi/lib/thumb/v6-m/nofp/libc_nano.a(lib_a-writer.o)
 .ARM.attributes
                0x0000000000000f9b       0x2c /usr/lib/gcc/arm-none-eabi/10.3.1/../../../arm-none-eabi/lib/thumb/v6-m/nofp/libc_nano.a(lib_a-closer.o)
 .ARM.attributes
                0x0000000000000fc7       0x2c /usr/lib/gcc/arm-none-eabi/10.3.1/../../../arm-none-eabi/lib/thumb/v6-m/nofp/libc_nano.a(lib_a-fstatr.o)
 .ARM.attributes
                0x0000000000000ff3       0x2c /usr/lib/gcc/arm-none-eabi/10.3.1/../../../arm-none-eabi/lib/thumb/v6-m/nofp/libc_nano.a(lib_a-isattyr.o)
 .ARM.attributes
                0x000000000000101f       0x2c /usr/lib/gcc/arm-none-eabi/10.3.1/../../../arm-none-eabi/lib/thumb/v6-m/nofp/libc_nano.a(lib_a-lseekr.o)
 .ARM.attributes
                0x000000000000104b       0x2c /usr/lib/gcc/arm-none-eabi/10.3.1/../../../arm-none-eabi/lib/thumb/v6-m/nofp/libc_nano.a(lib_a-nano-msizer.o)
 .ARM.attributes
                0x0000000000001077       0x2c /usr/lib/gcc/arm-none-eabi/10.3.1/../../../arm-none-eabi/lib/thumb/v6-m/nofp/libc_nano.a(lib_a-readr.o)
 .ARM.attributes
                0x00000000000010a3       0x2c /usr/lib/gcc/arm-none-eabi/10.3.1/../../../arm-none-eabi/lib/thumb/v6-m/nofp/libnosys.a(close.o)
 .ARM.attributes
                0x00000000000010cf       0x2c /usr/lib/gcc/arm-none-eabi/10.3.1/../../../arm-none-eabi/lib/thumb/v6-m/nofp/libnosys.a(fstat.o)
 .ARM.attributes
                0x00000000000010fb       0x2c /usr/lib/gcc/arm-none-eabi/10.3.1/../../../arm-none-eabi/lib/thumb/v6-m/nofp/libnosys.a(getpid.o)
 .ARM.attributes
                0x0000000000001127       0x2c /usr/lib/gcc/arm-none-eabi/10.3.1/../../../arm-none-eabi/lib/thumb/v6-m/nofp/libnosys.a(isatty.o)
 .ARM.attributes
                0x0000000000001153       0x2c /usr/lib/gcc/arm-none-eabi/10.3.1/../../../arm-none-eabi/lib/thumb/v6-m/nofp/libnosys.a(kill.o)
 .ARM.attributes
                0x000000000000117f       0x2c /usr/lib/gcc/arm-none-eabi/10.3.1/../../../arm-none-eabi/lib/thumb/v6-m/nofp/libnosys.a(lseek.o)
 .ARM.attributes
                0x00000000000011ab       0x2c /usr/lib/gcc/arm-none-eabi/10.3.1/../../../arm-none-eabi/lib/thumb/v6-m/nofp/libnosys.a(read.o)
 .ARM.attributes
                0x00000000000011d7       0x2c /usr/lib/gcc/arm-none-eabi/10.3.1/../../../arm-none-eabi/lib/thumb/v6-m/nofp/libnosys.a(sbrk.o)
 .ARM.attributes
                0x0000000000001203       0x2c /usr/lib/gcc/arm-none-eabi/10.3.1/../../../arm-none-eabi/lib/thumb/v6-m/nofp/libnosys.a(write.o)
 .ARM.attributes
                0x000000000000122f       0x2c /usr/lib/gcc/arm-none-eabi/10.3.1/../../../arm-none-eabi/lib/thumb/v6-m/nofp/libnosys.a(_exit.o)
 .ARM.attributes
                0x000000000000125b       0x1e /usr/lib/gcc/arm-none-eabi/10.3.1/thumb/v6-m/nofp/libgcc.a(_thumb1_case_sqi.o)
 .ARM.attributes
                0x0000000000001279       0x1e /usr/lib/gcc/arm-none-eabi/10.3.1/thumb/v6-m/nofp/libgcc.a(_thumb1_case_uqi.o)
 .ARM.attributes
                0x0000000000001297       0x1e /usr/lib/gcc/arm-none-eabi/10.3.1/thumb/v6-m/nofp/libgcc.a(_thumb1_case_uhi.o)
 .ARM.attributes
                0x00000000000012b5       0x1e /usr/lib/gcc/arm-none-eabi/10.3.1/thumb/v6-m/nofp/libgcc.a(_udivsi3.o)
 .ARM.attributes
                0x00000000000012d3       0x1e /usr/lib/gcc/arm-none-eabi/10.3.1/thumb/v6-m/nofp/libgcc.a(_divsi3.o)
 .ARM.attributes
                0x00000000000012f1       0x1e /usr/lib/gcc/arm-none-eabi/10.3.1/thumb/v6-m/nofp/libgcc.a(_dvmd_tls.o)
 .ARM.attributes
                0x000000000000130f       0x1e /usr/lib/gcc/arm-none-eabi/10.3.1/thumb/v6-m/nofp/libgcc.a(_aeabi_uldivmod.o)
 .ARM.attributes
                0x000000000000132d       0x2c /usr/lib/gcc/arm-none-eabi/10.3.1/thumb/v6-m/nofp/libgcc.a(_muldi3.o)
 .ARM.attributes
                0x0000000000001359       0x2c /usr/lib/gcc/arm-none-eabi/10.3.1/thumb/v6-m/nofp/libgcc.a(_udivmoddi4.o)
 .ARM.attributes
                0x0000000000001385       0x1e /usr/lib/gcc/arm-none-eabi/10.3.1/thumb/v6-m/nofp/libgcc.a(_clzsi2.o)
 .ARM.attributes
                0x00000000000013a3       0x1e /usr/lib/gcc/arm-none-eabi/10.3.1/thumb/v6-m/nofp/libgcc.a(_clzdi2.o)
 .ARM.attributes
                0x00000000000013c1       0x2c /usr/lib/gcc/arm-none-eabi/10.3.1/thumb/v6-m/nofp/crtend.o
 .ARM.attributes
                0x00000000000013ed       0x1e /usr/lib/gcc/arm-none-eabi/10.3.1/thumb/v6-m/nofp/crtn.o
OUTPUT(build_sx1261_l0/hello_world_sx1261_EU_868.elf elf32-littlearm)
LOAD linker stubs
LOAD /usr/lib/gcc/arm-none-eabi/10.3.1/../../../arm-none-eabi/lib/thumb/v6-m/nofp/libc.a
LOAD /usr/lib/gcc/arm-none-eabi/10.3.1/../../../arm-none-eabi/lib/thumb/v6-m/nofp/libm.a
LOAD /usr/lib/gcc/arm-none-eabi/10.3.1/thumb/v6-m/nofp/libgcc.a

.comment        0x0000000000000000       0x33
 .comment       0x0000000000000000       0x33 /usr/lib/gcc/arm-none-eabi/10.3.1/thumb/v6-m/nofp/crtbegin.o
                                         0x34 (size before relaxing)
 .comment       0x0000000000000033       0x34 build_sx1261_l0/main.o
 .comment       0x0000000000000033       0x34 build_sx1261_l0/mx25.o
 .comment       0x0000000000000033       0x34 build_sx1261_l0/sht3x.o
 .comment       0x0000000000000033       0x34 build_sx1261_l0/settings.o
 .comment       0x0000000000000033       0x34 build_sx1261_l0/sha256.o
 .comment       0x0000000000000033       0x34 build_sx1261_l0/timer.o
 .comment       0x0000000000000033       0x34 build_sx1261_l0/timer_rtc.o
 .comment       0x0000000000000033       0x34 build_sx1261_l0/system_stm32l0xx.o
 .comment       0x0000000000000033       0x34 build_sx1261_l0/smtc_hal_watchdog.o
 .comment       0x0000000000000033       0x34 build_sx1261_l0/smtc_hal_spi.o
 .comment       0x0000000000000033       0x34 build_sx1261_l0/smtc_hal_rng.o
 .comment       0x0000000000000033       0x34 build_sx1261_l0/smtc_hal_eeprom.o
 .comment       0x0000000000000033       0x34 build_sx1261_l0/smtc_hal_gpio.o
 .comment       0x0000000000000033       0x34 build_sx1261_l0/smtc_hal_uart.o
 .comment       0x0000000000000033       0x34 build_sx1261_l0/smtc_hal_lp_timer.o
 .comment       0x0000000000000033       0x34 build_sx1261_l0/smtc_hal_rtc.o
 .comment       0x0000000000000033       0x34 build_sx1261_l0/smtc_hal_trace.o
 .comment       0x0000000000000033       0x34 build_sx1261_l0/smtc_hal_mcu.o
 .comment       0x0000000000000033       0x34 build_sx1261_l0/smtc_hal_i2c.o
 .comment       0x0000000000000033       0x34 build_sx1261_l0/stm32l0xx_ll_i2c.o
 .comment       0x0000000000000033       0x34 build_sx1261_l0/stm32l0xx_ll_usart.o
 .comment       0x0000000000000033       0x34 build_sx1261_l0/stm32l0xx_ll_rcc.o
 .comment       0x0000000000000033       0x34 build_sx1261_l0/stm32l0xx_ll_lptim.o
 .comment       0x0000000000000033       0x34 build_sx1261_l0/stm32l0xx_ll_utils.o
 .comment       0x0000000000000033       0x34 build_sx1261_l0/smtc_modem_hal.o
 .comment       0x0000000000000033       0x34 build_sx1261_l0/sx126x_hal.o
 .comment       0x0000000000000033       0x34 build_sx1261_l0/ral_sx126x_bsp.o
 .comment       0x0000000000000033       0x34 build_sx1261_l0/radio_utilities.o
 .comment       0x0000000000000033       0x34 lbm/lbm_lib/./build/basic_modem.a(smtc_modem.o)
 .comment       0x0000000000000033       0x34 lbm/lbm_lib/./build/basic_modem.a(modem_event_utilities.o)
 .comment       0x0000000000000033       0x34 lbm/lbm_lib/./build/basic_modem.a(fifo_ctrl.o)
 .comment       0x0000000000000033       0x34 lbm/lbm_lib/./build/basic_modem.a(modem_core.o)
 .comment       0x0000000000000033       0x34 lbm/lbm_lib/./build/basic_modem.a(modem_supervisor_light.o)
 .comment       0x0000000000000033       0x34 lbm/lbm_lib/./build/basic_modem.a(modem_tx_protocol_manager.o)
 .comment       0x0000000000000033       0x34 lbm/lbm_lib/./build/basic_modem.a(lorawan_certification.o)
 .comment       0x0000000000000033       0x34 lbm/lbm_lib/./build/basic_modem.a(lorawan_join_management.o)
 .comment       0x0000000000000033       0x34 lbm/lbm_lib/./build/basic_modem.a(lorawan_send_management.o)
 .comment       0x0000000000000033       0x34 lbm/lbm_lib/./build/basic_modem.a(lorawan_cid_request_management.o)
 .comment       0x0000000000000033       0x34 lbm/lbm_lib/./build/basic_modem.a(lorawan_dwn_ack_management.o)
 .comment       0x0000000000000033       0x34 lbm/lbm_lib/./build/basic_modem.a(soft_se.o)
 .comment       0x0000000000000033       0x34 lbm/lbm_lib/./build/basic_modem.a(smtc_real.o)
 .comment       0x0000000000000033       0x34 lbm/lbm_lib/./build/basic_modem.a(smtc_duty_cycle.o)
 .comment       0x0000000000000033       0x34 lbm/lbm_lib/./build/basic_modem.a(smtc_lbt.o)
 .comment       0x0000000000000033       0x34 lbm/lbm_lib/./build/basic_modem.a(ral_sx126x.o)
 .comment       0x0000000000000033       0x34 lbm/lbm_lib/./build/basic_modem.a(ralf_sx126x.o)
 .comment       0x0000000000000033       0x34 lbm/lbm_lib/./build/basic_modem.a(radio_planner.o)
 .comment       0x0000000000000033       0x34 lbm/lbm_lib/./build/basic_modem.a(lorawan_api.o)
 .comment       0x0000000000000033       0x34 lbm/lbm_lib/./build/basic_modem.a(smtc_modem_test.o)
 .comment       0x0000000000000033       0x34 lbm/lbm_lib/./build/basic_modem.a(aes.o)
 .comment       0x0000000000000033       0x34 lbm/lbm_lib/./build/basic_modem.a(cmac.o)
 .comment       0x0000000000000033       0x34 lbm/lbm_lib/./build/basic_modem.a(smtc_modem_crypto.o)
 .comment       0x0000000000000033       0x34 lbm/lbm_lib/./build/basic_modem.a(region_eu_868.o)
 .comment       0x0000000000000033       0x34 lbm/lbm_lib/./build/basic_modem.a(lr1_stack_mac_layer.o)
 .comment       0x0000000000000033       0x34 lbm/lbm_lib/./build/basic_modem.a(lr1mac_core.o)
 .comment       0x0000000000000033       0x34 lbm/lbm_lib/./build/basic_modem.a(lr1mac_utilities.o)
 .comment       0x0000000000000033       0x34 lbm/lbm_lib/./build/basic_modem.a(sx126x.o)
 .comment       0x0000000000000033       0x34 lbm/lbm_lib/./build/basic_modem.a(sx126x_lr_fhss.o)
 .comment       0x0000000000000033       0x34 lbm/lbm_lib/./build/basic_modem.a(lr_fhss_mac.o)
 .comment       0x0000000000000033       0x34 /usr/lib/gcc/arm-none-eabi/10.3.1/../../../arm-none-eabi/lib/thumb/v6-m/nofp/libc_nano.a(lib_a-impure.o)
 .comment       0x0000000000000033       0x34 /usr/lib/gcc/arm-none-eabi/10.3.1/../../../arm-none-eabi/lib/thumb/v6-m/nofp/libc_nano.a(lib_a-init.o)
 .comment       0x0000000000000033       0x34 /usr/lib/gcc/arm-none-eabi/10.3.1/../../../arm-none-eabi/lib/thumb/v6-m/nofp/libc_nano.a(lib_a-memcmp.o)
 .comment       0x0000000000000033       0x34 /usr/lib/gcc/arm-none-eabi/10.3.1/../../../arm-none-eabi/lib/thumb/v6-m/nofp/libc_nano.a(lib_a-memcpy-stub.o)
 .comment       0x0000000000000033       0x34 /usr/lib/gcc/arm-none-eabi/10.3.1/../../../arm-none-eabi/lib/thumb/v6-m/nofp/libc_nano.a(lib_a-memset.o)
 .comment       0x0000000000000033       0x34 /usr/lib/gcc/arm-none-eabi/10.3.1/../../../arm-none-eabi/lib/thumb/v6-m/nofp/libc_nano.a(lib_a-rand.o)
 .comment       0x0000000000000033       0x34 /usr/lib/gcc/arm-none-eabi/10.3.1/../../../arm-none-eabi/lib/thumb/v6-m/nofp/libc_nano.a(lib_a-snprintf.o)
 .comment       0x0000000000000033       0x34 /usr/lib/gcc/arm-none-eabi/10.3.1/../../../arm-none-eabi/lib/thumb/v6-m/nofp/libc_nano.a(lib_a-strlen-stub.o)
 .comment       0x0000000000000033       0x34 /usr/lib/gcc/arm-none-eabi/10.3.1/../../../arm-none-eabi/lib/thumb/v6-m/nofp/libc_nano.a(lib_a-vsprintf.o)
 .comment       0x0000000000000033       0x34 /usr/lib/gcc/arm-none-eabi/10.3.1/../../../arm-none-eabi/lib/thumb/v6-m/nofp/libc_nano.a(lib_a-assert.o)
 .comment       0x0000000000000033       0x34 /usr/lib/gcc/arm-none-eabi/10.3.1/../../../arm-none-eabi/lib/thumb/v6-m/nofp/libc_nano.a(lib_a-fprintf.o)
 .comment       0x0000000000000033       0x34 /usr/lib/gcc/arm-none-eabi/10.3.1/../../../arm-none-eabi/lib/thumb/v6-m/nofp/libc_nano.a(lib_a-malloc.o)
 .comment       0x0000000000000033       0x34 /usr/lib/gcc/arm-none-eabi/10.3.1/../../../arm-none-eabi/lib/thumb/v6-m/nofp/libc_nano.a(lib_a-nano-freer.o)
 .comment       0x0000000000000033       0x34 /usr/lib/gcc/arm-none-eabi/10.3.1/../../../arm-none-eabi/lib/thumb/v6-m/nofp/libc_nano.a(lib_a-nano-mallocr.o)
 .comment       0x0000000000000033       0x34 /usr/lib/gcc/arm-none-eabi/10.3.1/../../../arm-none-eabi/lib/thumb/v6-m/nofp/libc_nano.a(lib_a-nano-svfprintf.o)
 .comment       0x0000000000000033       0x34 /usr/lib/gcc/arm-none-eabi/10.3.1/../../../arm-none-eabi/lib/thumb/v6-m/nofp/libc_nano.a(lib_a-nano-vfprintf.o)
 .comment       0x0000000000000033       0x34 /usr/lib/gcc/arm-none-eabi/10.3.1/../../../arm-none-eabi/lib/thumb/v6-m/nofp/libc_nano.a(lib_a-nano-vfprintf_i.o)
 .comment       0x0000000000000033       0x34 /usr/lib/gcc/arm-none-eabi/10.3.1/../../../arm-none-eabi/lib/thumb/v6-m/nofp/libc_nano.a(lib_a-sbrkr.o)
 .comment       0x0000000000000033       0x34 /usr/lib/gcc/arm-none-eabi/10.3.1/../../../arm-none-eabi/lib/thumb/v6-m/nofp/libc_nano.a(lib_a-wbuf.o)
 .comment       0x0000000000000033       0x34 /usr/lib/gcc/arm-none-eabi/10.3.1/../../../arm-none-eabi/lib/thumb/v6-m/nofp/libc_nano.a(lib_a-wsetup.o)
 .comment       0x0000000000000033       0x34 /usr/lib/gcc/arm-none-eabi/10.3.1/../../../arm-none-eabi/lib/thumb/v6-m/nofp/libc_nano.a(lib_a-abort.o)
 .comment       0x0000000000000033       0x34 /usr/lib/gcc/arm-none-eabi/10.3.1/../../../arm-none-eabi/lib/thumb/v6-m/nofp/libc_nano.a(lib_a-fflush.o)
 .comment       0x0000000000000033       0x34 /usr/lib/gcc/arm-none-eabi/10.3.1/../../../arm-none-eabi/lib/thumb/v6-m/nofp/libc_nano.a(lib_a-findfp.o)
 .comment       0x0000000000000033       0x34 /usr/lib/gcc/arm-none-eabi/10.3.1/../../../arm-none-eabi/lib/thumb/v6-m/nofp/libc_nano.a(lib_a-fvwrite.o)
 .comment       0x0000000000000033       0x34 /usr/lib/gcc/arm-none-eabi/10.3.1/../../../arm-none-eabi/lib/thumb/v6-m/nofp/libc_nano.a(lib_a-fwalk.o)
 .comment       0x0000000000000033       0x34 /usr/lib/gcc/arm-none-eabi/10.3.1/../../../arm-none-eabi/lib/thumb/v6-m/nofp/libc_nano.a(lib_a-makebuf.o)
 .comment       0x0000000000000033       0x34 /usr/lib/gcc/arm-none-eabi/10.3.1/../../../arm-none-eabi/lib/thumb/v6-m/nofp/libc_nano.a(lib_a-memchr-stub.o)
 .comment       0x0000000000000033       0x34 /usr/lib/gcc/arm-none-eabi/10.3.1/../../../arm-none-eabi/lib/thumb/v6-m/nofp/libc_nano.a(lib_a-memmove.o)
 .comment       0x0000000000000033       0x34 /usr/lib/gcc/arm-none-eabi/10.3.1/../../../arm-none-eabi/lib/thumb/v6-m/nofp/libc_nano.a(lib_a-mlock.o)
 .comment       0x0000000000000033       0x34 /usr/lib/gcc/arm-none-eabi/10.3.1/../../../arm-none-eabi/lib/thumb/v6-m/nofp/libc_nano.a(lib_a-nano-reallocr.o)
 .comment       0x0000000000000033       0x34 /usr/lib/gcc/arm-none-eabi/10.3.1/../../../arm-none-eabi/lib/thumb/v6-m/nofp/libc_nano.a(lib_a-reent.o)
 .comment       0x0000000000000033       0x34 /usr/lib/gcc/arm-none-eabi/10.3.1/../../../arm-none-eabi/lib/thumb/v6-m/nofp/libc_nano.a(lib_a-signal.o)
 .comment       0x0000000000000033       0x34 /usr/lib/gcc/arm-none-eabi/10.3.1/../../../arm-none-eabi/lib/thumb/v6-m/nofp/libc_nano.a(lib_a-signalr.o)
 .comment       0x0000000000000033       0x34 /usr/lib/gcc/arm-none-eabi/10.3.1/../../../arm-none-eabi/lib/thumb/v6-m/nofp/libc_nano.a(lib_a-stdio.o)
 .comment       0x0000000000000033       0x34 /usr/lib/gcc/arm-none-eabi/10.3.1/../../../arm-none-eabi/lib/thumb/v6-m/nofp/libc_nano.a(lib_a-writer.o)
 .comment       0x0000000000000033       0x34 /usr/lib/gcc/arm-none-eabi/10.3.1/../../../arm-none-eabi/lib/thumb/v6-m/nofp/libc_nano.a(lib_a-closer.o)
 .comment       0x0000000000000033       0x34 /usr/lib/gcc/arm-none-eabi/10.3.1/../../../arm-none-eabi/lib/thumb/v6-m/nofp/libc_nano.a(lib_a-fstatr.o)
 .comment       0x0000000000000033       0x34 /usr/lib/gcc/arm-none-eabi/10.3.1/../../../arm-none-eabi/lib/thumb/v6-m/nofp/libc_nano.a(lib_a-isattyr.o)
 .comment       0x0000000000000033       0x34 /usr/lib/gcc/arm-none-eabi/10.3.1/../../../arm-none-eabi/lib/thumb/v6-m/nofp/libc_nano.a(lib_a-lseekr.o)
 .comment       0x0000000000000033       0x34 /usr/lib/gcc/arm-none-eabi/10.3.1/../../../arm-none-eabi/lib/thumb/v6-m/nofp/libc_nano.a(lib_a-nano-msizer.o)
 .comment       0x0000000000000033       0x34 /usr/lib/gcc/arm-none-eabi/10.3.1/../../../arm-none-eabi/lib/thumb/v6-m/nofp/libc_nano.a(lib_a-readr.o)
 .comment       0x0000000000000033       0x34 /usr/lib/gcc/arm-none-eabi/10.3.1/../../../arm-none-eabi/lib/thumb/v6-m/nofp/libnosys.a(close.o)
 .comment       0x0000000000000033       0x34 /usr/lib/gcc/arm-none-eabi/10.3.1/../../../arm-none-eabi/lib/thumb/v6-m/nofp/libnosys.a(fstat.o)
 .comment       0x0000000000000033       0x34 /usr/lib/gcc/arm-none-eabi/10.3.1/../../../arm-none-eabi/lib/thumb/v6-m/nofp/libnosys.a(getpid.o)
 .comment       0x0000000000000033       0x34 /usr/lib/gcc/arm-none-eabi/10.3.1/../../../arm-none-eabi/lib/thumb/v6-m/nofp/libnosys.a(isatty.o)
 .comment       0x0000000000000033       0x34 /usr/lib/gcc/arm-none-eabi/10.3.1/../../../arm-none-eabi/lib/thumb/v6-m/nofp/libnosys.a(kill.o)
 .comment       0x0000000000000033       0x34 /usr/lib/gcc/arm-none-eabi/10.3.1/../../../arm-none-eabi/lib/thumb/v6-m/nofp/libnosys.a(lseek.o)
 .comment       0x0000000000000033       0x34 /usr/lib/gcc/arm-none-eabi/10.3.1/../../../arm-none-eabi/lib/thumb/v6-m/nofp/libnosys.a(read.o)
 .comment       0x0000000000000033       0x34 /usr/lib/gcc/arm-none-eabi/10.3.1/../../../arm-none-eabi/lib/thumb/v6-m/nofp/libnosys.a(sbrk.o)
 .comment       0x0000000000000033       0x34 /usr/lib/gcc/arm-none-eabi/10.3.1/../../../arm-none-eabi/lib/thumb/v6-m/nofp/libnosys.a(write.o)
 .comment       0x0000000000000033       0x34 /usr/lib/gcc/arm-none-eabi/10.3.1/../../../arm-none-eabi/lib/thumb/v6-m/nofp/libnosys.a(_exit.o)
 .comment       0x0000000000000033       0x34 /usr/lib/gcc/arm-none-eabi/10.3.1/thumb/v6-m/nofp/libgcc.a(_muldi3.o)
 .comment       0x0000000000000033       0x34 /usr/lib/gcc/arm-none-eabi/10.3.1/thumb/v6-m/nofp/libgcc.a(_udivmoddi4.o)
 .comment       0x0000000000000033       0x34 /usr/lib/gcc/arm-none-eabi/10.3.1/thumb/v6-m/nofp/crtend.o

.debug_info     0x0000000000000000    0x16d01
 .debug_info    0x0000000000000000      0x863 /usr/lib/gcc/arm-none-eabi/10.3.1/../../../arm-none-eabi/lib/thumb/v6-m/nofp/libc_nano.a(lib_a-impure.o)
 .debug_info    0x0000000000000863      0x11a /usr/lib/gcc/arm-none-eabi/10.3.1/../../../arm-none-eabi/lib/thumb/v6-m/nofp/libc_nano.a(lib_a-init.o)
 .debug_info    0x000000000000097d      0x138 /usr/lib/gcc/arm-none-eabi/10.3.1/../../../arm-none-eabi/lib/thumb/v6-m/nofp/libc_nano.a(lib_a-memcmp.o)
 .debug_info    0x0000000000000ab5      0x15c /usr/lib/gcc/arm-none-eabi/10.3.1/../../../arm-none-eabi/lib/thumb/v6-m/nofp/libc_nano.a(lib_a-memcpy-stub.o)
 .debug_info    0x0000000000000c11      0x13d /usr/lib/gcc/arm-none-eabi/10.3.1/../../../arm-none-eabi/lib/thumb/v6-m/nofp/libc_nano.a(lib_a-memset.o)
 .debug_info    0x0000000000000d4e      0x916 /usr/lib/gcc/arm-none-eabi/10.3.1/../../../arm-none-eabi/lib/thumb/v6-m/nofp/libc_nano.a(lib_a-rand.o)
 .debug_info    0x0000000000001664      0x9b9 /usr/lib/gcc/arm-none-eabi/10.3.1/../../../arm-none-eabi/lib/thumb/v6-m/nofp/libc_nano.a(lib_a-snprintf.o)
 .debug_info    0x000000000000201d       0x26 /usr/lib/gcc/arm-none-eabi/10.3.1/../../../arm-none-eabi/lib/thumb/v6-m/nofp/libc_nano.a(lib_a-strcmp.o)
 .debug_info    0x0000000000002043       0xee /usr/lib/gcc/arm-none-eabi/10.3.1/../../../arm-none-eabi/lib/thumb/v6-m/nofp/libc_nano.a(lib_a-strlen-stub.o)
 .debug_info    0x0000000000002131      0x97c /usr/lib/gcc/arm-none-eabi/10.3.1/../../../arm-none-eabi/lib/thumb/v6-m/nofp/libc_nano.a(lib_a-vsprintf.o)
 .debug_info    0x0000000000002aad      0x8be /usr/lib/gcc/arm-none-eabi/10.3.1/../../../arm-none-eabi/lib/thumb/v6-m/nofp/libc_nano.a(lib_a-assert.o)
 .debug_info    0x000000000000336b      0x902 /usr/lib/gcc/arm-none-eabi/10.3.1/../../../arm-none-eabi/lib/thumb/v6-m/nofp/libc_nano.a(lib_a-fprintf.o)
 .debug_info    0x0000000000003c6d      0x832 /usr/lib/gcc/arm-none-eabi/10.3.1/../../../arm-none-eabi/lib/thumb/v6-m/nofp/libc_nano.a(lib_a-malloc.o)
 .debug_info    0x000000000000449f      0x928 /usr/lib/gcc/arm-none-eabi/10.3.1/../../../arm-none-eabi/lib/thumb/v6-m/nofp/libc_nano.a(lib_a-nano-freer.o)
 .debug_info    0x0000000000004dc7      0xa09 /usr/lib/gcc/arm-none-eabi/10.3.1/../../../arm-none-eabi/lib/thumb/v6-m/nofp/libc_nano.a(lib_a-nano-mallocr.o)
 .debug_info    0x00000000000057d0     0x10e0 /usr/lib/gcc/arm-none-eabi/10.3.1/../../../arm-none-eabi/lib/thumb/v6-m/nofp/libc_nano.a(lib_a-nano-svfprintf.o)
 .debug_info    0x00000000000068b0     0x117b /usr/lib/gcc/arm-none-eabi/10.3.1/../../../arm-none-eabi/lib/thumb/v6-m/nofp/libc_nano.a(lib_a-nano-vfprintf.o)
 .debug_info    0x0000000000007a2b      0xeb3 /usr/lib/gcc/arm-none-eabi/10.3.1/../../../arm-none-eabi/lib/thumb/v6-m/nofp/libc_nano.a(lib_a-nano-vfprintf_i.o)
 .debug_info    0x00000000000088de      0x828 /usr/lib/gcc/arm-none-eabi/10.3.1/../../../arm-none-eabi/lib/thumb/v6-m/nofp/libc_nano.a(lib_a-sbrkr.o)
 .debug_info    0x0000000000009106      0x998 /usr/lib/gcc/arm-none-eabi/10.3.1/../../../arm-none-eabi/lib/thumb/v6-m/nofp/libc_nano.a(lib_a-wbuf.o)
 .debug_info    0x0000000000009a9e      0x902 /usr/lib/gcc/arm-none-eabi/10.3.1/../../../arm-none-eabi/lib/thumb/v6-m/nofp/libc_nano.a(lib_a-wsetup.o)
 .debug_info    0x000000000000a3a0       0xcb /usr/lib/gcc/arm-none-eabi/10.3.1/../../../arm-none-eabi/lib/thumb/v6-m/nofp/libc_nano.a(lib_a-abort.o)
 .debug_info    0x000000000000a46b      0xb34 /usr/lib/gcc/arm-none-eabi/10.3.1/../../../arm-none-eabi/lib/thumb/v6-m/nofp/libc_nano.a(lib_a-fflush.o)
 .debug_info    0x000000000000af9f      0xfb2 /usr/lib/gcc/arm-none-eabi/10.3.1/../../../arm-none-eabi/lib/thumb/v6-m/nofp/libc_nano.a(lib_a-findfp.o)
 .debug_info    0x000000000000bf51      0xb5d /usr/lib/gcc/arm-none-eabi/10.3.1/../../../arm-none-eabi/lib/thumb/v6-m/nofp/libc_nano.a(lib_a-fvwrite.o)
 .debug_info    0x000000000000caae      0x900 /usr/lib/gcc/arm-none-eabi/10.3.1/../../../arm-none-eabi/lib/thumb/v6-m/nofp/libc_nano.a(lib_a-fwalk.o)
 .debug_info    0x000000000000d3ae      0xc8c /usr/lib/gcc/arm-none-eabi/10.3.1/../../../arm-none-eabi/lib/thumb/v6-m/nofp/libc_nano.a(lib_a-makebuf.o)
 .debug_info    0x000000000000e03a      0x14e /usr/lib/gcc/arm-none-eabi/10.3.1/../../../arm-none-eabi/lib/thumb/v6-m/nofp/libc_nano.a(lib_a-memchr-stub.o)
 .debug_info    0x000000000000e188      0x152 /usr/lib/gcc/arm-none-eabi/10.3.1/../../../arm-none-eabi/lib/thumb/v6-m/nofp/libc_nano.a(lib_a-memmove.o)
 .debug_info    0x000000000000e2da      0x7dc /usr/lib/gcc/arm-none-eabi/10.3.1/../../../arm-none-eabi/lib/thumb/v6-m/nofp/libc_nano.a(lib_a-mlock.o)
 .debug_info    0x000000000000eab6      0x910 /usr/lib/gcc/arm-none-eabi/10.3.1/../../../arm-none-eabi/lib/thumb/v6-m/nofp/libc_nano.a(lib_a-nano-reallocr.o)
 .debug_info    0x000000000000f3c6      0xa7b /usr/lib/gcc/arm-none-eabi/10.3.1/../../../arm-none-eabi/lib/thumb/v6-m/nofp/libc_nano.a(lib_a-reent.o)
 .debug_info    0x000000000000fe41      0xdc3 /usr/lib/gcc/arm-none-eabi/10.3.1/../../../arm-none-eabi/lib/thumb/v6-m/nofp/libc_nano.a(lib_a-signal.o)
 .debug_info    0x0000000000010c04      0x879 /usr/lib/gcc/arm-none-eabi/10.3.1/../../../arm-none-eabi/lib/thumb/v6-m/nofp/libc_nano.a(lib_a-signalr.o)
 .debug_info    0x000000000001147d      0xac1 /usr/lib/gcc/arm-none-eabi/10.3.1/../../../arm-none-eabi/lib/thumb/v6-m/nofp/libc_nano.a(lib_a-stdio.o)
 .debug_info    0x0000000000011f3e      0x85a /usr/lib/gcc/arm-none-eabi/10.3.1/../../../arm-none-eabi/lib/thumb/v6-m/nofp/libc_nano.a(lib_a-writer.o)
 .debug_info    0x0000000000012798      0x805 /usr/lib/gcc/arm-none-eabi/10.3.1/../../../arm-none-eabi/lib/thumb/v6-m/nofp/libc_nano.a(lib_a-closer.o)
 .debug_info    0x0000000000012f9d      0xa1d /usr/lib/gcc/arm-none-eabi/10.3.1/../../../arm-none-eabi/lib/thumb/v6-m/nofp/libc_nano.a(lib_a-fstatr.o)
 .debug_info    0x00000000000139ba      0x805 /usr/lib/gcc/arm-none-eabi/10.3.1/../../../arm-none-eabi/lib/thumb/v6-m/nofp/libc_nano.a(lib_a-isattyr.o)
 .debug_info    0x00000000000141bf      0x83b /usr/lib/gcc/arm-none-eabi/10.3.1/../../../arm-none-eabi/lib/thumb/v6-m/nofp/libc_nano.a(lib_a-lseekr.o)
 .debug_info    0x00000000000149fa      0x840 /usr/lib/gcc/arm-none-eabi/10.3.1/../../../arm-none-eabi/lib/thumb/v6-m/nofp/libc_nano.a(lib_a-nano-msizer.o)
 .debug_info    0x000000000001523a      0x853 /usr/lib/gcc/arm-none-eabi/10.3.1/../../../arm-none-eabi/lib/thumb/v6-m/nofp/libc_nano.a(lib_a-readr.o)
 .debug_info    0x0000000000015a8d       0xb1 /usr/lib/gcc/arm-none-eabi/10.3.1/../../../arm-none-eabi/lib/thumb/v6-m/nofp/libnosys.a(close.o)
 .debug_info    0x0000000000015b3e      0x2cc /usr/lib/gcc/arm-none-eabi/10.3.1/../../../arm-none-eabi/lib/thumb/v6-m/nofp/libnosys.a(fstat.o)
 .debug_info    0x0000000000015e0a       0x9c /usr/lib/gcc/arm-none-eabi/10.3.1/../../../arm-none-eabi/lib/thumb/v6-m/nofp/libnosys.a(getpid.o)
 .debug_info    0x0000000000015ea6       0xb1 /usr/lib/gcc/arm-none-eabi/10.3.1/../../../arm-none-eabi/lib/thumb/v6-m/nofp/libnosys.a(isatty.o)
 .debug_info    0x0000000000015f57       0xbf /usr/lib/gcc/arm-none-eabi/10.3.1/../../../arm-none-eabi/lib/thumb/v6-m/nofp/libnosys.a(kill.o)
 .debug_info    0x0000000000016016       0xd3 /usr/lib/gcc/arm-none-eabi/10.3.1/../../../arm-none-eabi/lib/thumb/v6-m/nofp/libnosys.a(lseek.o)
 .debug_info    0x00000000000160e9       0xd9 /usr/lib/gcc/arm-none-eabi/10.3.1/../../../arm-none-eabi/lib/thumb/v6-m/nofp/libnosys.a(read.o)
 .debug_info    0x00000000000161c2       0x9d /usr/lib/gcc/arm-none-eabi/10.3.1/../../../arm-none-eabi/lib/thumb/v6-m/nofp/libnosys.a(sbrk.o)
 .debug_info    0x000000000001625f       0xd9 /usr/lib/gcc/arm-none-eabi/10.3.1/../../../arm-none-eabi/lib/thumb/v6-m/nofp/libnosys.a(write.o)
 .debug_info    0x0000000000016338       0xa3 /usr/lib/gcc/arm-none-eabi/10.3.1/../../../arm-none-eabi/lib/thumb/v6-m/nofp/libnosys.a(_exit.o)
 .debug_info    0x00000000000163db       0x26 /usr/lib/gcc/arm-none-eabi/10.3.1/thumb/v6-m/nofp/libgcc.a(_thumb1_case_sqi.o)
 .debug_info    0x0000000000016401       0x26 /usr/lib/gcc/arm-none-eabi/10.3.1/thumb/v6-m/nofp/libgcc.a(_thumb1_case_uqi.o)
 .debug_info    0x0000000000016427       0x26 /usr/lib/gcc/arm-none-eabi/10.3.1/thumb/v6-m/nofp/libgcc.a(_thumb1_case_uhi.o)
 .debug_info    0x000000000001644d       0x26 /usr/lib/gcc/arm-none-eabi/10.3.1/thumb/v6-m/nofp/libgcc.a(_udivsi3.o)
 .debug_info    0x0000000000016473       0x26 /usr/lib/gcc/arm-none-eabi/10.3.1/thumb/v6-m/nofp/libgcc.a(_divsi3.o)
 .debug_info    0x0000000000016499       0x26 /usr/lib/gcc/arm-none-eabi/10.3.1/thumb/v6-m/nofp/libgcc.a(_dvmd_tls.o)
 .debug_info    0x00000000000164bf       0x26 /usr/lib/gcc/arm-none-eabi/10.3.1/thumb/v6-m/nofp/libgcc.a(_aeabi_uldivmod.o)
 .debug_info    0x00000000000164e5      0x431 /usr/lib/gcc/arm-none-eabi/10.3.1/thumb/v6-m/nofp/libgcc.a(_muldi3.o)
 .debug_info    0x0000000000016916      0x39f /usr/lib/gcc/arm-none-eabi/10.3.1/thumb/v6-m/nofp/libgcc.a(_udivmoddi4.o)
 .debug_info    0x0000000000016cb5       0x26 /usr/lib/gcc/arm-none-eabi/10.3.1/thumb/v6-m/nofp/libgcc.a(_clzsi2.o)
 .debug_info    0x0000000000016cdb       0x26 /usr/lib/gcc/arm-none-eabi/10.3.1/thumb/v6-m/nofp/libgcc.a(_clzdi2.o)

.debug_abbrev   0x0000000000000000     0x52af
 .debug_abbrev  0x0000000000000000      0x151 /usr/lib/gcc/arm-none-eabi/10.3.1/../../../arm-none-eabi/lib/thumb/v6-m/nofp/libc_nano.a(lib_a-impure.o)
 .debug_abbrev  0x0000000000000151       0xcc /usr/lib/gcc/arm-none-eabi/10.3.1/../../../arm-none-eabi/lib/thumb/v6-m/nofp/libc_nano.a(lib_a-init.o)
 .debug_abbrev  0x000000000000021d       0x8d /usr/lib/gcc/arm-none-eabi/10.3.1/../../../arm-none-eabi/lib/thumb/v6-m/nofp/libc_nano.a(lib_a-memcmp.o)
 .debug_abbrev  0x00000000000002aa       0xc7 /usr/lib/gcc/arm-none-eabi/10.3.1/../../../arm-none-eabi/lib/thumb/v6-m/nofp/libc_nano.a(lib_a-memcpy-stub.o)
 .debug_abbrev  0x0000000000000371       0xb4 /usr/lib/gcc/arm-none-eabi/10.3.1/../../../arm-none-eabi/lib/thumb/v6-m/nofp/libc_nano.a(lib_a-memset.o)
 .debug_abbrev  0x0000000000000425      0x21b /usr/lib/gcc/arm-none-eabi/10.3.1/../../../arm-none-eabi/lib/thumb/v6-m/nofp/libc_nano.a(lib_a-rand.o)
 .debug_abbrev  0x0000000000000640      0x216 /usr/lib/gcc/arm-none-eabi/10.3.1/../../../arm-none-eabi/lib/thumb/v6-m/nofp/libc_nano.a(lib_a-snprintf.o)
 .debug_abbrev  0x0000000000000856       0x14 /usr/lib/gcc/arm-none-eabi/10.3.1/../../../arm-none-eabi/lib/thumb/v6-m/nofp/libc_nano.a(lib_a-strcmp.o)
 .debug_abbrev  0x000000000000086a       0x8f /usr/lib/gcc/arm-none-eabi/10.3.1/../../../arm-none-eabi/lib/thumb/v6-m/nofp/libc_nano.a(lib_a-strlen-stub.o)
 .debug_abbrev  0x00000000000008f9      0x23f /usr/lib/gcc/arm-none-eabi/10.3.1/../../../arm-none-eabi/lib/thumb/v6-m/nofp/libc_nano.a(lib_a-vsprintf.o)
 .debug_abbrev  0x0000000000000b38      0x1c3 /usr/lib/gcc/arm-none-eabi/10.3.1/../../../arm-none-eabi/lib/thumb/v6-m/nofp/libc_nano.a(lib_a-assert.o)
 .debug_abbrev  0x0000000000000cfb      0x213 /usr/lib/gcc/arm-none-eabi/10.3.1/../../../arm-none-eabi/lib/thumb/v6-m/nofp/libc_nano.a(lib_a-fprintf.o)
 .debug_abbrev  0x0000000000000f0e      0x1b3 /usr/lib/gcc/arm-none-eabi/10.3.1/../../../arm-none-eabi/lib/thumb/v6-m/nofp/libc_nano.a(lib_a-malloc.o)
 .debug_abbrev  0x00000000000010c1      0x232 /usr/lib/gcc/arm-none-eabi/10.3.1/../../../arm-none-eabi/lib/thumb/v6-m/nofp/libc_nano.a(lib_a-nano-freer.o)
 .debug_abbrev  0x00000000000012f3      0x297 /usr/lib/gcc/arm-none-eabi/10.3.1/../../../arm-none-eabi/lib/thumb/v6-m/nofp/libc_nano.a(lib_a-nano-mallocr.o)
 .debug_abbrev  0x000000000000158a      0x2ca /usr/lib/gcc/arm-none-eabi/10.3.1/../../../arm-none-eabi/lib/thumb/v6-m/nofp/libc_nano.a(lib_a-nano-svfprintf.o)
 .debug_abbrev  0x0000000000001854      0x330 /usr/lib/gcc/arm-none-eabi/10.3.1/../../../arm-none-eabi/lib/thumb/v6-m/nofp/libc_nano.a(lib_a-nano-vfprintf.o)
 .debug_abbrev  0x0000000000001b84      0x292 /usr/lib/gcc/arm-none-eabi/10.3.1/../../../arm-none-eabi/lib/thumb/v6-m/nofp/libc_nano.a(lib_a-nano-vfprintf_i.o)
 .debug_abbrev  0x0000000000001e16      0x1d6 /usr/lib/gcc/arm-none-eabi/10.3.1/../../../arm-none-eabi/lib/thumb/v6-m/nofp/libc_nano.a(lib_a-sbrkr.o)
 .debug_abbrev  0x0000000000001fec      0x211 /usr/lib/gcc/arm-none-eabi/10.3.1/../../../arm-none-eabi/lib/thumb/v6-m/nofp/libc_nano.a(lib_a-wbuf.o)
 .debug_abbrev  0x00000000000021fd      0x1d4 /usr/lib/gcc/arm-none-eabi/10.3.1/../../../arm-none-eabi/lib/thumb/v6-m/nofp/libc_nano.a(lib_a-wsetup.o)
 .debug_abbrev  0x00000000000023d1       0x80 /usr/lib/gcc/arm-none-eabi/10.3.1/../../../arm-none-eabi/lib/thumb/v6-m/nofp/libc_nano.a(lib_a-abort.o)
 .debug_abbrev  0x0000000000002451      0x2ba /usr/lib/gcc/arm-none-eabi/10.3.1/../../../arm-none-eabi/lib/thumb/v6-m/nofp/libc_nano.a(lib_a-fflush.o)
 .debug_abbrev  0x000000000000270b      0x3bc /usr/lib/gcc/arm-none-eabi/10.3.1/../../../arm-none-eabi/lib/thumb/v6-m/nofp/libc_nano.a(lib_a-findfp.o)
 .debug_abbrev  0x0000000000002ac7      0x20f /usr/lib/gcc/arm-none-eabi/10.3.1/../../../arm-none-eabi/lib/thumb/v6-m/nofp/libc_nano.a(lib_a-fvwrite.o)
 .debug_abbrev  0x0000000000002cd6      0x197 /usr/lib/gcc/arm-none-eabi/10.3.1/../../../arm-none-eabi/lib/thumb/v6-m/nofp/libc_nano.a(lib_a-fwalk.o)
 .debug_abbrev  0x0000000000002e6d      0x290 /usr/lib/gcc/arm-none-eabi/10.3.1/../../../arm-none-eabi/lib/thumb/v6-m/nofp/libc_nano.a(lib_a-makebuf.o)
 .debug_abbrev  0x00000000000030fd       0xd4 /usr/lib/gcc/arm-none-eabi/10.3.1/../../../arm-none-eabi/lib/thumb/v6-m/nofp/libc_nano.a(lib_a-memchr-stub.o)
 .debug_abbrev  0x00000000000031d1       0xc0 /usr/lib/gcc/arm-none-eabi/10.3.1/../../../arm-none-eabi/lib/thumb/v6-m/nofp/libc_nano.a(lib_a-memmove.o)
 .debug_abbrev  0x0000000000003291      0x189 /usr/lib/gcc/arm-none-eabi/10.3.1/../../../arm-none-eabi/lib/thumb/v6-m/nofp/libc_nano.a(lib_a-mlock.o)
 .debug_abbrev  0x000000000000341a      0x1d3 /usr/lib/gcc/arm-none-eabi/10.3.1/../../../arm-none-eabi/lib/thumb/v6-m/nofp/libc_nano.a(lib_a-nano-reallocr.o)
 .debug_abbrev  0x00000000000035ed      0x257 /usr/lib/gcc/arm-none-eabi/10.3.1/../../../arm-none-eabi/lib/thumb/v6-m/nofp/libc_nano.a(lib_a-reent.o)
 .debug_abbrev  0x0000000000003844      0x2ac /usr/lib/gcc/arm-none-eabi/10.3.1/../../../arm-none-eabi/lib/thumb/v6-m/nofp/libc_nano.a(lib_a-signal.o)
 .debug_abbrev  0x0000000000003af0      0x1c9 /usr/lib/gcc/arm-none-eabi/10.3.1/../../../arm-none-eabi/lib/thumb/v6-m/nofp/libc_nano.a(lib_a-signalr.o)
 .debug_abbrev  0x0000000000003cb9      0x1db /usr/lib/gcc/arm-none-eabi/10.3.1/../../../arm-none-eabi/lib/thumb/v6-m/nofp/libc_nano.a(lib_a-stdio.o)
 .debug_abbrev  0x0000000000003e94      0x1b0 /usr/lib/gcc/arm-none-eabi/10.3.1/../../../arm-none-eabi/lib/thumb/v6-m/nofp/libc_nano.a(lib_a-writer.o)
 .debug_abbrev  0x0000000000004044      0x1ab /usr/lib/gcc/arm-none-eabi/10.3.1/../../../arm-none-eabi/lib/thumb/v6-m/nofp/libc_nano.a(lib_a-closer.o)
 .debug_abbrev  0x00000000000041ef      0x1bf /usr/lib/gcc/arm-none-eabi/10.3.1/../../../arm-none-eabi/lib/thumb/v6-m/nofp/libc_nano.a(lib_a-fstatr.o)
 .debug_abbrev  0x00000000000043ae      0x1ab /usr/lib/gcc/arm-none-eabi/10.3.1/../../../arm-none-eabi/lib/thumb/v6-m/nofp/libc_nano.a(lib_a-isattyr.o)
 .debug_abbrev  0x0000000000004559      0x1bf /usr/lib/gcc/arm-none-eabi/10.3.1/../../../arm-none-eabi/lib/thumb/v6-m/nofp/libc_nano.a(lib_a-lseekr.o)
 .debug_abbrev  0x0000000000004718      0x191 /usr/lib/gcc/arm-none-eabi/10.3.1/../../../arm-none-eabi/lib/thumb/v6-m/nofp/libc_nano.a(lib_a-nano-msizer.o)
 .debug_abbrev  0x00000000000048a9      0x1ab /usr/lib/gcc/arm-none-eabi/10.3.1/../../../arm-none-eabi/lib/thumb/v6-m/nofp/libc_nano.a(lib_a-readr.o)
 .debug_abbrev  0x0000000000004a54       0x6d /usr/lib/gcc/arm-none-eabi/10.3.1/../../../arm-none-eabi/lib/thumb/v6-m/nofp/libnosys.a(close.o)
 .debug_abbrev  0x0000000000004ac1       0xcc /usr/lib/gcc/arm-none-eabi/10.3.1/../../../arm-none-eabi/lib/thumb/v6-m/nofp/libnosys.a(fstat.o)
 .debug_abbrev  0x0000000000004b8d       0x59 /usr/lib/gcc/arm-none-eabi/10.3.1/../../../arm-none-eabi/lib/thumb/v6-m/nofp/libnosys.a(getpid.o)
 .debug_abbrev  0x0000000000004be6       0x6d /usr/lib/gcc/arm-none-eabi/10.3.1/../../../arm-none-eabi/lib/thumb/v6-m/nofp/libnosys.a(isatty.o)
 .debug_abbrev  0x0000000000004c53       0x7e /usr/lib/gcc/arm-none-eabi/10.3.1/../../../arm-none-eabi/lib/thumb/v6-m/nofp/libnosys.a(kill.o)
 .debug_abbrev  0x0000000000004cd1       0x92 /usr/lib/gcc/arm-none-eabi/10.3.1/../../../arm-none-eabi/lib/thumb/v6-m/nofp/libnosys.a(lseek.o)
 .debug_abbrev  0x0000000000004d63       0x9b /usr/lib/gcc/arm-none-eabi/10.3.1/../../../arm-none-eabi/lib/thumb/v6-m/nofp/libnosys.a(read.o)
 .debug_abbrev  0x0000000000004dfe       0xa2 /usr/lib/gcc/arm-none-eabi/10.3.1/../../../arm-none-eabi/lib/thumb/v6-m/nofp/libnosys.a(sbrk.o)
 .debug_abbrev  0x0000000000004ea0       0x9b /usr/lib/gcc/arm-none-eabi/10.3.1/../../../arm-none-eabi/lib/thumb/v6-m/nofp/libnosys.a(write.o)
 .debug_abbrev  0x0000000000004f3b       0x6a /usr/lib/gcc/arm-none-eabi/10.3.1/../../../arm-none-eabi/lib/thumb/v6-m/nofp/libnosys.a(_exit.o)
 .debug_abbrev  0x0000000000004fa5       0x14 /usr/lib/gcc/arm-none-eabi/10.3.1/thumb/v6-m/nofp/libgcc.a(_thumb1_case_sqi.o)
 .debug_abbrev  0x0000000000004fb9       0x14 /usr/lib/gcc/arm-none-eabi/10.3.1/thumb/v6-m/nofp/libgcc.a(_thumb1_case_uqi.o)
 .debug_abbrev  0x0000000000004fcd       0x14 /usr/lib/gcc/arm-none-eabi/10.3.1/thumb/v6-m/nofp/libgcc.a(_thumb1_case_uhi.o)
 .debug_abbrev  0x0000000000004fe1       0x14 /usr/lib/gcc/arm-none-eabi/10.3.1/thumb/v6-m/nofp/libgcc.a(_udivsi3.o)
 .debug_abbrev  0x0000000000004ff5       0x14 /usr/lib/gcc/arm-none-eabi/10.3.1/thumb/v6-m/nofp/libgcc.a(_divsi3.o)
 .debug_abbrev  0x0000000000005009       0x14 /usr/lib/gcc/arm-none-eabi/10.3.1/thumb/v6-m/nofp/libgcc.a(_dvmd_tls.o)
 .debug_abbrev  0x000000000000501d       0x14 /usr/lib/gcc/arm-none-eabi/10.3.1/thumb/v6-m/nofp/libgcc.a(_aeabi_uldivmod.o)
 .debug_abbrev  0x0000000000005031      0x13b /usr/lib/gcc/arm-none-eabi/10.3.1/thumb/v6-m/nofp/libgcc.a(_muldi3.o)
 .debug_abbrev  0x000000000000516c      0x11b /usr/lib/gcc/arm-none-eabi/10.3.1/thumb/v6-m/nofp/libgcc.a(_udivmoddi4.o)
 .debug_abbrev  0x0000000000005287       0x14 /usr/lib/gcc/arm-none-eabi/10.3.1/thumb/v6-m/nofp/libgcc.a(_clzsi2.o)
 .debug_abbrev  0x000000000000529b       0x14 /usr/lib/gcc/arm-none-eabi/10.3.1/thumb/v6-m/nofp/libgcc.a(_clzdi2.o)

.debug_aranges  0x0000000000000000      0x7d8
 .debug_aranges
                0x0000000000000000       0x18 /usr/lib/gcc/arm-none-eabi/10.3.1/../../../arm-none-eabi/lib/thumb/v6-m/nofp/libc_nano.a(lib_a-impure.o)
 .debug_aranges
                0x0000000000000018       0x20 /usr/lib/gcc/arm-none-eabi/10.3.1/../../../arm-none-eabi/lib/thumb/v6-m/nofp/libc_nano.a(lib_a-init.o)
 .debug_aranges
                0x0000000000000038       0x20 /usr/lib/gcc/arm-none-eabi/10.3.1/../../../arm-none-eabi/lib/thumb/v6-m/nofp/libc_nano.a(lib_a-memcmp.o)
 .debug_aranges
                0x0000000000000058       0x20 /usr/lib/gcc/arm-none-eabi/10.3.1/../../../arm-none-eabi/lib/thumb/v6-m/nofp/libc_nano.a(lib_a-memcpy-stub.o)
 .debug_aranges
                0x0000000000000078       0x20 /usr/lib/gcc/arm-none-eabi/10.3.1/../../../arm-none-eabi/lib/thumb/v6-m/nofp/libc_nano.a(lib_a-memset.o)
 .debug_aranges
                0x0000000000000098       0x20 /usr/lib/gcc/arm-none-eabi/10.3.1/../../../arm-none-eabi/lib/thumb/v6-m/nofp/libc_nano.a(lib_a-rand.o)
 .debug_aranges
                0x00000000000000b8       0x20 /usr/lib/gcc/arm-none-eabi/10.3.1/../../../arm-none-eabi/lib/thumb/v6-m/nofp/libc_nano.a(lib_a-snprintf.o)
 .debug_aranges
                0x00000000000000d8       0x20 /usr/lib/gcc/arm-none-eabi/10.3.1/../../../arm-none-eabi/lib/thumb/v6-m/nofp/libc_nano.a(lib_a-strcmp.o)
 .debug_aranges
                0x00000000000000f8       0x20 /usr/lib/gcc/arm-none-eabi/10.3.1/../../../arm-none-eabi/lib/thumb/v6-m/nofp/libc_nano.a(lib_a-strlen-stub.o)
 .debug_aranges
                0x0000000000000118       0x20 /usr/lib/gcc/arm-none-eabi/10.3.1/../../../arm-none-eabi/lib/thumb/v6-m/nofp/libc_nano.a(lib_a-vsprintf.o)
 .debug_aranges
                0x0000000000000138       0x20 /usr/lib/gcc/arm-none-eabi/10.3.1/../../../arm-none-eabi/lib/thumb/v6-m/nofp/libc_nano.a(lib_a-assert.o)
 .debug_aranges
                0x0000000000000158       0x20 /usr/lib/gcc/arm-none-eabi/10.3.1/../../../arm-none-eabi/lib/thumb/v6-m/nofp/libc_nano.a(lib_a-fprintf.o)
 .debug_aranges
                0x0000000000000178       0x20 /usr/lib/gcc/arm-none-eabi/10.3.1/../../../arm-none-eabi/lib/thumb/v6-m/nofp/libc_nano.a(lib_a-malloc.o)
 .debug_aranges
                0x0000000000000198       0x20 /usr/lib/gcc/arm-none-eabi/10.3.1/../../../arm-none-eabi/lib/thumb/v6-m/nofp/libc_nano.a(lib_a-nano-freer.o)
 .debug_aranges
                0x00000000000001b8       0x20 /usr/lib/gcc/arm-none-eabi/10.3.1/../../../arm-none-eabi/lib/thumb/v6-m/nofp/libc_nano.a(lib_a-nano-mallocr.o)
 .debug_aranges
                0x00000000000001d8       0x20 /usr/lib/gcc/arm-none-eabi/10.3.1/../../../arm-none-eabi/lib/thumb/v6-m/nofp/libc_nano.a(lib_a-nano-svfprintf.o)
 .debug_aranges
                0x00000000000001f8       0x20 /usr/lib/gcc/arm-none-eabi/10.3.1/../../../arm-none-eabi/lib/thumb/v6-m/nofp/libc_nano.a(lib_a-nano-vfprintf.o)
 .debug_aranges
                0x0000000000000218       0x20 /usr/lib/gcc/arm-none-eabi/10.3.1/../../../arm-none-eabi/lib/thumb/v6-m/nofp/libc_nano.a(lib_a-nano-vfprintf_i.o)
 .debug_aranges
                0x0000000000000238       0x20 /usr/lib/gcc/arm-none-eabi/10.3.1/../../../arm-none-eabi/lib/thumb/v6-m/nofp/libc_nano.a(lib_a-sbrkr.o)
 .debug_aranges
                0x0000000000000258       0x20 /usr/lib/gcc/arm-none-eabi/10.3.1/../../../arm-none-eabi/lib/thumb/v6-m/nofp/libc_nano.a(lib_a-wbuf.o)
 .debug_aranges
                0x0000000000000278       0x20 /usr/lib/gcc/arm-none-eabi/10.3.1/../../../arm-none-eabi/lib/thumb/v6-m/nofp/libc_nano.a(lib_a-wsetup.o)
 .debug_aranges
                0x0000000000000298       0x20 /usr/lib/gcc/arm-none-eabi/10.3.1/../../../arm-none-eabi/lib/thumb/v6-m/nofp/libc_nano.a(lib_a-abort.o)
 .debug_aranges
                0x00000000000002b8       0x20 /usr/lib/gcc/arm-none-eabi/10.3.1/../../../arm-none-eabi/lib/thumb/v6-m/nofp/libc_nano.a(lib_a-fflush.o)
 .debug_aranges
                0x00000000000002d8       0x20 /usr/lib/gcc/arm-none-eabi/10.3.1/../../../arm-none-eabi/lib/thumb/v6-m/nofp/libc_nano.a(lib_a-findfp.o)
 .debug_aranges
                0x00000000000002f8       0x20 /usr/lib/gcc/arm-none-eabi/10.3.1/../../../arm-none-eabi/lib/thumb/v6-m/nofp/libc_nano.a(lib_a-fvwrite.o)
 .debug_aranges
                0x0000000000000318       0x20 /usr/lib/gcc/arm-none-eabi/10.3.1/../../../arm-none-eabi/lib/thumb/v6-m/nofp/libc_nano.a(lib_a-fwalk.o)
 .debug_aranges
                0x0000000000000338       0x20 /usr/lib/gcc/arm-none-eabi/10.3.1/../../../arm-none-eabi/lib/thumb/v6-m/nofp/libc_nano.a(lib_a-makebuf.o)
 .debug_aranges
                0x0000000000000358       0x20 /usr/lib/gcc/arm-none-eabi/10.3.1/../../../arm-none-eabi/lib/thumb/v6-m/nofp/libc_nano.a(lib_a-memchr-stub.o)
 .debug_aranges
                0x0000000000000378       0x20 /usr/lib/gcc/arm-none-eabi/10.3.1/../../../arm-none-eabi/lib/thumb/v6-m/nofp/libc_nano.a(lib_a-memmove.o)
 .debug_aranges
                0x0000000000000398       0x20 /usr/lib/gcc/arm-none-eabi/10.3.1/../../../arm-none-eabi/lib/thumb/v6-m/nofp/libc_nano.a(lib_a-mlock.o)
 .debug_aranges
                0x00000000000003b8       0x20 /usr/lib/gcc/arm-none-eabi/10.3.1/../../../arm-none-eabi/lib/thumb/v6-m/nofp/libc_nano.a(lib_a-nano-reallocr.o)
 .debug_aranges
                0x00000000000003d8       0x20 /usr/lib/gcc/arm-none-eabi/10.3.1/../../../arm-none-eabi/lib/thumb/v6-m/nofp/libc_nano.a(lib_a-reent.o)
 .debug_aranges
                0x00000000000003f8       0x20 /usr/lib/gcc/arm-none-eabi/10.3.1/../../../arm-none-eabi/lib/thumb/v6-m/nofp/libc_nano.a(lib_a-signal.o)
 .debug_aranges
                0x0000000000000418       0x20 /usr/lib/gcc/arm-none-eabi/10.3.1/../../../arm-none-eabi/lib/thumb/v6-m/nofp/libc_nano.a(lib_a-signalr.o)
 .debug_aranges
                0x0000000000000438       0x20 /usr/lib/gcc/arm-none-eabi/10.3.1/../../../arm-none-eabi/lib/thumb/v6-m/nofp/libc_nano.a(lib_a-stdio.o)
 .debug_aranges
                0x0000000000000458       0x20 /usr/lib/gcc/arm-none-eabi/10.3.1/../../../arm-none-eabi/lib/thumb/v6-m/nofp/libc_nano.a(lib_a-writer.o)
 .debug_aranges
                0x0000000000000478       0x20 /usr/lib/gcc/arm-none-eabi/10.3.1/../../../arm-none-eabi/lib/thumb/v6-m/nofp/libc_nano.a(lib_a-closer.o)
 .debug_aranges
                0x0000000000000498       0x20 /usr/lib/gcc/arm-none-eabi/10.3.1/../../../arm-none-eabi/lib/thumb/v6-m/nofp/libc_nano.a(lib_a-fstatr.o)
 .debug_aranges
                0x00000000000004b8       0x20 /usr/lib/gcc/arm-none-eabi/10.3.1/../../../arm-none-eabi/lib/thumb/v6-m/nofp/libc_nano.a(lib_a-isattyr.o)
 .debug_aranges
                0x00000000000004d8       0x20 /usr/lib/gcc/arm-none-eabi/10.3.1/../../../arm-none-eabi/lib/thumb/v6-m/nofp/libc_nano.a(lib_a-lseekr.o)
 .debug_aranges
                0x00000000000004f8       0x20 /usr/lib/gcc/arm-none-eabi/10.3.1/../../../arm-none-eabi/lib/thumb/v6-m/nofp/libc_nano.a(lib_a-nano-msizer.o)
 .debug_aranges
                0x0000000000000518       0x20 /usr/lib/gcc/arm-none-eabi/10.3.1/../../../arm-none-eabi/lib/thumb/v6-m/nofp/libc_nano.a(lib_a-readr.o)
 .debug_aranges
                0x0000000000000538       0x20 /usr/lib/gcc/arm-none-eabi/10.3.1/../../../arm-none-eabi/lib/thumb/v6-m/nofp/libnosys.a(close.o)
 .debug_aranges
                0x0000000000000558       0x20 /usr/lib/gcc/arm-none-eabi/10.3.1/../../../arm-none-eabi/lib/thumb/v6-m/nofp/libnosys.a(fstat.o)
 .debug_aranges
                0x0000000000000578       0x20 /usr/lib/gcc/arm-none-eabi/10.3.1/../../../arm-none-eabi/lib/thumb/v6-m/nofp/libnosys.a(getpid.o)
 .debug_aranges
                0x0000000000000598       0x20 /usr/lib/gcc/arm-none-eabi/10.3.1/../../../arm-none-eabi/lib/thumb/v6-m/nofp/libnosys.a(isatty.o)
 .debug_aranges
                0x00000000000005b8       0x20 /usr/lib/gcc/arm-none-eabi/10.3.1/../../../arm-none-eabi/lib/thumb/v6-m/nofp/libnosys.a(kill.o)
 .debug_aranges
                0x00000000000005d8       0x20 /usr/lib/gcc/arm-none-eabi/10.3.1/../../../arm-none-eabi/lib/thumb/v6-m/nofp/libnosys.a(lseek.o)
 .debug_aranges
                0x00000000000005f8       0x20 /usr/lib/gcc/arm-none-eabi/10.3.1/../../../arm-none-eabi/lib/thumb/v6-m/nofp/libnosys.a(read.o)
 .debug_aranges
                0x0000000000000618       0x20 /usr/lib/gcc/arm-none-eabi/10.3.1/../../../arm-none-eabi/lib/thumb/v6-m/nofp/libnosys.a(sbrk.o)
 .debug_aranges
                0x0000000000000638       0x20 /usr/lib/gcc/arm-none-eabi/10.3.1/../../../arm-none-eabi/lib/thumb/v6-m/nofp/libnosys.a(write.o)
 .debug_aranges
                0x0000000000000658       0x20 /usr/lib/gcc/arm-none-eabi/10.3.1/../../../arm-none-eabi/lib/thumb/v6-m/nofp/libnosys.a(_exit.o)
 .debug_aranges
                0x0000000000000678       0x20 /usr/lib/gcc/arm-none-eabi/10.3.1/thumb/v6-m/nofp/libgcc.a(_thumb1_case_sqi.o)
 .debug_aranges
                0x0000000000000698       0x20 /usr/lib/gcc/arm-none-eabi/10.3.1/thumb/v6-m/nofp/libgcc.a(_thumb1_case_uqi.o)
 .debug_aranges
                0x00000000000006b8       0x20 /usr/lib/gcc/arm-none-eabi/10.3.1/thumb/v6-m/nofp/libgcc.a(_thumb1_case_uhi.o)
 .debug_aranges
                0x00000000000006d8       0x20 /usr/lib/gcc/arm-none-eabi/10.3.1/thumb/v6-m/nofp/libgcc.a(_udivsi3.o)
 .debug_aranges
                0x00000000000006f8       0x20 /usr/lib/gcc/arm-none-eabi/10.3.1/thumb/v6-m/nofp/libgcc.a(_divsi3.o)
 .debug_aranges
                0x0000000000000718       0x20 /usr/lib/gcc/arm-none-eabi/10.3.1/thumb/v6-m/nofp/libgcc.a(_dvmd_tls.o)
 .debug_aranges
                0x0000000000000738       0x20 /usr/lib/gcc/arm-none-eabi/10.3.1/thumb/v6-m/nofp/libgcc.a(_aeabi_uldivmod.o)
 .debug_aranges
                0x0000000000000758       0x20 /usr/lib/gcc/arm-none-eabi/10.3.1/thumb/v6-m/nofp/libgcc.a(_muldi3.o)
 .debug_aranges
                0x0000000000000778       0x20 /usr/lib/gcc/arm-none-eabi/10.3.1/thumb/v6-m/nofp/libgcc.a(_udivmoddi4.o)
 .debug_aranges
                0x0000000000000798       0x20 /usr/lib/gcc/arm-none-eabi/10.3.1/thumb/v6-m/nofp/libgcc.a(_clzsi2.o)
 .debug_aranges
                0x00000000000007b8       0x20 /usr/lib/gcc/arm-none-eabi/10.3.1/thumb/v6-m/nofp/libgcc.a(_clzdi2.o)

.debug_line     0x0000000000000000     0x7ba7
 .debug_line    0x0000000000000000       0xe4 /usr/lib/gcc/arm-none-eabi/10.3.1/../../../arm-none-eabi/lib/thumb/v6-m/nofp/libc_nano.a(lib_a-impure.o)
 .debug_line    0x00000000000000e4      0x127 /usr/lib/gcc/arm-none-eabi/10.3.1/../../../arm-none-eabi/lib/thumb/v6-m/nofp/libc_nano.a(lib_a-init.o)
 .debug_line    0x000000000000020b      0x167 /usr/lib/gcc/arm-none-eabi/10.3.1/../../../arm-none-eabi/lib/thumb/v6-m/nofp/libc_nano.a(lib_a-memcmp.o)
 .debug_line    0x0000000000000372      0x1b5 /usr/lib/gcc/arm-none-eabi/10.3.1/../../../arm-none-eabi/lib/thumb/v6-m/nofp/libc_nano.a(lib_a-memcpy-stub.o)
 .debug_line    0x0000000000000527      0x1ce /usr/lib/gcc/arm-none-eabi/10.3.1/../../../arm-none-eabi/lib/thumb/v6-m/nofp/libc_nano.a(lib_a-memset.o)
 .debug_line    0x00000000000006f5      0x26e /usr/lib/gcc/arm-none-eabi/10.3.1/../../../arm-none-eabi/lib/thumb/v6-m/nofp/libc_nano.a(lib_a-rand.o)
 .debug_line    0x0000000000000963      0x366 /usr/lib/gcc/arm-none-eabi/10.3.1/../../../arm-none-eabi/lib/thumb/v6-m/nofp/libc_nano.a(lib_a-snprintf.o)
 .debug_line    0x0000000000000cc9       0xb0 /usr/lib/gcc/arm-none-eabi/10.3.1/../../../arm-none-eabi/lib/thumb/v6-m/nofp/libc_nano.a(lib_a-strcmp.o)
 .debug_line    0x0000000000000d79      0x172 /usr/lib/gcc/arm-none-eabi/10.3.1/../../../arm-none-eabi/lib/thumb/v6-m/nofp/libc_nano.a(lib_a-strlen-stub.o)
 .debug_line    0x0000000000000eeb      0x1fa /usr/lib/gcc/arm-none-eabi/10.3.1/../../../arm-none-eabi/lib/thumb/v6-m/nofp/libc_nano.a(lib_a-vsprintf.o)
 .debug_line    0x00000000000010e5      0x18b /usr/lib/gcc/arm-none-eabi/10.3.1/../../../arm-none-eabi/lib/thumb/v6-m/nofp/libc_nano.a(lib_a-assert.o)
 .debug_line    0x0000000000001270      0x196 /usr/lib/gcc/arm-none-eabi/10.3.1/../../../arm-none-eabi/lib/thumb/v6-m/nofp/libc_nano.a(lib_a-fprintf.o)
 .debug_line    0x0000000000001406      0x165 /usr/lib/gcc/arm-none-eabi/10.3.1/../../../arm-none-eabi/lib/thumb/v6-m/nofp/libc_nano.a(lib_a-malloc.o)
 .debug_line    0x000000000000156b      0x2d0 /usr/lib/gcc/arm-none-eabi/10.3.1/../../../arm-none-eabi/lib/thumb/v6-m/nofp/libc_nano.a(lib_a-nano-freer.o)
 .debug_line    0x000000000000183b      0x2ca /usr/lib/gcc/arm-none-eabi/10.3.1/../../../arm-none-eabi/lib/thumb/v6-m/nofp/libc_nano.a(lib_a-nano-mallocr.o)
 .debug_line    0x0000000000001b05      0x8be /usr/lib/gcc/arm-none-eabi/10.3.1/../../../arm-none-eabi/lib/thumb/v6-m/nofp/libc_nano.a(lib_a-nano-svfprintf.o)
 .debug_line    0x00000000000023c3      0x736 /usr/lib/gcc/arm-none-eabi/10.3.1/../../../arm-none-eabi/lib/thumb/v6-m/nofp/libc_nano.a(lib_a-nano-vfprintf.o)
 .debug_line    0x0000000000002af9      0x718 /usr/lib/gcc/arm-none-eabi/10.3.1/../../../arm-none-eabi/lib/thumb/v6-m/nofp/libc_nano.a(lib_a-nano-vfprintf_i.o)
 .debug_line    0x0000000000003211      0x183 /usr/lib/gcc/arm-none-eabi/10.3.1/../../../arm-none-eabi/lib/thumb/v6-m/nofp/libc_nano.a(lib_a-sbrkr.o)
 .debug_line    0x0000000000003394      0x2c1 /usr/lib/gcc/arm-none-eabi/10.3.1/../../../arm-none-eabi/lib/thumb/v6-m/nofp/libc_nano.a(lib_a-wbuf.o)
 .debug_line    0x0000000000003655      0x35c /usr/lib/gcc/arm-none-eabi/10.3.1/../../../arm-none-eabi/lib/thumb/v6-m/nofp/libc_nano.a(lib_a-wsetup.o)
 .debug_line    0x00000000000039b1      0x109 /usr/lib/gcc/arm-none-eabi/10.3.1/../../../arm-none-eabi/lib/thumb/v6-m/nofp/libc_nano.a(lib_a-abort.o)
 .debug_line    0x0000000000003aba      0x499 /usr/lib/gcc/arm-none-eabi/10.3.1/../../../arm-none-eabi/lib/thumb/v6-m/nofp/libc_nano.a(lib_a-fflush.o)
 .debug_line    0x0000000000003f53      0x619 /usr/lib/gcc/arm-none-eabi/10.3.1/../../../arm-none-eabi/lib/thumb/v6-m/nofp/libc_nano.a(lib_a-findfp.o)
 .debug_line    0x000000000000456c      0x648 /usr/lib/gcc/arm-none-eabi/10.3.1/../../../arm-none-eabi/lib/thumb/v6-m/nofp/libc_nano.a(lib_a-fvwrite.o)
 .debug_line    0x0000000000004bb4      0x268 /usr/lib/gcc/arm-none-eabi/10.3.1/../../../arm-none-eabi/lib/thumb/v6-m/nofp/libc_nano.a(lib_a-fwalk.o)
 .debug_line    0x0000000000004e1c      0x346 /usr/lib/gcc/arm-none-eabi/10.3.1/../../../arm-none-eabi/lib/thumb/v6-m/nofp/libc_nano.a(lib_a-makebuf.o)
 .debug_line    0x0000000000005162      0x1b1 /usr/lib/gcc/arm-none-eabi/10.3.1/../../../arm-none-eabi/lib/thumb/v6-m/nofp/libc_nano.a(lib_a-memchr-stub.o)
 .debug_line    0x0000000000005313      0x1e1 /usr/lib/gcc/arm-none-eabi/10.3.1/../../../arm-none-eabi/lib/thumb/v6-m/nofp/libc_nano.a(lib_a-memmove.o)
 .debug_line    0x00000000000054f4      0x13e /usr/lib/gcc/arm-none-eabi/10.3.1/../../../arm-none-eabi/lib/thumb/v6-m/nofp/libc_nano.a(lib_a-mlock.o)
 .debug_line    0x0000000000005632      0x1ab /usr/lib/gcc/arm-none-eabi/10.3.1/../../../arm-none-eabi/lib/thumb/v6-m/nofp/libc_nano.a(lib_a-nano-reallocr.o)
 .debug_line    0x00000000000057dd      0x2ba /usr/lib/gcc/arm-none-eabi/10.3.1/../../../arm-none-eabi/lib/thumb/v6-m/nofp/libc_nano.a(lib_a-reent.o)
 .debug_line    0x0000000000005a97      0x5ec /usr/lib/gcc/arm-none-eabi/10.3.1/../../../arm-none-eabi/lib/thumb/v6-m/nofp/libc_nano.a(lib_a-signal.o)
 .debug_line    0x0000000000006083      0x1aa /usr/lib/gcc/arm-none-eabi/10.3.1/../../../arm-none-eabi/lib/thumb/v6-m/nofp/libc_nano.a(lib_a-signalr.o)
 .debug_line    0x000000000000622d      0x238 /usr/lib/gcc/arm-none-eabi/10.3.1/../../../arm-none-eabi/lib/thumb/v6-m/nofp/libc_nano.a(lib_a-stdio.o)
 .debug_line    0x0000000000006465      0x17e /usr/lib/gcc/arm-none-eabi/10.3.1/../../../arm-none-eabi/lib/thumb/v6-m/nofp/libc_nano.a(lib_a-writer.o)
 .debug_line    0x00000000000065e3      0x183 /usr/lib/gcc/arm-none-eabi/10.3.1/../../../arm-none-eabi/lib/thumb/v6-m/nofp/libc_nano.a(lib_a-closer.o)
 .debug_line    0x0000000000006766      0x1fc /usr/lib/gcc/arm-none-eabi/10.3.1/../../../arm-none-eabi/lib/thumb/v6-m/nofp/libc_nano.a(lib_a-fstatr.o)
 .debug_line    0x0000000000006962      0x184 /usr/lib/gcc/arm-none-eabi/10.3.1/../../../arm-none-eabi/lib/thumb/v6-m/nofp/libc_nano.a(lib_a-isattyr.o)
 .debug_line    0x0000000000006ae6      0x17e /usr/lib/gcc/arm-none-eabi/10.3.1/../../../arm-none-eabi/lib/thumb/v6-m/nofp/libc_nano.a(lib_a-lseekr.o)
 .debug_line    0x0000000000006c64      0x163 /usr/lib/gcc/arm-none-eabi/10.3.1/../../../arm-none-eabi/lib/thumb/v6-m/nofp/libc_nano.a(lib_a-nano-msizer.o)
 .debug_line    0x0000000000006dc7      0x17d /usr/lib/gcc/arm-none-eabi/10.3.1/../../../arm-none-eabi/lib/thumb/v6-m/nofp/libc_nano.a(lib_a-readr.o)
 .debug_line    0x0000000000006f44       0x7e /usr/lib/gcc/arm-none-eabi/10.3.1/../../../arm-none-eabi/lib/thumb/v6-m/nofp/libnosys.a(close.o)
 .debug_line    0x0000000000006fc2      0x148 /usr/lib/gcc/arm-none-eabi/10.3.1/../../../arm-none-eabi/lib/thumb/v6-m/nofp/libnosys.a(fstat.o)
 .debug_line    0x000000000000710a       0x7f /usr/lib/gcc/arm-none-eabi/10.3.1/../../../arm-none-eabi/lib/thumb/v6-m/nofp/libnosys.a(getpid.o)
 .debug_line    0x0000000000007189       0x7c /usr/lib/gcc/arm-none-eabi/10.3.1/../../../arm-none-eabi/lib/thumb/v6-m/nofp/libnosys.a(isatty.o)
 .debug_line    0x0000000000007205       0x7d /usr/lib/gcc/arm-none-eabi/10.3.1/../../../arm-none-eabi/lib/thumb/v6-m/nofp/libnosys.a(kill.o)
 .debug_line    0x0000000000007282       0x7e /usr/lib/gcc/arm-none-eabi/10.3.1/../../../arm-none-eabi/lib/thumb/v6-m/nofp/libnosys.a(lseek.o)
 .debug_line    0x0000000000007300       0x7d /usr/lib/gcc/arm-none-eabi/10.3.1/../../../arm-none-eabi/lib/thumb/v6-m/nofp/libnosys.a(read.o)
 .debug_line    0x000000000000737d       0x86 /usr/lib/gcc/arm-none-eabi/10.3.1/../../../arm-none-eabi/lib/thumb/v6-m/nofp/libnosys.a(sbrk.o)
 .debug_line    0x0000000000007403       0x7e /usr/lib/gcc/arm-none-eabi/10.3.1/../../../arm-none-eabi/lib/thumb/v6-m/nofp/libnosys.a(write.o)
 .debug_line    0x0000000000007481       0x75 /usr/lib/gcc/arm-none-eabi/10.3.1/../../../arm-none-eabi/lib/thumb/v6-m/nofp/libnosys.a(_exit.o)
 .debug_line    0x00000000000074f6       0x68 /usr/lib/gcc/arm-none-eabi/10.3.1/thumb/v6-m/nofp/libgcc.a(_thumb1_case_sqi.o)
 .debug_line    0x000000000000755e       0x68 /usr/lib/gcc/arm-none-eabi/10.3.1/thumb/v6-m/nofp/libgcc.a(_thumb1_case_uqi.o)
 .debug_line    0x00000000000075c6       0x69 /usr/lib/gcc/arm-none-eabi/10.3.1/thumb/v6-m/nofp/libgcc.a(_thumb1_case_uhi.o)
 .debug_line    0x000000000000762f       0x6c /usr/lib/gcc/arm-none-eabi/10.3.1/thumb/v6-m/nofp/libgcc.a(_udivsi3.o)
 .debug_line    0x000000000000769b       0x73 /usr/lib/gcc/arm-none-eabi/10.3.1/thumb/v6-m/nofp/libgcc.a(_divsi3.o)
 .debug_line    0x000000000000770e       0x60 /usr/lib/gcc/arm-none-eabi/10.3.1/thumb/v6-m/nofp/libgcc.a(_dvmd_tls.o)
 .debug_line    0x000000000000776e       0x6b /usr/lib/gcc/arm-none-eabi/10.3.1/thumb/v6-m/nofp/libgcc.a(_aeabi_uldivmod.o)
 .debug_line    0x00000000000077d9      0x12e /usr/lib/gcc/arm-none-eabi/10.3.1/thumb/v6-m/nofp/libgcc.a(_muldi3.o)
 .debug_line    0x0000000000007907      0x1c2 /usr/lib/gcc/arm-none-eabi/10.3.1/thumb/v6-m/nofp/libgcc.a(_udivmoddi4.o)
 .debug_line    0x0000000000007ac9       0x74 /usr/lib/gcc/arm-none-eabi/10.3.1/thumb/v6-m/nofp/libgcc.a(_clzsi2.o)
 .debug_line    0x0000000000007b3d       0x6a /usr/lib/gcc/arm-none-eabi/10.3.1/thumb/v6-m/nofp/libgcc.a(_clzdi2.o)

.debug_str      0x0000000000000000     0x2264
 .debug_str     0x0000000000000000      0x4a5 /usr/lib/gcc/arm-none-eabi/10.3.1/../../../arm-none-eabi/lib/thumb/v6-m/nofp/libc_nano.a(lib_a-impure.o)
                                        0x557 (size before relaxing)
 .debug_str     0x00000000000004a5       0xec /usr/lib/gcc/arm-none-eabi/10.3.1/../../../arm-none-eabi/lib/thumb/v6-m/nofp/libc_nano.a(lib_a-init.o)
                                        0x204 (size before relaxing)
 .debug_str     0x0000000000000591       0x99 /usr/lib/gcc/arm-none-eabi/10.3.1/../../../arm-none-eabi/lib/thumb/v6-m/nofp/libc_nano.a(lib_a-memcmp.o)
                                        0x1a5 (size before relaxing)
 .debug_str     0x000000000000062a       0xd2 /usr/lib/gcc/arm-none-eabi/10.3.1/../../../arm-none-eabi/lib/thumb/v6-m/nofp/libc_nano.a(lib_a-memcpy-stub.o)
                                        0x1de (size before relaxing)
 .debug_str     0x00000000000006fc       0x4f /usr/lib/gcc/arm-none-eabi/10.3.1/../../../arm-none-eabi/lib/thumb/v6-m/nofp/libc_nano.a(lib_a-memset.o)
                                        0x1b9 (size before relaxing)
 .debug_str     0x000000000000074b       0xb8 /usr/lib/gcc/arm-none-eabi/10.3.1/../../../arm-none-eabi/lib/thumb/v6-m/nofp/libc_nano.a(lib_a-rand.o)
                                        0x531 (size before relaxing)
 .debug_str     0x0000000000000803       0xd2 /usr/lib/gcc/arm-none-eabi/10.3.1/../../../arm-none-eabi/lib/thumb/v6-m/nofp/libc_nano.a(lib_a-snprintf.o)
                                        0x554 (size before relaxing)
 .debug_str     0x00000000000008d5       0x4f /usr/lib/gcc/arm-none-eabi/10.3.1/../../../arm-none-eabi/lib/thumb/v6-m/nofp/libc_nano.a(lib_a-strcmp.o)
                                         0xb2 (size before relaxing)
 .debug_str     0x0000000000000924       0x48 /usr/lib/gcc/arm-none-eabi/10.3.1/../../../arm-none-eabi/lib/thumb/v6-m/nofp/libc_nano.a(lib_a-strlen-stub.o)
                                        0x1ca (size before relaxing)
 .debug_str     0x000000000000096c       0x4a /usr/lib/gcc/arm-none-eabi/10.3.1/../../../arm-none-eabi/lib/thumb/v6-m/nofp/libc_nano.a(lib_a-vsprintf.o)
                                        0x548 (size before relaxing)
 .debug_str     0x00000000000009b6       0x5c /usr/lib/gcc/arm-none-eabi/10.3.1/../../../arm-none-eabi/lib/thumb/v6-m/nofp/libc_nano.a(lib_a-assert.o)
                                        0x53b (size before relaxing)
 .debug_str     0x0000000000000a12       0x4b /usr/lib/gcc/arm-none-eabi/10.3.1/../../../arm-none-eabi/lib/thumb/v6-m/nofp/libc_nano.a(lib_a-fprintf.o)
                                        0x544 (size before relaxing)
 .debug_str     0x0000000000000a5d       0x52 /usr/lib/gcc/arm-none-eabi/10.3.1/../../../arm-none-eabi/lib/thumb/v6-m/nofp/libc_nano.a(lib_a-malloc.o)
                                        0x52c (size before relaxing)
 .debug_str     0x0000000000000aaf       0xb4 /usr/lib/gcc/arm-none-eabi/10.3.1/../../../arm-none-eabi/lib/thumb/v6-m/nofp/libc_nano.a(lib_a-nano-freer.o)
                                        0x58e (size before relaxing)
 .debug_str     0x0000000000000b63       0x46 /usr/lib/gcc/arm-none-eabi/10.3.1/../../../arm-none-eabi/lib/thumb/v6-m/nofp/libc_nano.a(lib_a-nano-mallocr.o)
                                        0x5b9 (size before relaxing)
 .debug_str     0x0000000000000ba9      0x287 /usr/lib/gcc/arm-none-eabi/10.3.1/../../../arm-none-eabi/lib/thumb/v6-m/nofp/libc_nano.a(lib_a-nano-svfprintf.o)
                                        0x84e (size before relaxing)
 .debug_str     0x0000000000000e30       0x65 /usr/lib/gcc/arm-none-eabi/10.3.1/../../../arm-none-eabi/lib/thumb/v6-m/nofp/libc_nano.a(lib_a-nano-vfprintf.o)
                                        0x8b2 (size before relaxing)
 .debug_str     0x0000000000000e95       0xa5 /usr/lib/gcc/arm-none-eabi/10.3.1/../../../arm-none-eabi/lib/thumb/v6-m/nofp/libc_nano.a(lib_a-nano-vfprintf_i.o)
                                        0x7f6 (size before relaxing)
 .debug_str     0x0000000000000f3a       0x47 /usr/lib/gcc/arm-none-eabi/10.3.1/../../../arm-none-eabi/lib/thumb/v6-m/nofp/libc_nano.a(lib_a-sbrkr.o)
                                        0x50f (size before relaxing)
 .debug_str     0x0000000000000f81       0x43 /usr/lib/gcc/arm-none-eabi/10.3.1/../../../arm-none-eabi/lib/thumb/v6-m/nofp/libc_nano.a(lib_a-wbuf.o)
                                        0x57b (size before relaxing)
 .debug_str     0x0000000000000fc4       0x40 /usr/lib/gcc/arm-none-eabi/10.3.1/../../../arm-none-eabi/lib/thumb/v6-m/nofp/libc_nano.a(lib_a-wsetup.o)
                                        0x576 (size before relaxing)
 .debug_str     0x0000000000001004       0x3f /usr/lib/gcc/arm-none-eabi/10.3.1/../../../arm-none-eabi/lib/thumb/v6-m/nofp/libc_nano.a(lib_a-abort.o)
                                        0x1a8 (size before relaxing)
 .debug_str     0x0000000000001043       0x63 /usr/lib/gcc/arm-none-eabi/10.3.1/../../../arm-none-eabi/lib/thumb/v6-m/nofp/libc_nano.a(lib_a-fflush.o)
                                        0x5b7 (size before relaxing)
 .debug_str     0x00000000000010a6      0x1ca /usr/lib/gcc/arm-none-eabi/10.3.1/../../../arm-none-eabi/lib/thumb/v6-m/nofp/libc_nano.a(lib_a-findfp.o)
                                        0x730 (size before relaxing)
 .debug_str     0x0000000000001270       0x50 /usr/lib/gcc/arm-none-eabi/10.3.1/../../../arm-none-eabi/lib/thumb/v6-m/nofp/libc_nano.a(lib_a-fvwrite.o)
                                        0x5b7 (size before relaxing)
 .debug_str     0x00000000000012c0       0x41 /usr/lib/gcc/arm-none-eabi/10.3.1/../../../arm-none-eabi/lib/thumb/v6-m/nofp/libc_nano.a(lib_a-fwalk.o)
                                        0x51d (size before relaxing)
 .debug_str     0x0000000000001301      0x16c /usr/lib/gcc/arm-none-eabi/10.3.1/../../../arm-none-eabi/lib/thumb/v6-m/nofp/libc_nano.a(lib_a-makebuf.o)
                                        0x699 (size before relaxing)
 .debug_str     0x000000000000146d       0x5b /usr/lib/gcc/arm-none-eabi/10.3.1/../../../arm-none-eabi/lib/thumb/v6-m/nofp/libc_nano.a(lib_a-memchr-stub.o)
                                        0x1d1 (size before relaxing)
 .debug_str     0x00000000000014c8       0x3e /usr/lib/gcc/arm-none-eabi/10.3.1/../../../arm-none-eabi/lib/thumb/v6-m/nofp/libc_nano.a(lib_a-memmove.o)
                                        0x1d8 (size before relaxing)
 .debug_str     0x0000000000001506       0x4c /usr/lib/gcc/arm-none-eabi/10.3.1/../../../arm-none-eabi/lib/thumb/v6-m/nofp/libc_nano.a(lib_a-mlock.o)
                                        0x525 (size before relaxing)
 .debug_str     0x0000000000001552       0x23 /usr/lib/gcc/arm-none-eabi/10.3.1/../../../arm-none-eabi/lib/thumb/v6-m/nofp/libc_nano.a(lib_a-nano-reallocr.o)
                                        0x578 (size before relaxing)
 .debug_str     0x0000000000001575       0x5e /usr/lib/gcc/arm-none-eabi/10.3.1/../../../arm-none-eabi/lib/thumb/v6-m/nofp/libc_nano.a(lib_a-reent.o)
                                        0x537 (size before relaxing)
 .debug_str     0x00000000000015d3       0xf8 /usr/lib/gcc/arm-none-eabi/10.3.1/../../../arm-none-eabi/lib/thumb/v6-m/nofp/libc_nano.a(lib_a-signal.o)
                                        0x587 (size before relaxing)
 .debug_str     0x00000000000016cb       0x42 /usr/lib/gcc/arm-none-eabi/10.3.1/../../../arm-none-eabi/lib/thumb/v6-m/nofp/libc_nano.a(lib_a-signalr.o)
                                        0x514 (size before relaxing)
 .debug_str     0x000000000000170d       0x92 /usr/lib/gcc/arm-none-eabi/10.3.1/../../../arm-none-eabi/lib/thumb/v6-m/nofp/libc_nano.a(lib_a-stdio.o)
                                        0x56c (size before relaxing)
 .debug_str     0x000000000000179f       0x33 /usr/lib/gcc/arm-none-eabi/10.3.1/../../../arm-none-eabi/lib/thumb/v6-m/nofp/libc_nano.a(lib_a-writer.o)
                                        0x50c (size before relaxing)
 .debug_str     0x00000000000017d2       0x33 /usr/lib/gcc/arm-none-eabi/10.3.1/../../../arm-none-eabi/lib/thumb/v6-m/nofp/libc_nano.a(lib_a-closer.o)
                                        0x4fc (size before relaxing)
 .debug_str     0x0000000000001805       0x40 /usr/lib/gcc/arm-none-eabi/10.3.1/../../../arm-none-eabi/lib/thumb/v6-m/nofp/libc_nano.a(lib_a-fstatr.o)
                                        0x64e (size before relaxing)
 .debug_str     0x0000000000001845       0x3c /usr/lib/gcc/arm-none-eabi/10.3.1/../../../arm-none-eabi/lib/thumb/v6-m/nofp/libc_nano.a(lib_a-isattyr.o)
                                        0x506 (size before relaxing)
 .debug_str     0x0000000000001881       0x3a /usr/lib/gcc/arm-none-eabi/10.3.1/../../../arm-none-eabi/lib/thumb/v6-m/nofp/libc_nano.a(lib_a-lseekr.o)
                                        0x50a (size before relaxing)
 .debug_str     0x00000000000018bb        0xf /usr/lib/gcc/arm-none-eabi/10.3.1/../../../arm-none-eabi/lib/thumb/v6-m/nofp/libc_nano.a(lib_a-nano-msizer.o)
                                        0x556 (size before relaxing)
 .debug_str     0x00000000000018ca       0x32 /usr/lib/gcc/arm-none-eabi/10.3.1/../../../arm-none-eabi/lib/thumb/v6-m/nofp/libc_nano.a(lib_a-readr.o)
                                        0x50a (size before relaxing)
 .debug_str     0x00000000000018fc       0xeb /usr/lib/gcc/arm-none-eabi/10.3.1/../../../arm-none-eabi/lib/thumb/v6-m/nofp/libnosys.a(close.o)
                                        0x18d (size before relaxing)
 .debug_str     0x00000000000019e7       0x2f /usr/lib/gcc/arm-none-eabi/10.3.1/../../../arm-none-eabi/lib/thumb/v6-m/nofp/libnosys.a(fstat.o)
                                        0x2d9 (size before relaxing)
 .debug_str     0x0000000000001a16       0x30 /usr/lib/gcc/arm-none-eabi/10.3.1/../../../arm-none-eabi/lib/thumb/v6-m/nofp/libnosys.a(getpid.o)
                                        0x188 (size before relaxing)
 .debug_str     0x0000000000001a46       0x30 /usr/lib/gcc/arm-none-eabi/10.3.1/../../../arm-none-eabi/lib/thumb/v6-m/nofp/libnosys.a(isatty.o)
                                        0x18d (size before relaxing)
 .debug_str     0x0000000000001a76       0x2e /usr/lib/gcc/arm-none-eabi/10.3.1/../../../arm-none-eabi/lib/thumb/v6-m/nofp/libnosys.a(kill.o)
                                        0x184 (size before relaxing)
 .debug_str     0x0000000000001aa4       0x2f /usr/lib/gcc/arm-none-eabi/10.3.1/../../../arm-none-eabi/lib/thumb/v6-m/nofp/libnosys.a(lseek.o)
                                        0x18b (size before relaxing)
 .debug_str     0x0000000000001ad3       0x2e /usr/lib/gcc/arm-none-eabi/10.3.1/../../../arm-none-eabi/lib/thumb/v6-m/nofp/libnosys.a(read.o)
                                        0x189 (size before relaxing)
 .debug_str     0x0000000000001b01       0x3c /usr/lib/gcc/arm-none-eabi/10.3.1/../../../arm-none-eabi/lib/thumb/v6-m/nofp/libnosys.a(sbrk.o)
                                        0x10a (size before relaxing)
 .debug_str     0x0000000000001b3d       0x2f /usr/lib/gcc/arm-none-eabi/10.3.1/../../../arm-none-eabi/lib/thumb/v6-m/nofp/libnosys.a(write.o)
                                        0x18b (size before relaxing)
 .debug_str     0x0000000000001b6c       0x2f /usr/lib/gcc/arm-none-eabi/10.3.1/../../../arm-none-eabi/lib/thumb/v6-m/nofp/libnosys.a(_exit.o)
                                        0x17a (size before relaxing)
 .debug_str     0x0000000000001b9b       0x9a /usr/lib/gcc/arm-none-eabi/10.3.1/thumb/v6-m/nofp/libgcc.a(_thumb1_case_sqi.o)
                                         0xa6 (size before relaxing)
 .debug_str     0x0000000000001c35       0xa6 /usr/lib/gcc/arm-none-eabi/10.3.1/thumb/v6-m/nofp/libgcc.a(_thumb1_case_uqi.o)
 .debug_str     0x0000000000001c35       0xa6 /usr/lib/gcc/arm-none-eabi/10.3.1/thumb/v6-m/nofp/libgcc.a(_thumb1_case_uhi.o)
 .debug_str     0x0000000000001c35       0xa6 /usr/lib/gcc/arm-none-eabi/10.3.1/thumb/v6-m/nofp/libgcc.a(_udivsi3.o)
 .debug_str     0x0000000000001c35       0xa6 /usr/lib/gcc/arm-none-eabi/10.3.1/thumb/v6-m/nofp/libgcc.a(_divsi3.o)
 .debug_str     0x0000000000001c35       0xa6 /usr/lib/gcc/arm-none-eabi/10.3.1/thumb/v6-m/nofp/libgcc.a(_dvmd_tls.o)
 .debug_str     0x0000000000001c35       0x30 /usr/lib/gcc/arm-none-eabi/10.3.1/thumb/v6-m/nofp/libgcc.a(_aeabi_uldivmod.o)
                                         0xa6 (size before relaxing)
 .debug_str     0x0000000000001c65      0x52d /usr/lib/gcc/arm-none-eabi/10.3.1/thumb/v6-m/nofp/libgcc.a(_muldi3.o)
                                        0x62c (size before relaxing)
 .debug_str     0x0000000000002192       0xd2 /usr/lib/gcc/arm-none-eabi/10.3.1/thumb/v6-m/nofp/libgcc.a(_udivmoddi4.o)
                                        0x602 (size before relaxing)
 .debug_str     0x0000000000002264       0xa6 /usr/lib/gcc/arm-none-eabi/10.3.1/thumb/v6-m/nofp/libgcc.a(_clzsi2.o)
 .debug_str     0x0000000000002264       0xa6 /usr/lib/gcc/arm-none-eabi/10.3.1/thumb/v6-m/nofp/libgcc.a(_clzdi2.o)

.debug_loc      0x0000000000000000     0x6e53
 .debug_loc     0x0000000000000000       0x98 /usr/lib/gcc/arm-none-eabi/10.3.1/../../../arm-none-eabi/lib/thumb/v6-m/nofp/libc_nano.a(lib_a-init.o)
 .debug_loc     0x0000000000000098      0x1f1 /usr/lib/gcc/arm-none-eabi/10.3.1/../../../arm-none-eabi/lib/thumb/v6-m/nofp/libc_nano.a(lib_a-memcmp.o)
 .debug_loc     0x0000000000000289      0x457 /usr/lib/gcc/arm-none-eabi/10.3.1/../../../arm-none-eabi/lib/thumb/v6-m/nofp/libc_nano.a(lib_a-memcpy-stub.o)
 .debug_loc     0x00000000000006e0      0x2a3 /usr/lib/gcc/arm-none-eabi/10.3.1/../../../arm-none-eabi/lib/thumb/v6-m/nofp/libc_nano.a(lib_a-memset.o)
 .debug_loc     0x0000000000000983       0xfc /usr/lib/gcc/arm-none-eabi/10.3.1/../../../arm-none-eabi/lib/thumb/v6-m/nofp/libc_nano.a(lib_a-rand.o)
 .debug_loc     0x0000000000000a7f      0x276 /usr/lib/gcc/arm-none-eabi/10.3.1/../../../arm-none-eabi/lib/thumb/v6-m/nofp/libc_nano.a(lib_a-snprintf.o)
 .debug_loc     0x0000000000000cf5       0x90 /usr/lib/gcc/arm-none-eabi/10.3.1/../../../arm-none-eabi/lib/thumb/v6-m/nofp/libc_nano.a(lib_a-strlen-stub.o)
 .debug_loc     0x0000000000000d85      0x191 /usr/lib/gcc/arm-none-eabi/10.3.1/../../../arm-none-eabi/lib/thumb/v6-m/nofp/libc_nano.a(lib_a-vsprintf.o)
 .debug_loc     0x0000000000000f16      0x16c /usr/lib/gcc/arm-none-eabi/10.3.1/../../../arm-none-eabi/lib/thumb/v6-m/nofp/libc_nano.a(lib_a-assert.o)
 .debug_loc     0x0000000000001082       0xa6 /usr/lib/gcc/arm-none-eabi/10.3.1/../../../arm-none-eabi/lib/thumb/v6-m/nofp/libc_nano.a(lib_a-fprintf.o)
 .debug_loc     0x0000000000001128       0x64 /usr/lib/gcc/arm-none-eabi/10.3.1/../../../arm-none-eabi/lib/thumb/v6-m/nofp/libc_nano.a(lib_a-malloc.o)
 .debug_loc     0x000000000000118c      0x1d8 /usr/lib/gcc/arm-none-eabi/10.3.1/../../../arm-none-eabi/lib/thumb/v6-m/nofp/libc_nano.a(lib_a-nano-freer.o)
 .debug_loc     0x0000000000001364      0x2a9 /usr/lib/gcc/arm-none-eabi/10.3.1/../../../arm-none-eabi/lib/thumb/v6-m/nofp/libc_nano.a(lib_a-nano-mallocr.o)
 .debug_loc     0x000000000000160d      0xa08 /usr/lib/gcc/arm-none-eabi/10.3.1/../../../arm-none-eabi/lib/thumb/v6-m/nofp/libc_nano.a(lib_a-nano-svfprintf.o)
 .debug_loc     0x0000000000002015      0xa16 /usr/lib/gcc/arm-none-eabi/10.3.1/../../../arm-none-eabi/lib/thumb/v6-m/nofp/libc_nano.a(lib_a-nano-vfprintf.o)
 .debug_loc     0x0000000000002a2b      0x660 /usr/lib/gcc/arm-none-eabi/10.3.1/../../../arm-none-eabi/lib/thumb/v6-m/nofp/libc_nano.a(lib_a-nano-vfprintf_i.o)
 .debug_loc     0x000000000000308b       0x79 /usr/lib/gcc/arm-none-eabi/10.3.1/../../../arm-none-eabi/lib/thumb/v6-m/nofp/libc_nano.a(lib_a-sbrkr.o)
 .debug_loc     0x0000000000003104      0x1a3 /usr/lib/gcc/arm-none-eabi/10.3.1/../../../arm-none-eabi/lib/thumb/v6-m/nofp/libc_nano.a(lib_a-wbuf.o)
 .debug_loc     0x00000000000032a7       0xb7 /usr/lib/gcc/arm-none-eabi/10.3.1/../../../arm-none-eabi/lib/thumb/v6-m/nofp/libc_nano.a(lib_a-wsetup.o)
 .debug_loc     0x000000000000335e      0x4db /usr/lib/gcc/arm-none-eabi/10.3.1/../../../arm-none-eabi/lib/thumb/v6-m/nofp/libc_nano.a(lib_a-fflush.o)
 .debug_loc     0x0000000000003839      0x411 /usr/lib/gcc/arm-none-eabi/10.3.1/../../../arm-none-eabi/lib/thumb/v6-m/nofp/libc_nano.a(lib_a-findfp.o)
 .debug_loc     0x0000000000003c4a      0x82c /usr/lib/gcc/arm-none-eabi/10.3.1/../../../arm-none-eabi/lib/thumb/v6-m/nofp/libc_nano.a(lib_a-fvwrite.o)
 .debug_loc     0x0000000000004476      0x226 /usr/lib/gcc/arm-none-eabi/10.3.1/../../../arm-none-eabi/lib/thumb/v6-m/nofp/libc_nano.a(lib_a-fwalk.o)
 .debug_loc     0x000000000000469c      0x371 /usr/lib/gcc/arm-none-eabi/10.3.1/../../../arm-none-eabi/lib/thumb/v6-m/nofp/libc_nano.a(lib_a-makebuf.o)
 .debug_loc     0x0000000000004a0d      0x21d /usr/lib/gcc/arm-none-eabi/10.3.1/../../../arm-none-eabi/lib/thumb/v6-m/nofp/libc_nano.a(lib_a-memchr-stub.o)
 .debug_loc     0x0000000000004c2a      0x508 /usr/lib/gcc/arm-none-eabi/10.3.1/../../../arm-none-eabi/lib/thumb/v6-m/nofp/libc_nano.a(lib_a-memmove.o)
 .debug_loc     0x0000000000005132      0x17b /usr/lib/gcc/arm-none-eabi/10.3.1/../../../arm-none-eabi/lib/thumb/v6-m/nofp/libc_nano.a(lib_a-nano-reallocr.o)
 .debug_loc     0x00000000000052ad      0x199 /usr/lib/gcc/arm-none-eabi/10.3.1/../../../arm-none-eabi/lib/thumb/v6-m/nofp/libc_nano.a(lib_a-reent.o)
 .debug_loc     0x0000000000005446      0x886 /usr/lib/gcc/arm-none-eabi/10.3.1/../../../arm-none-eabi/lib/thumb/v6-m/nofp/libc_nano.a(lib_a-signal.o)
 .debug_loc     0x0000000000005ccc       0xe5 /usr/lib/gcc/arm-none-eabi/10.3.1/../../../arm-none-eabi/lib/thumb/v6-m/nofp/libc_nano.a(lib_a-signalr.o)
 .debug_loc     0x0000000000005db1      0x402 /usr/lib/gcc/arm-none-eabi/10.3.1/../../../arm-none-eabi/lib/thumb/v6-m/nofp/libc_nano.a(lib_a-stdio.o)
 .debug_loc     0x00000000000061b3       0xea /usr/lib/gcc/arm-none-eabi/10.3.1/../../../arm-none-eabi/lib/thumb/v6-m/nofp/libc_nano.a(lib_a-writer.o)
 .debug_loc     0x000000000000629d       0x79 /usr/lib/gcc/arm-none-eabi/10.3.1/../../../arm-none-eabi/lib/thumb/v6-m/nofp/libc_nano.a(lib_a-closer.o)
 .debug_loc     0x0000000000006316       0xab /usr/lib/gcc/arm-none-eabi/10.3.1/../../../arm-none-eabi/lib/thumb/v6-m/nofp/libc_nano.a(lib_a-fstatr.o)
 .debug_loc     0x00000000000063c1       0x79 /usr/lib/gcc/arm-none-eabi/10.3.1/../../../arm-none-eabi/lib/thumb/v6-m/nofp/libc_nano.a(lib_a-isattyr.o)
 .debug_loc     0x000000000000643a       0xea /usr/lib/gcc/arm-none-eabi/10.3.1/../../../arm-none-eabi/lib/thumb/v6-m/nofp/libc_nano.a(lib_a-lseekr.o)
 .debug_loc     0x0000000000006524       0xcc /usr/lib/gcc/arm-none-eabi/10.3.1/../../../arm-none-eabi/lib/thumb/v6-m/nofp/libc_nano.a(lib_a-nano-msizer.o)
 .debug_loc     0x00000000000065f0       0xea /usr/lib/gcc/arm-none-eabi/10.3.1/../../../arm-none-eabi/lib/thumb/v6-m/nofp/libc_nano.a(lib_a-readr.o)
 .debug_loc     0x00000000000066da       0x25 /usr/lib/gcc/arm-none-eabi/10.3.1/../../../arm-none-eabi/lib/thumb/v6-m/nofp/libnosys.a(close.o)
 .debug_loc     0x00000000000066ff       0x25 /usr/lib/gcc/arm-none-eabi/10.3.1/../../../arm-none-eabi/lib/thumb/v6-m/nofp/libnosys.a(fstat.o)
 .debug_loc     0x0000000000006724       0x25 /usr/lib/gcc/arm-none-eabi/10.3.1/../../../arm-none-eabi/lib/thumb/v6-m/nofp/libnosys.a(isatty.o)
 .debug_loc     0x0000000000006749       0x25 /usr/lib/gcc/arm-none-eabi/10.3.1/../../../arm-none-eabi/lib/thumb/v6-m/nofp/libnosys.a(kill.o)
 .debug_loc     0x000000000000676e       0x4a /usr/lib/gcc/arm-none-eabi/10.3.1/../../../arm-none-eabi/lib/thumb/v6-m/nofp/libnosys.a(lseek.o)
 .debug_loc     0x00000000000067b8       0x4a /usr/lib/gcc/arm-none-eabi/10.3.1/../../../arm-none-eabi/lib/thumb/v6-m/nofp/libnosys.a(read.o)
 .debug_loc     0x0000000000006802       0x58 /usr/lib/gcc/arm-none-eabi/10.3.1/../../../arm-none-eabi/lib/thumb/v6-m/nofp/libnosys.a(sbrk.o)
 .debug_loc     0x000000000000685a       0x4a /usr/lib/gcc/arm-none-eabi/10.3.1/../../../arm-none-eabi/lib/thumb/v6-m/nofp/libnosys.a(write.o)
 .debug_loc     0x00000000000068a4       0x15 /usr/lib/gcc/arm-none-eabi/10.3.1/../../../arm-none-eabi/lib/thumb/v6-m/nofp/libnosys.a(_exit.o)
 .debug_loc     0x00000000000068b9      0x1c7 /usr/lib/gcc/arm-none-eabi/10.3.1/thumb/v6-m/nofp/libgcc.a(_muldi3.o)
 .debug_loc     0x0000000000006a80      0x3d3 /usr/lib/gcc/arm-none-eabi/10.3.1/thumb/v6-m/nofp/libgcc.a(_udivmoddi4.o)

.debug_frame    0x0000000000000000      0xdf8
 .debug_frame   0x0000000000000000       0x2c /usr/lib/gcc/arm-none-eabi/10.3.1/../../../arm-none-eabi/lib/thumb/v6-m/nofp/libc_nano.a(lib_a-init.o)
 .debug_frame   0x000000000000002c       0x2c /usr/lib/gcc/arm-none-eabi/10.3.1/../../../arm-none-eabi/lib/thumb/v6-m/nofp/libc_nano.a(lib_a-memcmp.o)
 .debug_frame   0x0000000000000058       0x34 /usr/lib/gcc/arm-none-eabi/10.3.1/../../../arm-none-eabi/lib/thumb/v6-m/nofp/libc_nano.a(lib_a-memcpy-stub.o)
 .debug_frame   0x000000000000008c       0x30 /usr/lib/gcc/arm-none-eabi/10.3.1/../../../arm-none-eabi/lib/thumb/v6-m/nofp/libc_nano.a(lib_a-memset.o)
 .debug_frame   0x00000000000000bc       0x48 /usr/lib/gcc/arm-none-eabi/10.3.1/../../../arm-none-eabi/lib/thumb/v6-m/nofp/libc_nano.a(lib_a-rand.o)
 .debug_frame   0x0000000000000104       0x50 /usr/lib/gcc/arm-none-eabi/10.3.1/../../../arm-none-eabi/lib/thumb/v6-m/nofp/libc_nano.a(lib_a-snprintf.o)
 .debug_frame   0x0000000000000154       0x20 /usr/lib/gcc/arm-none-eabi/10.3.1/../../../arm-none-eabi/lib/thumb/v6-m/nofp/libc_nano.a(lib_a-strcmp.o)
 .debug_frame   0x0000000000000174       0x28 /usr/lib/gcc/arm-none-eabi/10.3.1/../../../arm-none-eabi/lib/thumb/v6-m/nofp/libc_nano.a(lib_a-strlen-stub.o)
 .debug_frame   0x000000000000019c       0x44 /usr/lib/gcc/arm-none-eabi/10.3.1/../../../arm-none-eabi/lib/thumb/v6-m/nofp/libc_nano.a(lib_a-vsprintf.o)
 .debug_frame   0x00000000000001e0       0x44 /usr/lib/gcc/arm-none-eabi/10.3.1/../../../arm-none-eabi/lib/thumb/v6-m/nofp/libc_nano.a(lib_a-assert.o)
 .debug_frame   0x0000000000000224       0x48 /usr/lib/gcc/arm-none-eabi/10.3.1/../../../arm-none-eabi/lib/thumb/v6-m/nofp/libc_nano.a(lib_a-fprintf.o)
 .debug_frame   0x000000000000026c       0x40 /usr/lib/gcc/arm-none-eabi/10.3.1/../../../arm-none-eabi/lib/thumb/v6-m/nofp/libc_nano.a(lib_a-malloc.o)
 .debug_frame   0x00000000000002ac       0x2c /usr/lib/gcc/arm-none-eabi/10.3.1/../../../arm-none-eabi/lib/thumb/v6-m/nofp/libc_nano.a(lib_a-nano-freer.o)
 .debug_frame   0x00000000000002d8       0x30 /usr/lib/gcc/arm-none-eabi/10.3.1/../../../arm-none-eabi/lib/thumb/v6-m/nofp/libc_nano.a(lib_a-nano-mallocr.o)
 .debug_frame   0x0000000000000308       0x90 /usr/lib/gcc/arm-none-eabi/10.3.1/../../../arm-none-eabi/lib/thumb/v6-m/nofp/libc_nano.a(lib_a-nano-svfprintf.o)
 .debug_frame   0x0000000000000398       0xa4 /usr/lib/gcc/arm-none-eabi/10.3.1/../../../arm-none-eabi/lib/thumb/v6-m/nofp/libc_nano.a(lib_a-nano-vfprintf.o)
 .debug_frame   0x000000000000043c       0x68 /usr/lib/gcc/arm-none-eabi/10.3.1/../../../arm-none-eabi/lib/thumb/v6-m/nofp/libc_nano.a(lib_a-nano-vfprintf_i.o)
 .debug_frame   0x00000000000004a4       0x2c /usr/lib/gcc/arm-none-eabi/10.3.1/../../../arm-none-eabi/lib/thumb/v6-m/nofp/libc_nano.a(lib_a-sbrkr.o)
 .debug_frame   0x00000000000004d0       0x48 /usr/lib/gcc/arm-none-eabi/10.3.1/../../../arm-none-eabi/lib/thumb/v6-m/nofp/libc_nano.a(lib_a-wbuf.o)
 .debug_frame   0x0000000000000518       0x2c /usr/lib/gcc/arm-none-eabi/10.3.1/../../../arm-none-eabi/lib/thumb/v6-m/nofp/libc_nano.a(lib_a-wsetup.o)
 .debug_frame   0x0000000000000544       0x28 /usr/lib/gcc/arm-none-eabi/10.3.1/../../../arm-none-eabi/lib/thumb/v6-m/nofp/libc_nano.a(lib_a-abort.o)
 .debug_frame   0x000000000000056c       0x6c /usr/lib/gcc/arm-none-eabi/10.3.1/../../../arm-none-eabi/lib/thumb/v6-m/nofp/libc_nano.a(lib_a-fflush.o)
 .debug_frame   0x00000000000005d8      0x154 /usr/lib/gcc/arm-none-eabi/10.3.1/../../../arm-none-eabi/lib/thumb/v6-m/nofp/libc_nano.a(lib_a-findfp.o)
 .debug_frame   0x000000000000072c       0x3c /usr/lib/gcc/arm-none-eabi/10.3.1/../../../arm-none-eabi/lib/thumb/v6-m/nofp/libc_nano.a(lib_a-fvwrite.o)
 .debug_frame   0x0000000000000768       0x5c /usr/lib/gcc/arm-none-eabi/10.3.1/../../../arm-none-eabi/lib/thumb/v6-m/nofp/libc_nano.a(lib_a-fwalk.o)
 .debug_frame   0x00000000000007c4       0x50 /usr/lib/gcc/arm-none-eabi/10.3.1/../../../arm-none-eabi/lib/thumb/v6-m/nofp/libc_nano.a(lib_a-makebuf.o)
 .debug_frame   0x0000000000000814       0x2c /usr/lib/gcc/arm-none-eabi/10.3.1/../../../arm-none-eabi/lib/thumb/v6-m/nofp/libc_nano.a(lib_a-memchr-stub.o)
 .debug_frame   0x0000000000000840       0x30 /usr/lib/gcc/arm-none-eabi/10.3.1/../../../arm-none-eabi/lib/thumb/v6-m/nofp/libc_nano.a(lib_a-memmove.o)
 .debug_frame   0x0000000000000870       0x30 /usr/lib/gcc/arm-none-eabi/10.3.1/../../../arm-none-eabi/lib/thumb/v6-m/nofp/libc_nano.a(lib_a-mlock.o)
 .debug_frame   0x00000000000008a0       0x30 /usr/lib/gcc/arm-none-eabi/10.3.1/../../../arm-none-eabi/lib/thumb/v6-m/nofp/libc_nano.a(lib_a-nano-reallocr.o)
 .debug_frame   0x00000000000008d0       0x50 /usr/lib/gcc/arm-none-eabi/10.3.1/../../../arm-none-eabi/lib/thumb/v6-m/nofp/libc_nano.a(lib_a-reent.o)
 .debug_frame   0x0000000000000920       0xec /usr/lib/gcc/arm-none-eabi/10.3.1/../../../arm-none-eabi/lib/thumb/v6-m/nofp/libc_nano.a(lib_a-signal.o)
 .debug_frame   0x0000000000000a0c       0x44 /usr/lib/gcc/arm-none-eabi/10.3.1/../../../arm-none-eabi/lib/thumb/v6-m/nofp/libc_nano.a(lib_a-signalr.o)
 .debug_frame   0x0000000000000a50       0x90 /usr/lib/gcc/arm-none-eabi/10.3.1/../../../arm-none-eabi/lib/thumb/v6-m/nofp/libc_nano.a(lib_a-stdio.o)
 .debug_frame   0x0000000000000ae0       0x2c /usr/lib/gcc/arm-none-eabi/10.3.1/../../../arm-none-eabi/lib/thumb/v6-m/nofp/libc_nano.a(lib_a-writer.o)
 .debug_frame   0x0000000000000b0c       0x2c /usr/lib/gcc/arm-none-eabi/10.3.1/../../../arm-none-eabi/lib/thumb/v6-m/nofp/libc_nano.a(lib_a-closer.o)
 .debug_frame   0x0000000000000b38       0x2c /usr/lib/gcc/arm-none-eabi/10.3.1/../../../arm-none-eabi/lib/thumb/v6-m/nofp/libc_nano.a(lib_a-fstatr.o)
 .debug_frame   0x0000000000000b64       0x2c /usr/lib/gcc/arm-none-eabi/10.3.1/../../../arm-none-eabi/lib/thumb/v6-m/nofp/libc_nano.a(lib_a-isattyr.o)
 .debug_frame   0x0000000000000b90       0x2c /usr/lib/gcc/arm-none-eabi/10.3.1/../../../arm-none-eabi/lib/thumb/v6-m/nofp/libc_nano.a(lib_a-lseekr.o)
 .debug_frame   0x0000000000000bbc       0x20 /usr/lib/gcc/arm-none-eabi/10.3.1/../../../arm-none-eabi/lib/thumb/v6-m/nofp/libc_nano.a(lib_a-nano-msizer.o)
 .debug_frame   0x0000000000000bdc       0x2c /usr/lib/gcc/arm-none-eabi/10.3.1/../../../arm-none-eabi/lib/thumb/v6-m/nofp/libc_nano.a(lib_a-readr.o)
 .debug_frame   0x0000000000000c08       0x20 /usr/lib/gcc/arm-none-eabi/10.3.1/../../../arm-none-eabi/lib/thumb/v6-m/nofp/libnosys.a(close.o)
 .debug_frame   0x0000000000000c28       0x20 /usr/lib/gcc/arm-none-eabi/10.3.1/../../../arm-none-eabi/lib/thumb/v6-m/nofp/libnosys.a(fstat.o)
 .debug_frame   0x0000000000000c48       0x20 /usr/lib/gcc/arm-none-eabi/10.3.1/../../../arm-none-eabi/lib/thumb/v6-m/nofp/libnosys.a(getpid.o)
 .debug_frame   0x0000000000000c68       0x20 /usr/lib/gcc/arm-none-eabi/10.3.1/../../../arm-none-eabi/lib/thumb/v6-m/nofp/libnosys.a(isatty.o)
 .debug_frame   0x0000000000000c88       0x20 /usr/lib/gcc/arm-none-eabi/10.3.1/../../../arm-none-eabi/lib/thumb/v6-m/nofp/libnosys.a(kill.o)
 .debug_frame   0x0000000000000ca8       0x20 /usr/lib/gcc/arm-none-eabi/10.3.1/../../../arm-none-eabi/lib/thumb/v6-m/nofp/libnosys.a(lseek.o)
 .debug_frame   0x0000000000000cc8       0x20 /usr/lib/gcc/arm-none-eabi/10.3.1/../../../arm-none-eabi/lib/thumb/v6-m/nofp/libnosys.a(read.o)
 .debug_frame   0x0000000000000ce8       0x20 /usr/lib/gcc/arm-none-eabi/10.3.1/../../../arm-none-eabi/lib/thumb/v6-m/nofp/libnosys.a(sbrk.o)
 .debug_frame   0x0000000000000d08       0x20 /usr/lib/gcc/arm-none-eabi/10.3.1/../../../arm-none-eabi/lib/thumb/v6-m/nofp/libnosys.a(write.o)
 .debug_frame   0x0000000000000d28       0x20 /usr/lib/gcc/arm-none-eabi/10.3.1/../../../arm-none-eabi/lib/thumb/v6-m/nofp/libnosys.a(_exit.o)
 .debug_frame   0x0000000000000d48       0x20 /usr/lib/gcc/arm-none-eabi/10.3.1/thumb/v6-m/nofp/libgcc.a(_udivsi3.o)
 .debug_frame   0x0000000000000d68       0x20 /usr/lib/gcc/arm-none-eabi/10.3.1/thumb/v6-m/nofp/libgcc.a(_divsi3.o)
 .debug_frame   0x0000000000000d88       0x34 /usr/lib/gcc/arm-none-eabi/10.3.1/thumb/v6-m/nofp/libgcc.a(_muldi3.o)
 .debug_frame   0x0000000000000dbc       0x3c /usr/lib/gcc/arm-none-eabi/10.3.1/thumb/v6-m/nofp/libgcc.a(_udivmoddi4.o)

.debug_ranges   0x0000000000000000      0x470
 .debug_ranges  0x0000000000000000       0x40 /usr/lib/gcc/arm-none-eabi/10.3.1/../../../arm-none-eabi/lib/thumb/v6-m/nofp/libc_nano.a(lib_a-rand.o)
 .debug_ranges  0x0000000000000040       0x18 /usr/lib/gcc/arm-none-eabi/10.3.1/../../../arm-none-eabi/lib/thumb/v6-m/nofp/libc_nano.a(lib_a-nano-freer.o)
 .debug_ranges  0x0000000000000058       0x40 /usr/lib/gcc/arm-none-eabi/10.3.1/../../../arm-none-eabi/lib/thumb/v6-m/nofp/libc_nano.a(lib_a-nano-mallocr.o)
 .debug_ranges  0x0000000000000098       0x50 /usr/lib/gcc/arm-none-eabi/10.3.1/../../../arm-none-eabi/lib/thumb/v6-m/nofp/libc_nano.a(lib_a-nano-svfprintf.o)
 .debug_ranges  0x00000000000000e8       0x30 /usr/lib/gcc/arm-none-eabi/10.3.1/../../../arm-none-eabi/lib/thumb/v6-m/nofp/libc_nano.a(lib_a-nano-vfprintf.o)
 .debug_ranges  0x0000000000000118       0x88 /usr/lib/gcc/arm-none-eabi/10.3.1/../../../arm-none-eabi/lib/thumb/v6-m/nofp/libc_nano.a(lib_a-nano-vfprintf_i.o)
 .debug_ranges  0x00000000000001a0       0x30 /usr/lib/gcc/arm-none-eabi/10.3.1/../../../arm-none-eabi/lib/thumb/v6-m/nofp/libc_nano.a(lib_a-wbuf.o)
 .debug_ranges  0x00000000000001d0       0x38 /usr/lib/gcc/arm-none-eabi/10.3.1/../../../arm-none-eabi/lib/thumb/v6-m/nofp/libc_nano.a(lib_a-wsetup.o)
 .debug_ranges  0x0000000000000208       0x98 /usr/lib/gcc/arm-none-eabi/10.3.1/../../../arm-none-eabi/lib/thumb/v6-m/nofp/libc_nano.a(lib_a-fflush.o)
 .debug_ranges  0x00000000000002a0       0xd0 /usr/lib/gcc/arm-none-eabi/10.3.1/../../../arm-none-eabi/lib/thumb/v6-m/nofp/libc_nano.a(lib_a-findfp.o)
 .debug_ranges  0x0000000000000370       0x30 /usr/lib/gcc/arm-none-eabi/10.3.1/../../../arm-none-eabi/lib/thumb/v6-m/nofp/libc_nano.a(lib_a-fvwrite.o)
 .debug_ranges  0x00000000000003a0       0x30 /usr/lib/gcc/arm-none-eabi/10.3.1/../../../arm-none-eabi/lib/thumb/v6-m/nofp/libc_nano.a(lib_a-makebuf.o)
 .debug_ranges  0x00000000000003d0       0x70 /usr/lib/gcc/arm-none-eabi/10.3.1/../../../arm-none-eabi/lib/thumb/v6-m/nofp/libc_nano.a(lib_a-signal.o)
 .debug_ranges  0x0000000000000440       0x30 /usr/lib/gcc/arm-none-eabi/10.3.1/thumb/v6-m/nofp/libgcc.a(_muldi3.o)

.stab           0x0000000000000000       0xcc
 .stab          0x0000000000000000       0x24 /usr/lib/gcc/arm-none-eabi/10.3.1/../../../arm-none-eabi/lib/thumb/v6-m/nofp/libnosys.a(close.o)
 .stab          0x0000000000000024       0x18 /usr/lib/gcc/arm-none-eabi/10.3.1/../../../arm-none-eabi/lib/thumb/v6-m/nofp/libnosys.a(fstat.o)
                                         0x24 (size before relaxing)
 .stab          0x000000000000003c       0x18 /usr/lib/gcc/arm-none-eabi/10.3.1/../../../arm-none-eabi/lib/thumb/v6-m/nofp/libnosys.a(getpid.o)
                                         0x24 (size before relaxing)
 .stab          0x0000000000000054       0x18 /usr/lib/gcc/arm-none-eabi/10.3.1/../../../arm-none-eabi/lib/thumb/v6-m/nofp/libnosys.a(isatty.o)
                                         0x24 (size before relaxing)
 .stab          0x000000000000006c       0x18 /usr/lib/gcc/arm-none-eabi/10.3.1/../../../arm-none-eabi/lib/thumb/v6-m/nofp/libnosys.a(kill.o)
                                         0x24 (size before relaxing)
 .stab          0x0000000000000084       0x18 /usr/lib/gcc/arm-none-eabi/10.3.1/../../../arm-none-eabi/lib/thumb/v6-m/nofp/libnosys.a(lseek.o)
                                         0x24 (size before relaxing)
 .stab          0x000000000000009c       0x18 /usr/lib/gcc/arm-none-eabi/10.3.1/../../../arm-none-eabi/lib/thumb/v6-m/nofp/libnosys.a(read.o)
                                         0x24 (size before relaxing)
 .stab          0x00000000000000b4       0x18 /usr/lib/gcc/arm-none-eabi/10.3.1/../../../arm-none-eabi/lib/thumb/v6-m/nofp/libnosys.a(write.o)
                                         0x24 (size before relaxing)

.stabstr        0x0000000000000000      0x1b9
 .stabstr       0x0000000000000000      0x1b9 /usr/lib/gcc/arm-none-eabi/10.3.1/../../../arm-none-eabi/lib/thumb/v6-m/nofp/libnosys.a(close.o)

Cross Reference Table

Symbol                                            File
ADC1_COMP_IRQHandler                              build_sx1261_l0/startup_stm32l071xx.o
AES_CMAC_Final                                    lbm/lbm_lib/./build/basic_modem.a(cmac.o)
                                                  lbm/lbm_lib/./build/basic_modem.a(soft_se.o)
AES_CMAC_Init                                     lbm/lbm_lib/./build/basic_modem.a(cmac.o)
                                                  lbm/lbm_lib/./build/basic_modem.a(soft_se.o)
AES_CMAC_SetKey                                   lbm/lbm_lib/./build/basic_modem.a(cmac.o)
                                                  lbm/lbm_lib/./build/basic_modem.a(soft_se.o)
AES_CMAC_Update                                   lbm/lbm_lib/./build/basic_modem.a(cmac.o)
                                                  lbm/lbm_lib/./build/basic_modem.a(soft_se.o)
AHBPrescTable                                     build_sx1261_l0/system_stm32l0xx.o
                                                  build_sx1261_l0/stm32l0xx_ll_utils.o
                                                  build_sx1261_l0/stm32l0xx_ll_rcc.o
APBPrescTable                                     build_sx1261_l0/system_stm32l0xx.o
                                                  build_sx1261_l0/stm32l0xx_ll_rcc.o
DMA1_Channel1_IRQHandler                          build_sx1261_l0/startup_stm32l071xx.o
DMA1_Channel2_3_IRQHandler                        build_sx1261_l0/startup_stm32l071xx.o
DMA1_Channel4_5_6_7_IRQHandler                    build_sx1261_l0/startup_stm32l071xx.o
Default_Handler                                   build_sx1261_l0/startup_stm32l071xx.o
EXTI0_1_IRQHandler                                build_sx1261_l0/smtc_hal_gpio.o
EXTI2_3_IRQHandler                                build_sx1261_l0/smtc_hal_gpio.o
EXTI4_15_IRQHandler                               build_sx1261_l0/smtc_hal_gpio.o
FLASH_IRQHandler                                  build_sx1261_l0/startup_stm32l071xx.o
HardFault_Handler                                 build_sx1261_l0/smtc_hal_mcu.o
I2C1_IRQHandler                                   build_sx1261_l0/startup_stm32l071xx.o
I2C2_IRQHandler                                   build_sx1261_l0/startup_stm32l071xx.o
I2C3_IRQHandler                                   build_sx1261_l0/startup_stm32l071xx.o
LL_ADC_CommonDeInit                               build_sx1261_l0/stm32l0xx_ll_adc.o
                                                  build_sx1261_l0/smtc_hal_adc.o
LL_ADC_CommonInit                                 build_sx1261_l0/stm32l0xx_ll_adc.o
                                                  build_sx1261_l0/smtc_hal_adc.o
LL_ADC_CommonStructInit                           build_sx1261_l0/stm32l0xx_ll_adc.o
LL_ADC_DeInit                                     build_sx1261_l0/stm32l0xx_ll_adc.o
                                                  build_sx1261_l0/smtc_hal_adc.o
LL_ADC_Init                                       build_sx1261_l0/stm32l0xx_ll_adc.o
                                                  build_sx1261_l0/smtc_hal_adc.o
LL_ADC_REG_Init                                   build_sx1261_l0/stm32l0xx_ll_adc.o
                                                  build_sx1261_l0/smtc_hal_adc.o
LL_ADC_REG_StructInit                             build_sx1261_l0/stm32l0xx_ll_adc.o
LL_ADC_StructInit                                 build_sx1261_l0/stm32l0xx_ll_adc.o
LL_DMA_DeInit                                     build_sx1261_l0/stm32l0xx_ll_dma.o
                                                  build_sx1261_l0/smtc_hal_uart.o
LL_DMA_Init                                       build_sx1261_l0/stm32l0xx_ll_dma.o
LL_DMA_StructInit                                 build_sx1261_l0/stm32l0xx_ll_dma.o
LL_I2C_DeInit                                     build_sx1261_l0/stm32l0xx_ll_i2c.o
                                                  build_sx1261_l0/smtc_hal_i2c.o
LL_I2C_Init                                       build_sx1261_l0/stm32l0xx_ll_i2c.o
                                                  build_sx1261_l0/smtc_hal_i2c.o
LL_I2C_StructInit                                 build_sx1261_l0/stm32l0xx_ll_i2c.o
LL_Init1msTick                                    build_sx1261_l0/stm32l0xx_ll_utils.o
                                                  build_sx1261_l0/smtc_hal_mcu.o
LL_LPTIM_DeInit                                   build_sx1261_l0/stm32l0xx_ll_lptim.o
LL_LPTIM_Disable                                  build_sx1261_l0/stm32l0xx_ll_lptim.o
                                                  build_sx1261_l0/smtc_hal_lp_timer.o
LL_LPTIM_Init                                     build_sx1261_l0/stm32l0xx_ll_lptim.o
LL_LPTIM_StructInit                               build_sx1261_l0/stm32l0xx_ll_lptim.o
LL_PLL_ConfigSystemClock_HSE                      build_sx1261_l0/stm32l0xx_ll_utils.o
LL_PLL_ConfigSystemClock_HSI                      build_sx1261_l0/stm32l0xx_ll_utils.o
LL_RCC_DeInit                                     build_sx1261_l0/stm32l0xx_ll_rcc.o
LL_RCC_GetI2CClockFreq                            build_sx1261_l0/stm32l0xx_ll_rcc.o
LL_RCC_GetLPTIMClockFreq                          build_sx1261_l0/stm32l0xx_ll_rcc.o
LL_RCC_GetLPUARTClockFreq                         build_sx1261_l0/stm32l0xx_ll_rcc.o
LL_RCC_GetSystemClocksFreq                        build_sx1261_l0/stm32l0xx_ll_rcc.o
                                                  build_sx1261_l0/stm32l0xx_ll_lptim.o
                                                  build_sx1261_l0/stm32l0xx_ll_usart.o
LL_RCC_GetUSARTClockFreq                          build_sx1261_l0/stm32l0xx_ll_rcc.o
                                                  build_sx1261_l0/stm32l0xx_ll_usart.o
LL_RTC_ALMA_Init                                  build_sx1261_l0/stm32l0xx_ll_rtc.o
LL_RTC_ALMA_StructInit                            build_sx1261_l0/stm32l0xx_ll_rtc.o
LL_RTC_ALMB_Init                                  build_sx1261_l0/stm32l0xx_ll_rtc.o
LL_RTC_ALMB_StructInit                            build_sx1261_l0/stm32l0xx_ll_rtc.o
LL_RTC_DATE_Init                                  build_sx1261_l0/stm32l0xx_ll_rtc.o
LL_RTC_DATE_StructInit                            build_sx1261_l0/stm32l0xx_ll_rtc.o
LL_RTC_DeInit                                     build_sx1261_l0/stm32l0xx_ll_rtc.o
LL_RTC_EnterInitMode                              build_sx1261_l0/stm32l0xx_ll_rtc.o
LL_RTC_ExitInitMode                               build_sx1261_l0/stm32l0xx_ll_rtc.o
LL_RTC_Init                                       build_sx1261_l0/stm32l0xx_ll_rtc.o
LL_RTC_StructInit                                 build_sx1261_l0/stm32l0xx_ll_rtc.o
LL_RTC_TIME_Init                                  build_sx1261_l0/stm32l0xx_ll_rtc.o
LL_RTC_TIME_StructInit                            build_sx1261_l0/stm32l0xx_ll_rtc.o
LL_RTC_WaitForSynchro                             build_sx1261_l0/stm32l0xx_ll_rtc.o
LL_SetFlashLatency                                build_sx1261_l0/stm32l0xx_ll_utils.o
LL_SetSystemCoreClock                             build_sx1261_l0/stm32l0xx_ll_utils.o
                                                  build_sx1261_l0/smtc_hal_mcu.o
LL_USART_ClockInit                                build_sx1261_l0/stm32l0xx_ll_usart.o
LL_USART_ClockStructInit                          build_sx1261_l0/stm32l0xx_ll_usart.o
LL_USART_DeInit                                   build_sx1261_l0/stm32l0xx_ll_usart.o
LL_USART_Init                                     build_sx1261_l0/stm32l0xx_ll_usart.o
                                                  build_sx1261_l0/smtc_hal_uart.o
LL_USART_StructInit                               build_sx1261_l0/stm32l0xx_ll_usart.o
LL_mDelay                                         build_sx1261_l0/stm32l0xx_ll_utils.o
LPTIM1_IRQHandler                                 build_sx1261_l0/smtc_hal_lp_timer.o
LPUART1_IRQHandler                                build_sx1261_l0/startup_stm32l071xx.o
NMI_Handler                                       build_sx1261_l0/startup_stm32l071xx.o
PLLMulTable                                       build_sx1261_l0/system_stm32l0xx.o
                                                  build_sx1261_l0/stm32l0xx_ll_utils.o
                                                  build_sx1261_l0/stm32l0xx_ll_rcc.o
PVD_IRQHandler                                    build_sx1261_l0/startup_stm32l071xx.o
PendSV_Handler                                    build_sx1261_l0/startup_stm32l071xx.o
RCC_IRQHandler                                    build_sx1261_l0/startup_stm32l071xx.o
RTC_IRQHandler                                    build_sx1261_l0/smtc_hal_rtc.o
Reset_Handler                                     build_sx1261_l0/startup_stm32l071xx.o
RtcGetMinimumTimeout                              build_sx1261_l0/timer_rtc.o
                                                  build_sx1261_l0/timer.o
RtcGetTimerContext                                build_sx1261_l0/timer_rtc.o
                                                  build_sx1261_l0/timer.o
RtcGetTimerElapsedTime                            build_sx1261_l0/timer_rtc.o
                                                  build_sx1261_l0/timer.o
RtcGetTimerValue                                  build_sx1261_l0/timer_rtc.o
                                                  build_sx1261_l0/timer.o
RtcIrq                                            build_sx1261_l0/timer_rtc.o
                                                  build_sx1261_l0/smtc_hal_rtc.o
RtcMs2Tick                                        build_sx1261_l0/timer_rtc.o
                                                  build_sx1261_l0/timer.o
RtcProcess                                        build_sx1261_l0/timer_rtc.o
                                                  build_sx1261_l0/timer.o
RtcSetAlarm                                       build_sx1261_l0/timer_rtc.o
                                                  build_sx1261_l0/timer.o
RtcSetTimerContext                                build_sx1261_l0/timer_rtc.o
                                                  build_sx1261_l0/timer.o
RtcStopAlarm                                      build_sx1261_l0/timer_rtc.o
                                                  build_sx1261_l0/timer.o
RtcTempCompensation                               build_sx1261_l0/timer_rtc.o
                                                  build_sx1261_l0/timer.o
RtcTick2Ms                                        build_sx1261_l0/timer_rtc.o
                                                  build_sx1261_l0/timer.o
SMTC_ARE_CLR_BYTE16                               lbm/lbm_lib/./build/basic_modem.a(lr1mac_utilities.o)
SMTC_ARE_CLR_BYTE8                                lbm/lbm_lib/./build/basic_modem.a(lr1mac_utilities.o)
                                                  lbm/lbm_lib/./build/basic_modem.a(region_eu_868.o)
SMTC_CLR_BIT16                                    lbm/lbm_lib/./build/basic_modem.a(lr1mac_utilities.o)
SMTC_CLR_BIT8                                     lbm/lbm_lib/./build/basic_modem.a(lr1mac_utilities.o)
SMTC_GET_BIT16                                    lbm/lbm_lib/./build/basic_modem.a(lr1mac_utilities.o)
                                                  lbm/lbm_lib/./build/basic_modem.a(region_eu_868.o)
                                                  lbm/lbm_lib/./build/basic_modem.a(smtc_real.o)
SMTC_GET_BIT8                                     lbm/lbm_lib/./build/basic_modem.a(lr1mac_utilities.o)
                                                  lbm/lbm_lib/./build/basic_modem.a(region_eu_868.o)
                                                  lbm/lbm_lib/./build/basic_modem.a(smtc_real.o)
SMTC_PUT_BIT16                                    lbm/lbm_lib/./build/basic_modem.a(lr1mac_utilities.o)
                                                  lbm/lbm_lib/./build/basic_modem.a(smtc_real.o)
SMTC_PUT_BIT8                                     lbm/lbm_lib/./build/basic_modem.a(lr1mac_utilities.o)
                                                  lbm/lbm_lib/./build/basic_modem.a(region_eu_868.o)
                                                  lbm/lbm_lib/./build/basic_modem.a(smtc_real.o)
SMTC_SET_BIT16                                    lbm/lbm_lib/./build/basic_modem.a(lr1mac_utilities.o)
SMTC_SET_BIT8                                     lbm/lbm_lib/./build/basic_modem.a(lr1mac_utilities.o)
SPI1_IRQHandler                                   build_sx1261_l0/startup_stm32l071xx.o
SPI2_IRQHandler                                   build_sx1261_l0/startup_stm32l071xx.o
SVC_Handler                                       build_sx1261_l0/startup_stm32l071xx.o
SysTick_Handler                                   build_sx1261_l0/smtc_hal_mcu.o
SystemCoreClock                                   build_sx1261_l0/system_stm32l0xx.o
                                                  build_sx1261_l0/stm32l0xx_ll_utils.o
SystemCoreClockUpdate                             build_sx1261_l0/system_stm32l0xx.o
SystemInit                                        build_sx1261_l0/system_stm32l0xx.o
                                                  build_sx1261_l0/startup_stm32l071xx.o
TIM21_IRQHandler                                  build_sx1261_l0/startup_stm32l071xx.o
TIM22_IRQHandler                                  build_sx1261_l0/startup_stm32l071xx.o
TIM2_IRQHandler                                   build_sx1261_l0/startup_stm32l071xx.o
TIM3_IRQHandler                                   build_sx1261_l0/startup_stm32l071xx.o
TIM6_IRQHandler                                   build_sx1261_l0/startup_stm32l071xx.o
TIM7_IRQHandler                                   build_sx1261_l0/startup_stm32l071xx.o
TimerGetCurrentTime                               build_sx1261_l0/timer.o
TimerGetElapsedTime                               build_sx1261_l0/timer.o
TimerInit                                         build_sx1261_l0/timer.o
                                                  build_sx1261_l0/smtc_hal_mcu.o
                                                  build_sx1261_l0/main.o
TimerIrqHandler                                   build_sx1261_l0/timer.o
                                                  build_sx1261_l0/timer_rtc.o
TimerIsStarted                                    build_sx1261_l0/timer.o
TimerProcess                                      build_sx1261_l0/timer.o
TimerReset                                        build_sx1261_l0/timer.o
TimerSetContext                                   build_sx1261_l0/timer.o
TimerSetValue                                     build_sx1261_l0/timer.o
                                                  build_sx1261_l0/smtc_hal_mcu.o
                                                  build_sx1261_l0/main.o
TimerStart                                        build_sx1261_l0/timer.o
                                                  build_sx1261_l0/smtc_hal_mcu.o
                                                  build_sx1261_l0/main.o
TimerStop                                         build_sx1261_l0/timer.o
                                                  build_sx1261_l0/smtc_hal_mcu.o
                                                  build_sx1261_l0/main.o
TimerTempCompensation                             build_sx1261_l0/timer.o
USART1_IRQHandler                                 build_sx1261_l0/startup_stm32l071xx.o
USART2_IRQHandler                                 build_sx1261_l0/startup_stm32l071xx.o
USART4_5_IRQHandler                               build_sx1261_l0/startup_stm32l071xx.o
WWDG_IRQHandler                                   build_sx1261_l0/startup_stm32l071xx.o
_ITM_deregisterTMCloneTable                       /usr/lib/gcc/arm-none-eabi/10.3.1/thumb/v6-m/nofp/crtbegin.o
_ITM_registerTMCloneTable                         /usr/lib/gcc/arm-none-eabi/10.3.1/thumb/v6-m/nofp/crtbegin.o
__TMC_END__                                       /usr/lib/gcc/arm-none-eabi/10.3.1/thumb/v6-m/nofp/crtend.o
                                                  /usr/lib/gcc/arm-none-eabi/10.3.1/thumb/v6-m/nofp/crtbegin.o
__aeabi_f2iz                                      /usr/lib/gcc/arm-none-eabi/10.3.1/thumb/v6-m/nofp/libgcc.a(fixsfsi.o)
                                                  lbm/lbm_lib/./build/basic_modem.a(smtc_modem_test.o)
__aeabi_fdiv                                      /usr/lib/gcc/arm-none-eabi/10.3.1/thumb/v6-m/nofp/libgcc.a(divsf3.o)
                                                  lbm/lbm_lib/./build/basic_modem.a(smtc_modem_test.o)
__aeabi_i2f                                       /usr/lib/gcc/arm-none-eabi/10.3.1/thumb/v6-m/nofp/libgcc.a(floatsisf.o)
                                                  lbm/lbm_lib/./build/basic_modem.a(smtc_modem_test.o)
__aeabi_idiv                                      /usr/lib/gcc/arm-none-eabi/10.3.1/thumb/v6-m/nofp/libgcc.a(_divsi3.o)
                                                  /usr/lib/gcc/arm-none-eabi/10.3.1/../../../arm-none-eabi/lib/thumb/v6-m/nofp/libc_nano.a(lib_a-fvwrite.o)
                                                  lbm/lbm_lib/./build/basic_modem.a(lr_fhss_mac.o)
                                                  lbm/lbm_lib/./build/basic_modem.a(sx126x.o)
                                                  lbm/lbm_lib/./build/basic_modem.a(smtc_duty_cycle.o)
                                                  lbm/lbm_lib/./build/basic_modem.a(smtc_real.o)
                                                  build_sx1261_l0/smtc_hal_adc.o
                                                  build_sx1261_l0/smtc_hal_mcu.o
                                                  build_sx1261_l0/system_stm32l0xx.o
__aeabi_idiv0                                     /usr/lib/gcc/arm-none-eabi/10.3.1/thumb/v6-m/nofp/libgcc.a(_dvmd_tls.o)
                                                  /usr/lib/gcc/arm-none-eabi/10.3.1/thumb/v6-m/nofp/libgcc.a(_divsi3.o)
                                                  /usr/lib/gcc/arm-none-eabi/10.3.1/thumb/v6-m/nofp/libgcc.a(_udivsi3.o)
__aeabi_idivmod                                   /usr/lib/gcc/arm-none-eabi/10.3.1/thumb/v6-m/nofp/libgcc.a(_divsi3.o)
                                                  lbm/lbm_lib/./build/basic_modem.a(smtc_duty_cycle.o)
                                                  lbm/lbm_lib/./build/basic_modem.a(fifo_ctrl.o)
__aeabi_ldiv0                                     /usr/lib/gcc/arm-none-eabi/10.3.1/thumb/v6-m/nofp/libgcc.a(_dvmd_tls.o)
                                                  /usr/lib/gcc/arm-none-eabi/10.3.1/thumb/v6-m/nofp/libgcc.a(_aeabi_uldivmod.o)
                                                  /usr/lib/gcc/arm-none-eabi/10.3.1/thumb/v6-m/nofp/libgcc.a(_aeabi_ldivmod.o)
__aeabi_ldivmod                                   /usr/lib/gcc/arm-none-eabi/10.3.1/thumb/v6-m/nofp/libgcc.a(_aeabi_ldivmod.o)
                                                  build_sx1261_l0/smtc_hal_rtc.o
                                                  build_sx1261_l0/smtc_hal_lp_timer.o
__aeabi_lmul                                      /usr/lib/gcc/arm-none-eabi/10.3.1/thumb/v6-m/nofp/libgcc.a(_muldi3.o)
                                                  /usr/lib/gcc/arm-none-eabi/10.3.1/thumb/v6-m/nofp/libgcc.a(bpabi.o)
                                                  /usr/lib/gcc/arm-none-eabi/10.3.1/../../../arm-none-eabi/lib/thumb/v6-m/nofp/libc_nano.a(lib_a-rand.o)
__aeabi_ui2f                                      /usr/lib/gcc/arm-none-eabi/10.3.1/thumb/v6-m/nofp/libgcc.a(floatunsisf.o)
                                                  lbm/lbm_lib/./build/basic_modem.a(smtc_modem_test.o)
__aeabi_uidiv                                     /usr/lib/gcc/arm-none-eabi/10.3.1/thumb/v6-m/nofp/libgcc.a(_udivsi3.o)
                                                  lbm/lbm_lib/./build/basic_modem.a(lr_fhss_mac.o)
                                                  lbm/lbm_lib/./build/basic_modem.a(sx126x.o)
                                                  lbm/lbm_lib/./build/basic_modem.a(lr1mac_utilities.o)
                                                  lbm/lbm_lib/./build/basic_modem.a(lr1mac_core.o)
                                                  lbm/lbm_lib/./build/basic_modem.a(lr1_stack_mac_layer.o)
                                                  lbm/lbm_lib/./build/basic_modem.a(radio_planner.o)
                                                  lbm/lbm_lib/./build/basic_modem.a(smtc_duty_cycle.o)
                                                  lbm/lbm_lib/./build/basic_modem.a(smtc_real.o)
                                                  lbm/lbm_lib/./build/basic_modem.a(lorawan_certification.o)
                                                  lbm/lbm_lib/./build/basic_modem.a(smtc_modem.o)
                                                  build_sx1261_l0/stm32l0xx_ll_utils.o
                                                  build_sx1261_l0/stm32l0xx_ll_rtc.o
                                                  build_sx1261_l0/stm32l0xx_ll_rcc.o
                                                  build_sx1261_l0/stm32l0xx_ll_usart.o
                                                  build_sx1261_l0/smtc_hal_adc.o
                                                  build_sx1261_l0/smtc_hal_rtc.o
                                                  build_sx1261_l0/system_stm32l0xx.o
                                                  build_sx1261_l0/timer_rtc.o
__aeabi_uidivmod                                  /usr/lib/gcc/arm-none-eabi/10.3.1/thumb/v6-m/nofp/libgcc.a(_udivsi3.o)
                                                  /usr/lib/gcc/arm-none-eabi/10.3.1/../../../arm-none-eabi/lib/thumb/v6-m/nofp/libc_nano.a(lib_a-nano-vfprintf_i.o)
                                                  lbm/lbm_lib/./build/basic_modem.a(lr_fhss_mac.o)
                                                  lbm/lbm_lib/./build/basic_modem.a(sx126x.o)
                                                  lbm/lbm_lib/./build/basic_modem.a(lr1mac_core.o)
                                                  lbm/lbm_lib/./build/basic_modem.a(region_eu_868.o)
                                                  lbm/lbm_lib/./build/basic_modem.a(aes.o)
                                                  lbm/lbm_lib/./build/basic_modem.a(smtc_duty_cycle.o)
                                                  lbm/lbm_lib/./build/basic_modem.a(smtc_real.o)
                                                  lbm/lbm_lib/./build/basic_modem.a(fifo_ctrl.o)
                                                  build_sx1261_l0/stm32l0xx_ll_rtc.o
                                                  build_sx1261_l0/smtc_hal_rng.o
                                                  build_sx1261_l0/timer_rtc.o
__aeabi_uldivmod                                  /usr/lib/gcc/arm-none-eabi/10.3.1/thumb/v6-m/nofp/libgcc.a(_aeabi_uldivmod.o)
                                                  build_sx1261_l0/smtc_hal_rtc.o
                                                  build_sx1261_l0/smtc_hal_lp_timer.o
__assert                                          /usr/lib/gcc/arm-none-eabi/10.3.1/../../../arm-none-eabi/lib/thumb/v6-m/nofp/libc_nano.a(lib_a-assert.o)
__assert_func                                     /usr/lib/gcc/arm-none-eabi/10.3.1/../../../arm-none-eabi/lib/thumb/v6-m/nofp/libc_nano.a(lib_a-assert.o)
                                                  /usr/lib/gcc/arm-none-eabi/10.3.1/../../../arm-none-eabi/lib/thumb/v6-m/nofp/libc_nano.a(lib_a-rand.o)
__atexit_dummy                                    /usr/lib/gcc/arm-none-eabi/10.3.1/../../../arm-none-eabi/lib/thumb/v6-m/nofp/libc_nano.a(lib_a-__atexit.o)
__bss_end__                                       /usr/lib/gcc/arm-none-eabi/10.3.1/../../../arm-none-eabi/lib/thumb/v6-m/nofp/crt0.o
__bss_start__                                     /usr/lib/gcc/arm-none-eabi/10.3.1/../../../arm-none-eabi/lib/thumb/v6-m/nofp/crt0.o
__call_exitprocs                                  /usr/lib/gcc/arm-none-eabi/10.3.1/../../../arm-none-eabi/lib/thumb/v6-m/nofp/libc_nano.a(lib_a-__call_atexit.o)
                                                  /usr/lib/gcc/arm-none-eabi/10.3.1/../../../arm-none-eabi/lib/thumb/v6-m/nofp/libc_nano.a(lib_a-__atexit.o)
                                                  /usr/lib/gcc/arm-none-eabi/10.3.1/../../../arm-none-eabi/lib/thumb/v6-m/nofp/libc_nano.a(lib_a-exit.o)
__clzdi2                                          /usr/lib/gcc/arm-none-eabi/10.3.1/thumb/v6-m/nofp/libgcc.a(_clzdi2.o)
                                                  /usr/lib/gcc/arm-none-eabi/10.3.1/thumb/v6-m/nofp/libgcc.a(_divdi3.o)
                                                  /usr/lib/gcc/arm-none-eabi/10.3.1/thumb/v6-m/nofp/libgcc.a(_udivmoddi4.o)
__clzsi2                                          /usr/lib/gcc/arm-none-eabi/10.3.1/thumb/v6-m/nofp/libgcc.a(_clzsi2.o)
                                                  /usr/lib/gcc/arm-none-eabi/10.3.1/thumb/v6-m/nofp/libgcc.a(_clzdi2.o)
                                                  /usr/lib/gcc/arm-none-eabi/10.3.1/thumb/v6-m/nofp/libgcc.a(floatunsisf.o)
                                                  /usr/lib/gcc/arm-none-eabi/10.3.1/thumb/v6-m/nofp/libgcc.a(floatsisf.o)
                                                  /usr/lib/gcc/arm-none-eabi/10.3.1/thumb/v6-m/nofp/libgcc.a(divsf3.o)
__deregister_frame_info                           /usr/lib/gcc/arm-none-eabi/10.3.1/thumb/v6-m/nofp/crtbegin.o
__divdi3                                          /usr/lib/gcc/arm-none-eabi/10.3.1/thumb/v6-m/nofp/libgcc.a(_divdi3.o)
                                                  /usr/lib/gcc/arm-none-eabi/10.3.1/thumb/v6-m/nofp/libgcc.a(bpabi.o)
__divsi3                                          /usr/lib/gcc/arm-none-eabi/10.3.1/thumb/v6-m/nofp/libgcc.a(_divsi3.o)
__dso_handle                                      /usr/lib/gcc/arm-none-eabi/10.3.1/thumb/v6-m/nofp/crtbegin.o
__fini_array_end                                  /usr/lib/gcc/arm-none-eabi/10.3.1/../../../arm-none-eabi/lib/thumb/v6-m/nofp/libc_nano.a(lib_a-fini.o)
__fini_array_start                                /usr/lib/gcc/arm-none-eabi/10.3.1/../../../arm-none-eabi/lib/thumb/v6-m/nofp/libc_nano.a(lib_a-fini.o)
__fp_lock_all                                     /usr/lib/gcc/arm-none-eabi/10.3.1/../../../arm-none-eabi/lib/thumb/v6-m/nofp/libc_nano.a(lib_a-findfp.o)
__fp_unlock_all                                   /usr/lib/gcc/arm-none-eabi/10.3.1/../../../arm-none-eabi/lib/thumb/v6-m/nofp/libc_nano.a(lib_a-findfp.o)
__gnu_ldivmod_helper                              /usr/lib/gcc/arm-none-eabi/10.3.1/thumb/v6-m/nofp/libgcc.a(bpabi.o)
                                                  /usr/lib/gcc/arm-none-eabi/10.3.1/thumb/v6-m/nofp/libgcc.a(_aeabi_ldivmod.o)
__gnu_thumb1_case_sqi                             /usr/lib/gcc/arm-none-eabi/10.3.1/thumb/v6-m/nofp/libgcc.a(_thumb1_case_sqi.o)
                                                  lbm/lbm_lib/./build/basic_modem.a(ral_sx126x.o)
__gnu_thumb1_case_uhi                             /usr/lib/gcc/arm-none-eabi/10.3.1/thumb/v6-m/nofp/libgcc.a(_thumb1_case_uhi.o)
                                                  lbm/lbm_lib/./build/basic_modem.a(lr1_stack_mac_layer.o)
                                                  lbm/lbm_lib/./build/basic_modem.a(lorawan_certification.o)
                                                  build_sx1261_l0/main.o
__gnu_thumb1_case_uqi                             /usr/lib/gcc/arm-none-eabi/10.3.1/thumb/v6-m/nofp/libgcc.a(_thumb1_case_uqi.o)
                                                  lbm/lbm_lib/./build/basic_modem.a(lr_fhss_mac.o)
                                                  lbm/lbm_lib/./build/basic_modem.a(lr1mac_core.o)
                                                  lbm/lbm_lib/./build/basic_modem.a(lr1_stack_mac_layer.o)
                                                  lbm/lbm_lib/./build/basic_modem.a(smtc_modem_test.o)
                                                  lbm/lbm_lib/./build/basic_modem.a(ral_sx126x.o)
                                                  lbm/lbm_lib/./build/basic_modem.a(smtc_real.o)
                                                  lbm/lbm_lib/./build/basic_modem.a(modem_tx_protocol_manager.o)
                                                  lbm/lbm_lib/./build/basic_modem.a(smtc_modem.o)
                                                  build_sx1261_l0/smtc_modem_hal.o
__init_array_end                                  /usr/lib/gcc/arm-none-eabi/10.3.1/../../../arm-none-eabi/lib/thumb/v6-m/nofp/libc_nano.a(lib_a-init.o)
__init_array_start                                /usr/lib/gcc/arm-none-eabi/10.3.1/../../../arm-none-eabi/lib/thumb/v6-m/nofp/libc_nano.a(lib_a-init.o)
__libc_fini_array                                 /usr/lib/gcc/arm-none-eabi/10.3.1/../../../arm-none-eabi/lib/thumb/v6-m/nofp/libc_nano.a(lib_a-fini.o)
                                                  /usr/lib/gcc/arm-none-eabi/10.3.1/../../../arm-none-eabi/lib/thumb/v6-m/nofp/crt0.o
__libc_init_array                                 /usr/lib/gcc/arm-none-eabi/10.3.1/../../../arm-none-eabi/lib/thumb/v6-m/nofp/libc_nano.a(lib_a-init.o)
                                                  build_sx1261_l0/startup_stm32l071xx.o
                                                  /usr/lib/gcc/arm-none-eabi/10.3.1/../../../arm-none-eabi/lib/thumb/v6-m/nofp/crt0.o
__malloc_free_list                                /usr/lib/gcc/arm-none-eabi/10.3.1/../../../arm-none-eabi/lib/thumb/v6-m/nofp/libc_nano.a(lib_a-nano-mallocr.o)
                                                  /usr/lib/gcc/arm-none-eabi/10.3.1/../../../arm-none-eabi/lib/thumb/v6-m/nofp/libc_nano.a(lib_a-nano-freer.o)
__malloc_lock                                     /usr/lib/gcc/arm-none-eabi/10.3.1/../../../arm-none-eabi/lib/thumb/v6-m/nofp/libc_nano.a(lib_a-mlock.o)
                                                  /usr/lib/gcc/arm-none-eabi/10.3.1/../../../arm-none-eabi/lib/thumb/v6-m/nofp/libc_nano.a(lib_a-nano-mallocr.o)
                                                  /usr/lib/gcc/arm-none-eabi/10.3.1/../../../arm-none-eabi/lib/thumb/v6-m/nofp/libc_nano.a(lib_a-nano-freer.o)
__malloc_sbrk_start                               /usr/lib/gcc/arm-none-eabi/10.3.1/../../../arm-none-eabi/lib/thumb/v6-m/nofp/libc_nano.a(lib_a-nano-mallocr.o)
__malloc_unlock                                   /usr/lib/gcc/arm-none-eabi/10.3.1/../../../arm-none-eabi/lib/thumb/v6-m/nofp/libc_nano.a(lib_a-mlock.o)
                                                  /usr/lib/gcc/arm-none-eabi/10.3.1/../../../arm-none-eabi/lib/thumb/v6-m/nofp/libc_nano.a(lib_a-nano-mallocr.o)
                                                  /usr/lib/gcc/arm-none-eabi/10.3.1/../../../arm-none-eabi/lib/thumb/v6-m/nofp/libc_nano.a(lib_a-nano-freer.o)
__muldi3                                          /usr/lib/gcc/arm-none-eabi/10.3.1/thumb/v6-m/nofp/libgcc.a(_muldi3.o)
__on_exit_args                                    /usr/lib/gcc/arm-none-eabi/10.3.1/../../../arm-none-eabi/lib/thumb/v6-m/nofp/libc_nano.a(lib_a-__atexit.o)
__preinit_array_end                               /usr/lib/gcc/arm-none-eabi/10.3.1/../../../arm-none-eabi/lib/thumb/v6-m/nofp/libc_nano.a(lib_a-init.o)
__preinit_array_start                             /usr/lib/gcc/arm-none-eabi/10.3.1/../../../arm-none-eabi/lib/thumb/v6-m/nofp/libc_nano.a(lib_a-init.o)
__register_exitproc                               /usr/lib/gcc/arm-none-eabi/10.3.1/../../../arm-none-eabi/lib/thumb/v6-m/nofp/libc_nano.a(lib_a-__atexit.o)
                                                  /usr/lib/gcc/arm-none-eabi/10.3.1/../../../arm-none-eabi/lib/thumb/v6-m/nofp/libc_nano.a(lib_a-atexit.o)
__register_frame_info                             /usr/lib/gcc/arm-none-eabi/10.3.1/thumb/v6-m/nofp/crtbegin.o
__sclose                                          /usr/lib/gcc/arm-none-eabi/10.3.1/../../../arm-none-eabi/lib/thumb/v6-m/nofp/libc_nano.a(lib_a-stdio.o)
                                                  /usr/lib/gcc/arm-none-eabi/10.3.1/../../../arm-none-eabi/lib/thumb/v6-m/nofp/libc_nano.a(lib_a-findfp.o)
__seofread                                        /usr/lib/gcc/arm-none-eabi/10.3.1/../../../arm-none-eabi/lib/thumb/v6-m/nofp/libc_nano.a(lib_a-stdio.o)
__sf_fake_stderr                                  /usr/lib/gcc/arm-none-eabi/10.3.1/../../../arm-none-eabi/lib/thumb/v6-m/nofp/libc_nano.a(lib_a-findfp.o)
                                                  /usr/lib/gcc/arm-none-eabi/10.3.1/../../../arm-none-eabi/lib/thumb/v6-m/nofp/libc_nano.a(lib_a-fflush.o)
                                                  /usr/lib/gcc/arm-none-eabi/10.3.1/../../../arm-none-eabi/lib/thumb/v6-m/nofp/libc_nano.a(lib_a-wsetup.o)
                                                  /usr/lib/gcc/arm-none-eabi/10.3.1/../../../arm-none-eabi/lib/thumb/v6-m/nofp/libc_nano.a(lib_a-wbuf.o)
                                                  /usr/lib/gcc/arm-none-eabi/10.3.1/../../../arm-none-eabi/lib/thumb/v6-m/nofp/libc_nano.a(lib_a-nano-vfprintf.o)
                                                  /usr/lib/gcc/arm-none-eabi/10.3.1/../../../arm-none-eabi/lib/thumb/v6-m/nofp/libc_nano.a(lib_a-impure.o)
__sf_fake_stdin                                   /usr/lib/gcc/arm-none-eabi/10.3.1/../../../arm-none-eabi/lib/thumb/v6-m/nofp/libc_nano.a(lib_a-findfp.o)
                                                  /usr/lib/gcc/arm-none-eabi/10.3.1/../../../arm-none-eabi/lib/thumb/v6-m/nofp/libc_nano.a(lib_a-fflush.o)
                                                  /usr/lib/gcc/arm-none-eabi/10.3.1/../../../arm-none-eabi/lib/thumb/v6-m/nofp/libc_nano.a(lib_a-wsetup.o)
                                                  /usr/lib/gcc/arm-none-eabi/10.3.1/../../../arm-none-eabi/lib/thumb/v6-m/nofp/libc_nano.a(lib_a-wbuf.o)
                                                  /usr/lib/gcc/arm-none-eabi/10.3.1/../../../arm-none-eabi/lib/thumb/v6-m/nofp/libc_nano.a(lib_a-nano-vfprintf.o)
                                                  /usr/lib/gcc/arm-none-eabi/10.3.1/../../../arm-none-eabi/lib/thumb/v6-m/nofp/libc_nano.a(lib_a-impure.o)
__sf_fake_stdout                                  /usr/lib/gcc/arm-none-eabi/10.3.1/../../../arm-none-eabi/lib/thumb/v6-m/nofp/libc_nano.a(lib_a-findfp.o)
                                                  /usr/lib/gcc/arm-none-eabi/10.3.1/../../../arm-none-eabi/lib/thumb/v6-m/nofp/libc_nano.a(lib_a-fflush.o)
                                                  /usr/lib/gcc/arm-none-eabi/10.3.1/../../../arm-none-eabi/lib/thumb/v6-m/nofp/libc_nano.a(lib_a-wsetup.o)
                                                  /usr/lib/gcc/arm-none-eabi/10.3.1/../../../arm-none-eabi/lib/thumb/v6-m/nofp/libc_nano.a(lib_a-wbuf.o)
                                                  /usr/lib/gcc/arm-none-eabi/10.3.1/../../../arm-none-eabi/lib/thumb/v6-m/nofp/libc_nano.a(lib_a-nano-vfprintf.o)
                                                  /usr/lib/gcc/arm-none-eabi/10.3.1/../../../arm-none-eabi/lib/thumb/v6-m/nofp/libc_nano.a(lib_a-impure.o)
__sflush_r                                        /usr/lib/gcc/arm-none-eabi/10.3.1/../../../arm-none-eabi/lib/thumb/v6-m/nofp/libc_nano.a(lib_a-fflush.o)
__sfmoreglue                                      /usr/lib/gcc/arm-none-eabi/10.3.1/../../../arm-none-eabi/lib/thumb/v6-m/nofp/libc_nano.a(lib_a-findfp.o)
__sfp                                             /usr/lib/gcc/arm-none-eabi/10.3.1/../../../arm-none-eabi/lib/thumb/v6-m/nofp/libc_nano.a(lib_a-findfp.o)
__sfp_lock_acquire                                /usr/lib/gcc/arm-none-eabi/10.3.1/../../../arm-none-eabi/lib/thumb/v6-m/nofp/libc_nano.a(lib_a-findfp.o)
__sfp_lock_release                                /usr/lib/gcc/arm-none-eabi/10.3.1/../../../arm-none-eabi/lib/thumb/v6-m/nofp/libc_nano.a(lib_a-findfp.o)
__sfputs_r                                        /usr/lib/gcc/arm-none-eabi/10.3.1/../../../arm-none-eabi/lib/thumb/v6-m/nofp/libc_nano.a(lib_a-nano-vfprintf.o)
__sfvwrite_r                                      /usr/lib/gcc/arm-none-eabi/10.3.1/../../../arm-none-eabi/lib/thumb/v6-m/nofp/libc_nano.a(lib_a-fvwrite.o)
                                                  /usr/lib/gcc/arm-none-eabi/10.3.1/../../../arm-none-eabi/lib/thumb/v6-m/nofp/libc_nano.a(lib_a-nano-vfprintf.o)
__sigtramp                                        /usr/lib/gcc/arm-none-eabi/10.3.1/../../../arm-none-eabi/lib/thumb/v6-m/nofp/libc_nano.a(lib_a-signal.o)
__sigtramp_r                                      /usr/lib/gcc/arm-none-eabi/10.3.1/../../../arm-none-eabi/lib/thumb/v6-m/nofp/libc_nano.a(lib_a-signal.o)
__sinit                                           /usr/lib/gcc/arm-none-eabi/10.3.1/../../../arm-none-eabi/lib/thumb/v6-m/nofp/libc_nano.a(lib_a-findfp.o)
                                                  /usr/lib/gcc/arm-none-eabi/10.3.1/../../../arm-none-eabi/lib/thumb/v6-m/nofp/libc_nano.a(lib_a-fflush.o)
                                                  /usr/lib/gcc/arm-none-eabi/10.3.1/../../../arm-none-eabi/lib/thumb/v6-m/nofp/libc_nano.a(lib_a-wsetup.o)
                                                  /usr/lib/gcc/arm-none-eabi/10.3.1/../../../arm-none-eabi/lib/thumb/v6-m/nofp/libc_nano.a(lib_a-wbuf.o)
                                                  /usr/lib/gcc/arm-none-eabi/10.3.1/../../../arm-none-eabi/lib/thumb/v6-m/nofp/libc_nano.a(lib_a-nano-vfprintf.o)
__sinit_lock_acquire                              /usr/lib/gcc/arm-none-eabi/10.3.1/../../../arm-none-eabi/lib/thumb/v6-m/nofp/libc_nano.a(lib_a-findfp.o)
__sinit_lock_release                              /usr/lib/gcc/arm-none-eabi/10.3.1/../../../arm-none-eabi/lib/thumb/v6-m/nofp/libc_nano.a(lib_a-findfp.o)
__smakebuf_r                                      /usr/lib/gcc/arm-none-eabi/10.3.1/../../../arm-none-eabi/lib/thumb/v6-m/nofp/libc_nano.a(lib_a-makebuf.o)
                                                  /usr/lib/gcc/arm-none-eabi/10.3.1/../../../arm-none-eabi/lib/thumb/v6-m/nofp/libc_nano.a(lib_a-wsetup.o)
__sprint_r                                        /usr/lib/gcc/arm-none-eabi/10.3.1/../../../arm-none-eabi/lib/thumb/v6-m/nofp/libc_nano.a(lib_a-nano-vfprintf.o)
__sread                                           /usr/lib/gcc/arm-none-eabi/10.3.1/../../../arm-none-eabi/lib/thumb/v6-m/nofp/libc_nano.a(lib_a-stdio.o)
                                                  /usr/lib/gcc/arm-none-eabi/10.3.1/../../../arm-none-eabi/lib/thumb/v6-m/nofp/libc_nano.a(lib_a-findfp.o)
__sseek                                           /usr/lib/gcc/arm-none-eabi/10.3.1/../../../arm-none-eabi/lib/thumb/v6-m/nofp/libc_nano.a(lib_a-stdio.o)
                                                  /usr/lib/gcc/arm-none-eabi/10.3.1/../../../arm-none-eabi/lib/thumb/v6-m/nofp/libc_nano.a(lib_a-findfp.o)
__ssprint_r                                       /usr/lib/gcc/arm-none-eabi/10.3.1/../../../arm-none-eabi/lib/thumb/v6-m/nofp/libc_nano.a(lib_a-nano-svfprintf.o)
__ssputs_r                                        /usr/lib/gcc/arm-none-eabi/10.3.1/../../../arm-none-eabi/lib/thumb/v6-m/nofp/libc_nano.a(lib_a-nano-svfprintf.o)
__stack                                           /usr/lib/gcc/arm-none-eabi/10.3.1/../../../arm-none-eabi/lib/thumb/v6-m/nofp/crt0.o
__swbuf                                           /usr/lib/gcc/arm-none-eabi/10.3.1/../../../arm-none-eabi/lib/thumb/v6-m/nofp/libc_nano.a(lib_a-wbuf.o)
__swbuf_r                                         /usr/lib/gcc/arm-none-eabi/10.3.1/../../../arm-none-eabi/lib/thumb/v6-m/nofp/libc_nano.a(lib_a-wbuf.o)
                                                  /usr/lib/gcc/arm-none-eabi/10.3.1/../../../arm-none-eabi/lib/thumb/v6-m/nofp/libc_nano.a(lib_a-nano-vfprintf.o)
__swhatbuf_r                                      /usr/lib/gcc/arm-none-eabi/10.3.1/../../../arm-none-eabi/lib/thumb/v6-m/nofp/libc_nano.a(lib_a-makebuf.o)
__swrite                                          /usr/lib/gcc/arm-none-eabi/10.3.1/../../../arm-none-eabi/lib/thumb/v6-m/nofp/libc_nano.a(lib_a-stdio.o)
                                                  /usr/lib/gcc/arm-none-eabi/10.3.1/../../../arm-none-eabi/lib/thumb/v6-m/nofp/libc_nano.a(lib_a-findfp.o)
__swsetup_r                                       /usr/lib/gcc/arm-none-eabi/10.3.1/../../../arm-none-eabi/lib/thumb/v6-m/nofp/libc_nano.a(lib_a-wsetup.o)
                                                  /usr/lib/gcc/arm-none-eabi/10.3.1/../../../arm-none-eabi/lib/thumb/v6-m/nofp/libc_nano.a(lib_a-fvwrite.o)
                                                  /usr/lib/gcc/arm-none-eabi/10.3.1/../../../arm-none-eabi/lib/thumb/v6-m/nofp/libc_nano.a(lib_a-wbuf.o)
                                                  /usr/lib/gcc/arm-none-eabi/10.3.1/../../../arm-none-eabi/lib/thumb/v6-m/nofp/libc_nano.a(lib_a-nano-vfprintf.o)
__udivmoddi4                                      /usr/lib/gcc/arm-none-eabi/10.3.1/thumb/v6-m/nofp/libgcc.a(_udivmoddi4.o)
                                                  /usr/lib/gcc/arm-none-eabi/10.3.1/thumb/v6-m/nofp/libgcc.a(_aeabi_uldivmod.o)
__udivsi3                                         /usr/lib/gcc/arm-none-eabi/10.3.1/thumb/v6-m/nofp/libgcc.a(_udivsi3.o)
_cleanup                                          /usr/lib/gcc/arm-none-eabi/10.3.1/../../../arm-none-eabi/lib/thumb/v6-m/nofp/libc_nano.a(lib_a-findfp.o)
_cleanup_r                                        /usr/lib/gcc/arm-none-eabi/10.3.1/../../../arm-none-eabi/lib/thumb/v6-m/nofp/libc_nano.a(lib_a-findfp.o)
                                                  /usr/lib/gcc/arm-none-eabi/10.3.1/../../../arm-none-eabi/lib/thumb/v6-m/nofp/libc_nano.a(lib_a-makebuf.o)
_close                                            /usr/lib/gcc/arm-none-eabi/10.3.1/../../../arm-none-eabi/lib/thumb/v6-m/nofp/libnosys.a(close.o)
                                                  /usr/lib/gcc/arm-none-eabi/10.3.1/../../../arm-none-eabi/lib/thumb/v6-m/nofp/libc_nano.a(lib_a-closer.o)
_close_r                                          /usr/lib/gcc/arm-none-eabi/10.3.1/../../../arm-none-eabi/lib/thumb/v6-m/nofp/libc_nano.a(lib_a-closer.o)
                                                  /usr/lib/gcc/arm-none-eabi/10.3.1/../../../arm-none-eabi/lib/thumb/v6-m/nofp/libc_nano.a(lib_a-stdio.o)
_ebss                                             build_sx1261_l0/startup_stm32l071xx.o
_edata                                            build_sx1261_l0/startup_stm32l071xx.o
_estack                                           build_sx1261_l0/startup_stm32l071xx.o
_exit                                             /usr/lib/gcc/arm-none-eabi/10.3.1/../../../arm-none-eabi/lib/thumb/v6-m/nofp/libnosys.a(_exit.o)
                                                  /usr/lib/gcc/arm-none-eabi/10.3.1/../../../arm-none-eabi/lib/thumb/v6-m/nofp/libc_nano.a(lib_a-abort.o)
                                                  /usr/lib/gcc/arm-none-eabi/10.3.1/../../../arm-none-eabi/lib/thumb/v6-m/nofp/libc_nano.a(lib_a-exit.o)
_fflush_r                                         /usr/lib/gcc/arm-none-eabi/10.3.1/../../../arm-none-eabi/lib/thumb/v6-m/nofp/libc_nano.a(lib_a-fflush.o)
                                                  /usr/lib/gcc/arm-none-eabi/10.3.1/../../../arm-none-eabi/lib/thumb/v6-m/nofp/libc_nano.a(lib_a-fvwrite.o)
                                                  /usr/lib/gcc/arm-none-eabi/10.3.1/../../../arm-none-eabi/lib/thumb/v6-m/nofp/libc_nano.a(lib_a-findfp.o)
                                                  /usr/lib/gcc/arm-none-eabi/10.3.1/../../../arm-none-eabi/lib/thumb/v6-m/nofp/libc_nano.a(lib_a-wbuf.o)
_fini                                             /usr/lib/gcc/arm-none-eabi/10.3.1/thumb/v6-m/nofp/crti.o
                                                  /usr/lib/gcc/arm-none-eabi/10.3.1/../../../arm-none-eabi/lib/thumb/v6-m/nofp/libc_nano.a(lib_a-fini.o)
_fiprintf_r                                       /usr/lib/gcc/arm-none-eabi/10.3.1/../../../arm-none-eabi/lib/thumb/v6-m/nofp/libc_nano.a(lib_a-fprintf.o)
_fprintf_r                                        /usr/lib/gcc/arm-none-eabi/10.3.1/../../../arm-none-eabi/lib/thumb/v6-m/nofp/libc_nano.a(lib_a-fprintf.o)
_free_r                                           /usr/lib/gcc/arm-none-eabi/10.3.1/../../../arm-none-eabi/lib/thumb/v6-m/nofp/libc_nano.a(lib_a-nano-freer.o)
                                                  /usr/lib/gcc/arm-none-eabi/10.3.1/../../../arm-none-eabi/lib/thumb/v6-m/nofp/libc_nano.a(lib_a-reent.o)
                                                  /usr/lib/gcc/arm-none-eabi/10.3.1/../../../arm-none-eabi/lib/thumb/v6-m/nofp/libc_nano.a(lib_a-nano-reallocr.o)
                                                  /usr/lib/gcc/arm-none-eabi/10.3.1/../../../arm-none-eabi/lib/thumb/v6-m/nofp/libc_nano.a(lib_a-fvwrite.o)
                                                  /usr/lib/gcc/arm-none-eabi/10.3.1/../../../arm-none-eabi/lib/thumb/v6-m/nofp/libc_nano.a(lib_a-fflush.o)
                                                  /usr/lib/gcc/arm-none-eabi/10.3.1/../../../arm-none-eabi/lib/thumb/v6-m/nofp/libc_nano.a(lib_a-wsetup.o)
                                                  /usr/lib/gcc/arm-none-eabi/10.3.1/../../../arm-none-eabi/lib/thumb/v6-m/nofp/libc_nano.a(lib_a-nano-svfprintf.o)
                                                  /usr/lib/gcc/arm-none-eabi/10.3.1/../../../arm-none-eabi/lib/thumb/v6-m/nofp/libc_nano.a(lib_a-malloc.o)
_fstat                                            /usr/lib/gcc/arm-none-eabi/10.3.1/../../../arm-none-eabi/lib/thumb/v6-m/nofp/libnosys.a(fstat.o)
                                                  /usr/lib/gcc/arm-none-eabi/10.3.1/../../../arm-none-eabi/lib/thumb/v6-m/nofp/libc_nano.a(lib_a-fstatr.o)
_fstat_r                                          /usr/lib/gcc/arm-none-eabi/10.3.1/../../../arm-none-eabi/lib/thumb/v6-m/nofp/libc_nano.a(lib_a-fstatr.o)
                                                  /usr/lib/gcc/arm-none-eabi/10.3.1/../../../arm-none-eabi/lib/thumb/v6-m/nofp/libc_nano.a(lib_a-makebuf.o)
_fwalk                                            /usr/lib/gcc/arm-none-eabi/10.3.1/../../../arm-none-eabi/lib/thumb/v6-m/nofp/libc_nano.a(lib_a-fwalk.o)
                                                  /usr/lib/gcc/arm-none-eabi/10.3.1/../../../arm-none-eabi/lib/thumb/v6-m/nofp/libc_nano.a(lib_a-findfp.o)
_fwalk_reent                                      /usr/lib/gcc/arm-none-eabi/10.3.1/../../../arm-none-eabi/lib/thumb/v6-m/nofp/libc_nano.a(lib_a-fwalk.o)
                                                  /usr/lib/gcc/arm-none-eabi/10.3.1/../../../arm-none-eabi/lib/thumb/v6-m/nofp/libc_nano.a(lib_a-findfp.o)
                                                  /usr/lib/gcc/arm-none-eabi/10.3.1/../../../arm-none-eabi/lib/thumb/v6-m/nofp/libc_nano.a(lib_a-fflush.o)
_getpid                                           /usr/lib/gcc/arm-none-eabi/10.3.1/../../../arm-none-eabi/lib/thumb/v6-m/nofp/libnosys.a(getpid.o)
                                                  /usr/lib/gcc/arm-none-eabi/10.3.1/../../../arm-none-eabi/lib/thumb/v6-m/nofp/libc_nano.a(lib_a-signalr.o)
_getpid_r                                         /usr/lib/gcc/arm-none-eabi/10.3.1/../../../arm-none-eabi/lib/thumb/v6-m/nofp/libc_nano.a(lib_a-signalr.o)
                                                  /usr/lib/gcc/arm-none-eabi/10.3.1/../../../arm-none-eabi/lib/thumb/v6-m/nofp/libc_nano.a(lib_a-signal.o)
_global_atexit                                    /usr/lib/gcc/arm-none-eabi/10.3.1/../../../arm-none-eabi/lib/thumb/v6-m/nofp/libc_nano.a(lib_a-__call_atexit.o)
                                                  /usr/lib/gcc/arm-none-eabi/10.3.1/../../../arm-none-eabi/lib/thumb/v6-m/nofp/libc_nano.a(lib_a-__atexit.o)
_global_impure_ptr                                /usr/lib/gcc/arm-none-eabi/10.3.1/../../../arm-none-eabi/lib/thumb/v6-m/nofp/libc_nano.a(lib_a-impure.o)
                                                  /usr/lib/gcc/arm-none-eabi/10.3.1/../../../arm-none-eabi/lib/thumb/v6-m/nofp/libc_nano.a(lib_a-findfp.o)
                                                  /usr/lib/gcc/arm-none-eabi/10.3.1/../../../arm-none-eabi/lib/thumb/v6-m/nofp/libc_nano.a(lib_a-fflush.o)
                                                  /usr/lib/gcc/arm-none-eabi/10.3.1/../../../arm-none-eabi/lib/thumb/v6-m/nofp/libc_nano.a(lib_a-exit.o)
_impure_ptr                                       /usr/lib/gcc/arm-none-eabi/10.3.1/../../../arm-none-eabi/lib/thumb/v6-m/nofp/libc_nano.a(lib_a-impure.o)
                                                  /usr/lib/gcc/arm-none-eabi/10.3.1/../../../arm-none-eabi/lib/thumb/v6-m/nofp/libc_nano.a(lib_a-signal.o)
                                                  /usr/lib/gcc/arm-none-eabi/10.3.1/../../../arm-none-eabi/lib/thumb/v6-m/nofp/libc_nano.a(lib_a-reent.o)
                                                  /usr/lib/gcc/arm-none-eabi/10.3.1/../../../arm-none-eabi/lib/thumb/v6-m/nofp/libc_nano.a(lib_a-findfp.o)
                                                  /usr/lib/gcc/arm-none-eabi/10.3.1/../../../arm-none-eabi/lib/thumb/v6-m/nofp/libc_nano.a(lib_a-fflush.o)
                                                  /usr/lib/gcc/arm-none-eabi/10.3.1/../../../arm-none-eabi/lib/thumb/v6-m/nofp/libc_nano.a(lib_a-wsetup.o)
                                                  /usr/lib/gcc/arm-none-eabi/10.3.1/../../../arm-none-eabi/lib/thumb/v6-m/nofp/libc_nano.a(lib_a-wbuf.o)
                                                  /usr/lib/gcc/arm-none-eabi/10.3.1/../../../arm-none-eabi/lib/thumb/v6-m/nofp/libc_nano.a(lib_a-nano-vfprintf.o)
                                                  /usr/lib/gcc/arm-none-eabi/10.3.1/../../../arm-none-eabi/lib/thumb/v6-m/nofp/libc_nano.a(lib_a-malloc.o)
                                                  /usr/lib/gcc/arm-none-eabi/10.3.1/../../../arm-none-eabi/lib/thumb/v6-m/nofp/libc_nano.a(lib_a-fprintf.o)
                                                  /usr/lib/gcc/arm-none-eabi/10.3.1/../../../arm-none-eabi/lib/thumb/v6-m/nofp/libc_nano.a(lib_a-assert.o)
                                                  /usr/lib/gcc/arm-none-eabi/10.3.1/../../../arm-none-eabi/lib/thumb/v6-m/nofp/libc_nano.a(lib_a-vsprintf.o)
                                                  /usr/lib/gcc/arm-none-eabi/10.3.1/../../../arm-none-eabi/lib/thumb/v6-m/nofp/libc_nano.a(lib_a-snprintf.o)
                                                  /usr/lib/gcc/arm-none-eabi/10.3.1/../../../arm-none-eabi/lib/thumb/v6-m/nofp/libc_nano.a(lib_a-rand.o)
_init                                             /usr/lib/gcc/arm-none-eabi/10.3.1/thumb/v6-m/nofp/crti.o
                                                  /usr/lib/gcc/arm-none-eabi/10.3.1/../../../arm-none-eabi/lib/thumb/v6-m/nofp/libc_nano.a(lib_a-init.o)
_init_signal                                      /usr/lib/gcc/arm-none-eabi/10.3.1/../../../arm-none-eabi/lib/thumb/v6-m/nofp/libc_nano.a(lib_a-signal.o)
_init_signal_r                                    /usr/lib/gcc/arm-none-eabi/10.3.1/../../../arm-none-eabi/lib/thumb/v6-m/nofp/libc_nano.a(lib_a-signal.o)
_isatty                                           /usr/lib/gcc/arm-none-eabi/10.3.1/../../../arm-none-eabi/lib/thumb/v6-m/nofp/libnosys.a(isatty.o)
                                                  /usr/lib/gcc/arm-none-eabi/10.3.1/../../../arm-none-eabi/lib/thumb/v6-m/nofp/libc_nano.a(lib_a-isattyr.o)
_isatty_r                                         /usr/lib/gcc/arm-none-eabi/10.3.1/../../../arm-none-eabi/lib/thumb/v6-m/nofp/libc_nano.a(lib_a-isattyr.o)
                                                  /usr/lib/gcc/arm-none-eabi/10.3.1/../../../arm-none-eabi/lib/thumb/v6-m/nofp/libc_nano.a(lib_a-makebuf.o)
_kill                                             /usr/lib/gcc/arm-none-eabi/10.3.1/../../../arm-none-eabi/lib/thumb/v6-m/nofp/libnosys.a(kill.o)
                                                  /usr/lib/gcc/arm-none-eabi/10.3.1/../../../arm-none-eabi/lib/thumb/v6-m/nofp/libc_nano.a(lib_a-signalr.o)
_kill_r                                           /usr/lib/gcc/arm-none-eabi/10.3.1/../../../arm-none-eabi/lib/thumb/v6-m/nofp/libc_nano.a(lib_a-signalr.o)
                                                  /usr/lib/gcc/arm-none-eabi/10.3.1/../../../arm-none-eabi/lib/thumb/v6-m/nofp/libc_nano.a(lib_a-signal.o)
_lseek                                            /usr/lib/gcc/arm-none-eabi/10.3.1/../../../arm-none-eabi/lib/thumb/v6-m/nofp/libnosys.a(lseek.o)
                                                  /usr/lib/gcc/arm-none-eabi/10.3.1/../../../arm-none-eabi/lib/thumb/v6-m/nofp/libc_nano.a(lib_a-lseekr.o)
_lseek_r                                          /usr/lib/gcc/arm-none-eabi/10.3.1/../../../arm-none-eabi/lib/thumb/v6-m/nofp/libc_nano.a(lib_a-lseekr.o)
                                                  /usr/lib/gcc/arm-none-eabi/10.3.1/../../../arm-none-eabi/lib/thumb/v6-m/nofp/libc_nano.a(lib_a-stdio.o)
_mainCRTStartup                                   /usr/lib/gcc/arm-none-eabi/10.3.1/../../../arm-none-eabi/lib/thumb/v6-m/nofp/crt0.o
_malloc_r                                         /usr/lib/gcc/arm-none-eabi/10.3.1/../../../arm-none-eabi/lib/thumb/v6-m/nofp/libc_nano.a(lib_a-nano-mallocr.o)
                                                  /usr/lib/gcc/arm-none-eabi/10.3.1/../../../arm-none-eabi/lib/thumb/v6-m/nofp/libc_nano.a(lib_a-signal.o)
                                                  /usr/lib/gcc/arm-none-eabi/10.3.1/../../../arm-none-eabi/lib/thumb/v6-m/nofp/libc_nano.a(lib_a-nano-reallocr.o)
                                                  /usr/lib/gcc/arm-none-eabi/10.3.1/../../../arm-none-eabi/lib/thumb/v6-m/nofp/libc_nano.a(lib_a-makebuf.o)
                                                  /usr/lib/gcc/arm-none-eabi/10.3.1/../../../arm-none-eabi/lib/thumb/v6-m/nofp/libc_nano.a(lib_a-fvwrite.o)
                                                  /usr/lib/gcc/arm-none-eabi/10.3.1/../../../arm-none-eabi/lib/thumb/v6-m/nofp/libc_nano.a(lib_a-findfp.o)
                                                  /usr/lib/gcc/arm-none-eabi/10.3.1/../../../arm-none-eabi/lib/thumb/v6-m/nofp/libc_nano.a(lib_a-nano-svfprintf.o)
                                                  /usr/lib/gcc/arm-none-eabi/10.3.1/../../../arm-none-eabi/lib/thumb/v6-m/nofp/libc_nano.a(lib_a-malloc.o)
_malloc_usable_size_r                             /usr/lib/gcc/arm-none-eabi/10.3.1/../../../arm-none-eabi/lib/thumb/v6-m/nofp/libc_nano.a(lib_a-nano-msizer.o)
                                                  /usr/lib/gcc/arm-none-eabi/10.3.1/../../../arm-none-eabi/lib/thumb/v6-m/nofp/libc_nano.a(lib_a-nano-reallocr.o)
_printf_common                                    /usr/lib/gcc/arm-none-eabi/10.3.1/../../../arm-none-eabi/lib/thumb/v6-m/nofp/libc_nano.a(lib_a-nano-vfprintf_i.o)
_printf_float                                     /usr/lib/gcc/arm-none-eabi/10.3.1/../../../arm-none-eabi/lib/thumb/v6-m/nofp/libc_nano.a(lib_a-nano-vfprintf.o)
                                                  /usr/lib/gcc/arm-none-eabi/10.3.1/../../../arm-none-eabi/lib/thumb/v6-m/nofp/libc_nano.a(lib_a-nano-svfprintf.o)
_printf_i                                         /usr/lib/gcc/arm-none-eabi/10.3.1/../../../arm-none-eabi/lib/thumb/v6-m/nofp/libc_nano.a(lib_a-nano-vfprintf_i.o)
                                                  /usr/lib/gcc/arm-none-eabi/10.3.1/../../../arm-none-eabi/lib/thumb/v6-m/nofp/libc_nano.a(lib_a-nano-vfprintf.o)
                                                  /usr/lib/gcc/arm-none-eabi/10.3.1/../../../arm-none-eabi/lib/thumb/v6-m/nofp/libc_nano.a(lib_a-nano-svfprintf.o)
_raise_r                                          /usr/lib/gcc/arm-none-eabi/10.3.1/../../../arm-none-eabi/lib/thumb/v6-m/nofp/libc_nano.a(lib_a-signal.o)
_read                                             /usr/lib/gcc/arm-none-eabi/10.3.1/../../../arm-none-eabi/lib/thumb/v6-m/nofp/libnosys.a(read.o)
                                                  /usr/lib/gcc/arm-none-eabi/10.3.1/../../../arm-none-eabi/lib/thumb/v6-m/nofp/libc_nano.a(lib_a-readr.o)
_read_r                                           /usr/lib/gcc/arm-none-eabi/10.3.1/../../../arm-none-eabi/lib/thumb/v6-m/nofp/libc_nano.a(lib_a-readr.o)
                                                  /usr/lib/gcc/arm-none-eabi/10.3.1/../../../arm-none-eabi/lib/thumb/v6-m/nofp/libc_nano.a(lib_a-stdio.o)
_realloc_r                                        /usr/lib/gcc/arm-none-eabi/10.3.1/../../../arm-none-eabi/lib/thumb/v6-m/nofp/libc_nano.a(lib_a-nano-reallocr.o)
                                                  /usr/lib/gcc/arm-none-eabi/10.3.1/../../../arm-none-eabi/lib/thumb/v6-m/nofp/libc_nano.a(lib_a-fvwrite.o)
                                                  /usr/lib/gcc/arm-none-eabi/10.3.1/../../../arm-none-eabi/lib/thumb/v6-m/nofp/libc_nano.a(lib_a-nano-svfprintf.o)
_reclaim_reent                                    /usr/lib/gcc/arm-none-eabi/10.3.1/../../../arm-none-eabi/lib/thumb/v6-m/nofp/libc_nano.a(lib_a-reent.o)
_sbrk                                             /usr/lib/gcc/arm-none-eabi/10.3.1/../../../arm-none-eabi/lib/thumb/v6-m/nofp/libnosys.a(sbrk.o)
                                                  /usr/lib/gcc/arm-none-eabi/10.3.1/../../../arm-none-eabi/lib/thumb/v6-m/nofp/libc_nano.a(lib_a-sbrkr.o)
_sbrk_r                                           /usr/lib/gcc/arm-none-eabi/10.3.1/../../../arm-none-eabi/lib/thumb/v6-m/nofp/libc_nano.a(lib_a-sbrkr.o)
                                                  /usr/lib/gcc/arm-none-eabi/10.3.1/../../../arm-none-eabi/lib/thumb/v6-m/nofp/libc_nano.a(lib_a-nano-mallocr.o)
_sbss                                             build_sx1261_l0/startup_stm32l071xx.o
_sdata                                            build_sx1261_l0/startup_stm32l071xx.o
_sidata                                           build_sx1261_l0/startup_stm32l071xx.o
_signal_r                                         /usr/lib/gcc/arm-none-eabi/10.3.1/../../../arm-none-eabi/lib/thumb/v6-m/nofp/libc_nano.a(lib_a-signal.o)
_sniprintf_r                                      /usr/lib/gcc/arm-none-eabi/10.3.1/../../../arm-none-eabi/lib/thumb/v6-m/nofp/libc_nano.a(lib_a-snprintf.o)
_snprintf_r                                       /usr/lib/gcc/arm-none-eabi/10.3.1/../../../arm-none-eabi/lib/thumb/v6-m/nofp/libc_nano.a(lib_a-snprintf.o)
_stack_init                                       /usr/lib/gcc/arm-none-eabi/10.3.1/../../../arm-none-eabi/lib/thumb/v6-m/nofp/crt0.o
_start                                            /usr/lib/gcc/arm-none-eabi/10.3.1/../../../arm-none-eabi/lib/thumb/v6-m/nofp/crt0.o
_svfiprintf_r                                     /usr/lib/gcc/arm-none-eabi/10.3.1/../../../arm-none-eabi/lib/thumb/v6-m/nofp/libc_nano.a(lib_a-nano-svfprintf.o)
_svfprintf_r                                      /usr/lib/gcc/arm-none-eabi/10.3.1/../../../arm-none-eabi/lib/thumb/v6-m/nofp/libc_nano.a(lib_a-nano-svfprintf.o)
                                                  /usr/lib/gcc/arm-none-eabi/10.3.1/../../../arm-none-eabi/lib/thumb/v6-m/nofp/libc_nano.a(lib_a-vsprintf.o)
                                                  /usr/lib/gcc/arm-none-eabi/10.3.1/../../../arm-none-eabi/lib/thumb/v6-m/nofp/libc_nano.a(lib_a-snprintf.o)
_vfiprintf_r                                      /usr/lib/gcc/arm-none-eabi/10.3.1/../../../arm-none-eabi/lib/thumb/v6-m/nofp/libc_nano.a(lib_a-nano-vfprintf.o)
_vfprintf_r                                       /usr/lib/gcc/arm-none-eabi/10.3.1/../../../arm-none-eabi/lib/thumb/v6-m/nofp/libc_nano.a(lib_a-nano-vfprintf.o)
                                                  /usr/lib/gcc/arm-none-eabi/10.3.1/../../../arm-none-eabi/lib/thumb/v6-m/nofp/libc_nano.a(lib_a-fprintf.o)
_vsiprintf_r                                      /usr/lib/gcc/arm-none-eabi/10.3.1/../../../arm-none-eabi/lib/thumb/v6-m/nofp/libc_nano.a(lib_a-vsprintf.o)
_vsprintf_r                                       /usr/lib/gcc/arm-none-eabi/10.3.1/../../../arm-none-eabi/lib/thumb/v6-m/nofp/libc_nano.a(lib_a-vsprintf.o)
_write                                            /usr/lib/gcc/arm-none-eabi/10.3.1/../../../arm-none-eabi/lib/thumb/v6-m/nofp/libnosys.a(write.o)
                                                  /usr/lib/gcc/arm-none-eabi/10.3.1/../../../arm-none-eabi/lib/thumb/v6-m/nofp/libc_nano.a(lib_a-writer.o)
_write_r                                          /usr/lib/gcc/arm-none-eabi/10.3.1/../../../arm-none-eabi/lib/thumb/v6-m/nofp/libc_nano.a(lib_a-writer.o)
                                                  /usr/lib/gcc/arm-none-eabi/10.3.1/../../../arm-none-eabi/lib/thumb/v6-m/nofp/libc_nano.a(lib_a-stdio.o)
abort                                             /usr/lib/gcc/arm-none-eabi/10.3.1/../../../arm-none-eabi/lib/thumb/v6-m/nofp/libc_nano.a(lib_a-abort.o)
                                                  /usr/lib/gcc/arm-none-eabi/10.3.1/../../../arm-none-eabi/lib/thumb/v6-m/nofp/libc_nano.a(lib_a-assert.o)
aes_cbc_encrypt                                   lbm/lbm_lib/./build/basic_modem.a(aes.o)
aes_encrypt                                       lbm/lbm_lib/./build/basic_modem.a(aes.o)
                                                  lbm/lbm_lib/./build/basic_modem.a(cmac.o)
                                                  lbm/lbm_lib/./build/basic_modem.a(soft_se.o)
aes_set_key                                       lbm/lbm_lib/./build/basic_modem.a(aes.o)
                                                  lbm/lbm_lib/./build/basic_modem.a(cmac.o)
                                                  lbm/lbm_lib/./build/basic_modem.a(soft_se.o)
atexit                                            /usr/lib/gcc/arm-none-eabi/10.3.1/../../../arm-none-eabi/lib/thumb/v6-m/nofp/libc_nano.a(lib_a-atexit.o)
                                                  /usr/lib/gcc/arm-none-eabi/10.3.1/../../../arm-none-eabi/lib/thumb/v6-m/nofp/crt0.o
cleanup_glue                                      /usr/lib/gcc/arm-none-eabi/10.3.1/../../../arm-none-eabi/lib/thumb/v6-m/nofp/libc_nano.a(lib_a-reent.o)
crc                                               lbm/lbm_lib/./build/basic_modem.a(modem_core.o)
decrement_asynchronous_msgnumber                  lbm/lbm_lib/./build/basic_modem.a(modem_event_utilities.o)
                                                  lbm/lbm_lib/./build/basic_modem.a(smtc_modem.o)
empty_callback                                    lbm/lbm_lib/./build/basic_modem.a(smtc_modem.o)
end                                               /usr/lib/gcc/arm-none-eabi/10.3.1/../../../arm-none-eabi/lib/thumb/v6-m/nofp/libnosys.a(sbrk.o)
errno                                             /usr/lib/gcc/arm-none-eabi/10.3.1/../../../arm-none-eabi/lib/thumb/v6-m/nofp/libc_nano.a(lib_a-reent.o)
                                                  /usr/lib/gcc/arm-none-eabi/10.3.1/../../../arm-none-eabi/lib/thumb/v6-m/nofp/libnosys.a(write.o)
                                                  /usr/lib/gcc/arm-none-eabi/10.3.1/../../../arm-none-eabi/lib/thumb/v6-m/nofp/libnosys.a(read.o)
                                                  /usr/lib/gcc/arm-none-eabi/10.3.1/../../../arm-none-eabi/lib/thumb/v6-m/nofp/libnosys.a(lseek.o)
                                                  /usr/lib/gcc/arm-none-eabi/10.3.1/../../../arm-none-eabi/lib/thumb/v6-m/nofp/libnosys.a(kill.o)
                                                  /usr/lib/gcc/arm-none-eabi/10.3.1/../../../arm-none-eabi/lib/thumb/v6-m/nofp/libnosys.a(isatty.o)
                                                  /usr/lib/gcc/arm-none-eabi/10.3.1/../../../arm-none-eabi/lib/thumb/v6-m/nofp/libnosys.a(getpid.o)
                                                  /usr/lib/gcc/arm-none-eabi/10.3.1/../../../arm-none-eabi/lib/thumb/v6-m/nofp/libnosys.a(fstat.o)
                                                  /usr/lib/gcc/arm-none-eabi/10.3.1/../../../arm-none-eabi/lib/thumb/v6-m/nofp/libnosys.a(close.o)
                                                  /usr/lib/gcc/arm-none-eabi/10.3.1/../../../arm-none-eabi/lib/thumb/v6-m/nofp/libc_nano.a(lib_a-readr.o)
                                                  /usr/lib/gcc/arm-none-eabi/10.3.1/../../../arm-none-eabi/lib/thumb/v6-m/nofp/libc_nano.a(lib_a-lseekr.o)
                                                  /usr/lib/gcc/arm-none-eabi/10.3.1/../../../arm-none-eabi/lib/thumb/v6-m/nofp/libc_nano.a(lib_a-isattyr.o)
                                                  /usr/lib/gcc/arm-none-eabi/10.3.1/../../../arm-none-eabi/lib/thumb/v6-m/nofp/libc_nano.a(lib_a-fstatr.o)
                                                  /usr/lib/gcc/arm-none-eabi/10.3.1/../../../arm-none-eabi/lib/thumb/v6-m/nofp/libc_nano.a(lib_a-closer.o)
                                                  /usr/lib/gcc/arm-none-eabi/10.3.1/../../../arm-none-eabi/lib/thumb/v6-m/nofp/libc_nano.a(lib_a-writer.o)
                                                  /usr/lib/gcc/arm-none-eabi/10.3.1/../../../arm-none-eabi/lib/thumb/v6-m/nofp/libc_nano.a(lib_a-signalr.o)
                                                  /usr/lib/gcc/arm-none-eabi/10.3.1/../../../arm-none-eabi/lib/thumb/v6-m/nofp/libc_nano.a(lib_a-sbrkr.o)
exit                                              /usr/lib/gcc/arm-none-eabi/10.3.1/../../../arm-none-eabi/lib/thumb/v6-m/nofp/libc_nano.a(lib_a-exit.o)
                                                  /usr/lib/gcc/arm-none-eabi/10.3.1/../../../arm-none-eabi/lib/thumb/v6-m/nofp/crt0.o
fflush                                            /usr/lib/gcc/arm-none-eabi/10.3.1/../../../arm-none-eabi/lib/thumb/v6-m/nofp/libc_nano.a(lib_a-fflush.o)
fifo_ctrl_clear                                   lbm/lbm_lib/./build/basic_modem.a(fifo_ctrl.o)
fifo_ctrl_get                                     lbm/lbm_lib/./build/basic_modem.a(fifo_ctrl.o)
                                                  lbm/lbm_lib/./build/basic_modem.a(smtc_modem.o)
fifo_ctrl_get_free_space                          lbm/lbm_lib/./build/basic_modem.a(fifo_ctrl.o)
fifo_ctrl_get_nb_elt                              lbm/lbm_lib/./build/basic_modem.a(fifo_ctrl.o)
                                                  lbm/lbm_lib/./build/basic_modem.a(smtc_modem.o)
fifo_ctrl_init                                    lbm/lbm_lib/./build/basic_modem.a(fifo_ctrl.o)
                                                  lbm/lbm_lib/./build/basic_modem.a(modem_core.o)
fifo_ctrl_print_stat                              lbm/lbm_lib/./build/basic_modem.a(fifo_ctrl.o)
                                                  lbm/lbm_lib/./build/basic_modem.a(modem_core.o)
fifo_ctrl_set                                     lbm/lbm_lib/./build/basic_modem.a(fifo_ctrl.o)
                                                  lbm/lbm_lib/./build/basic_modem.a(modem_core.o)
fiprintf                                          /usr/lib/gcc/arm-none-eabi/10.3.1/../../../arm-none-eabi/lib/thumb/v6-m/nofp/libc_nano.a(lib_a-fprintf.o)
                                                  /usr/lib/gcc/arm-none-eabi/10.3.1/../../../arm-none-eabi/lib/thumb/v6-m/nofp/libc_nano.a(lib_a-assert.o)
fprintf                                           /usr/lib/gcc/arm-none-eabi/10.3.1/../../../arm-none-eabi/lib/thumb/v6-m/nofp/libc_nano.a(lib_a-fprintf.o)
free                                              /usr/lib/gcc/arm-none-eabi/10.3.1/../../../arm-none-eabi/lib/thumb/v6-m/nofp/libc_nano.a(lib_a-malloc.o)
g_pfnVectors                                      build_sx1261_l0/startup_stm32l071xx.o
get_asynchronous_msgnumber                        lbm/lbm_lib/./build/basic_modem.a(modem_event_utilities.o)
                                                  lbm/lbm_lib/./build/basic_modem.a(smtc_modem.o)
get_last_msg_event                                lbm/lbm_lib/./build/basic_modem.a(modem_event_utilities.o)
                                                  lbm/lbm_lib/./build/basic_modem.a(smtc_modem.o)
get_modem_event_count                             lbm/lbm_lib/./build/basic_modem.a(modem_event_utilities.o)
                                                  lbm/lbm_lib/./build/basic_modem.a(smtc_modem.o)
get_modem_event_status                            lbm/lbm_lib/./build/basic_modem.a(modem_event_utilities.o)
                                                  lbm/lbm_lib/./build/basic_modem.a(smtc_modem.o)
gfsk_bw                                           lbm/lbm_lib/./build/basic_modem.a(sx126x.o)
hal_adc_deinit                                    build_sx1261_l0/smtc_hal_adc.o
hal_adc_get_channel                               build_sx1261_l0/smtc_hal_adc.o
hal_adc_get_temp                                  build_sx1261_l0/smtc_hal_adc.o
hal_adc_get_vref_int                              build_sx1261_l0/smtc_hal_adc.o
hal_adc_init                                      build_sx1261_l0/smtc_hal_adc.o
hal_eeprom_read_buffer                            build_sx1261_l0/smtc_hal_eeprom.o
                                                  build_sx1261_l0/smtc_modem_hal.o
                                                  build_sx1261_l0/settings.o
hal_eeprom_write_buffer                           build_sx1261_l0/smtc_hal_eeprom.o
                                                  build_sx1261_l0/smtc_modem_hal.o
                                                  build_sx1261_l0/settings.o
hal_gpio_clear_pending_irq                        build_sx1261_l0/smtc_hal_gpio.o
                                                  build_sx1261_l0/smtc_modem_hal.o
hal_gpio_get_value                                build_sx1261_l0/smtc_hal_gpio.o
                                                  build_sx1261_l0/sx126x_hal.o
hal_gpio_init_in                                  build_sx1261_l0/smtc_hal_gpio.o
                                                  build_sx1261_l0/smtc_hal_mcu.o
hal_gpio_init_out                                 build_sx1261_l0/smtc_hal_gpio.o
                                                  build_sx1261_l0/smtc_hal_mcu.o
                                                  build_sx1261_l0/mx25.o
hal_gpio_irq_attach                               build_sx1261_l0/smtc_hal_gpio.o
                                                  build_sx1261_l0/smtc_modem_hal.o
hal_gpio_irq_deatach                              build_sx1261_l0/smtc_hal_gpio.o
hal_gpio_irq_disable                              build_sx1261_l0/smtc_hal_gpio.o
                                                  build_sx1261_l0/smtc_modem_hal.o
hal_gpio_irq_enable                               build_sx1261_l0/smtc_hal_gpio.o
                                                  build_sx1261_l0/smtc_modem_hal.o
hal_gpio_set_value                                build_sx1261_l0/smtc_hal_gpio.o
                                                  build_sx1261_l0/sx126x_hal.o
                                                  build_sx1261_l0/smtc_modem_hal.o
                                                  build_sx1261_l0/mx25.o
hal_i2c_deinit                                    build_sx1261_l0/smtc_hal_i2c.o
                                                  build_sx1261_l0/smtc_hal_mcu.o
hal_i2c_init                                      build_sx1261_l0/smtc_hal_i2c.o
                                                  build_sx1261_l0/smtc_hal_mcu.o
hal_i2c_read                                      build_sx1261_l0/smtc_hal_i2c.o
hal_i2c_read_buffer                               build_sx1261_l0/smtc_hal_i2c.o
                                                  build_sx1261_l0/sht3x.o
hal_i2c_set_addr_size                             build_sx1261_l0/smtc_hal_i2c.o
                                                  build_sx1261_l0/sht3x.o
hal_i2c_write                                     build_sx1261_l0/smtc_hal_i2c.o
hal_i2c_write_buffer                              build_sx1261_l0/smtc_hal_i2c.o
hal_lp_timer_init                                 build_sx1261_l0/smtc_hal_lp_timer.o
                                                  build_sx1261_l0/smtc_hal_mcu.o
hal_lp_timer_irq_disable                          build_sx1261_l0/smtc_hal_lp_timer.o
                                                  build_sx1261_l0/smtc_modem_hal.o
hal_lp_timer_irq_enable                           build_sx1261_l0/smtc_hal_lp_timer.o
                                                  build_sx1261_l0/smtc_modem_hal.o
hal_lp_timer_start                                build_sx1261_l0/smtc_hal_lp_timer.o
                                                  build_sx1261_l0/smtc_modem_hal.o
hal_lp_timer_stop                                 build_sx1261_l0/smtc_hal_lp_timer.o
                                                  build_sx1261_l0/smtc_modem_hal.o
hal_mcu_critical_section_begin                    build_sx1261_l0/smtc_hal_mcu.o
                                                  build_sx1261_l0/smtc_hal_eeprom.o
                                                  build_sx1261_l0/timer.o
hal_mcu_critical_section_end                      build_sx1261_l0/smtc_hal_mcu.o
                                                  build_sx1261_l0/smtc_hal_eeprom.o
                                                  build_sx1261_l0/timer.o
hal_mcu_delay_ms                                  build_sx1261_l0/smtc_hal_mcu.o
                                                  build_sx1261_l0/mx25.o
hal_mcu_disable_irq                               build_sx1261_l0/smtc_hal_mcu.o
                                                  build_sx1261_l0/main.o
hal_mcu_enable_irq                                build_sx1261_l0/smtc_hal_mcu.o
                                                  build_sx1261_l0/main.o
hal_mcu_init                                      build_sx1261_l0/smtc_hal_mcu.o
                                                  build_sx1261_l0/main.o
hal_mcu_reset                                     build_sx1261_l0/smtc_hal_mcu.o
                                                  build_sx1261_l0/smtc_modem_hal.o
                                                  build_sx1261_l0/smtc_hal_lp_timer.o
                                                  build_sx1261_l0/smtc_hal_eeprom.o
hal_mcu_set_sleep_for_ms                          build_sx1261_l0/smtc_hal_mcu.o
                                                  build_sx1261_l0/main.o
hal_mcu_wait_us                                   build_sx1261_l0/smtc_hal_mcu.o
                                                  build_sx1261_l0/sx126x_hal.o
hal_rng_get_random                                build_sx1261_l0/smtc_hal_rng.o
hal_rng_get_random_in_range                       build_sx1261_l0/smtc_hal_rng.o
                                                  build_sx1261_l0/smtc_modem_hal.o
hal_rng_get_signed_random_in_range                build_sx1261_l0/smtc_hal_rng.o
hal_rng_init                                      build_sx1261_l0/smtc_hal_rng.o
                                                  build_sx1261_l0/smtc_hal_mcu.o
hal_rtc_get_time_ms                               build_sx1261_l0/smtc_hal_rtc.o
                                                  build_sx1261_l0/smtc_modem_hal.o
                                                  build_sx1261_l0/smtc_hal_i2c.o
                                                  build_sx1261_l0/smtc_hal_mcu.o
                                                  build_sx1261_l0/mx25.o
hal_rtc_get_time_s                                build_sx1261_l0/smtc_hal_rtc.o
                                                  build_sx1261_l0/smtc_modem_hal.o
hal_rtc_init                                      build_sx1261_l0/smtc_hal_rtc.o
                                                  build_sx1261_l0/smtc_hal_mcu.o
hal_rtc_set_offset_to_test_wrapping               build_sx1261_l0/smtc_hal_rtc.o
                                                  build_sx1261_l0/smtc_modem_hal.o
hal_rtc_wakeup_timer_set_ms                       build_sx1261_l0/smtc_hal_rtc.o
                                                  build_sx1261_l0/timer_rtc.o
hal_rtc_wakeup_timer_stop                         build_sx1261_l0/smtc_hal_rtc.o
                                                  build_sx1261_l0/timer_rtc.o
hal_spi_de_init                                   build_sx1261_l0/smtc_hal_spi.o
                                                  build_sx1261_l0/smtc_hal_mcu.o
hal_spi_in_out                                    build_sx1261_l0/smtc_hal_spi.o
                                                  build_sx1261_l0/sx126x_hal.o
                                                  build_sx1261_l0/mx25.o
hal_spi_init                                      build_sx1261_l0/smtc_hal_spi.o
                                                  build_sx1261_l0/smtc_hal_mcu.o
hal_trace_print                                   build_sx1261_l0/smtc_hal_trace.o
                                                  build_sx1261_l0/smtc_modem_hal.o
hal_trace_print_var                               build_sx1261_l0/smtc_hal_trace.o
                                                  build_sx1261_l0/smtc_modem_hal.o
                                                  build_sx1261_l0/smtc_hal_mcu.o
                                                  build_sx1261_l0/smtc_hal_lp_timer.o
                                                  build_sx1261_l0/smtc_hal_eeprom.o
                                                  build_sx1261_l0/settings.o
                                                  build_sx1261_l0/main.o
hal_watchdog_init                                 build_sx1261_l0/smtc_hal_watchdog.o
                                                  build_sx1261_l0/smtc_hal_mcu.o
hal_watchdog_reload                               build_sx1261_l0/smtc_hal_watchdog.o
                                                  build_sx1261_l0/smtc_modem_hal.o
                                                  build_sx1261_l0/smtc_hal_mcu.o
hardware_init_hook                                /usr/lib/gcc/arm-none-eabi/10.3.1/../../../arm-none-eabi/lib/thumb/v6-m/nofp/crt0.o
hw_modem_uart_deinit                              build_sx1261_l0/smtc_hal_uart.o
hw_modem_uart_dma_start_rx                        build_sx1261_l0/smtc_hal_uart.o
hw_modem_uart_dma_stop_rx                         build_sx1261_l0/smtc_hal_uart.o
hw_modem_uart_init                                build_sx1261_l0/smtc_hal_uart.o
hw_modem_uart_tx                                  build_sx1261_l0/smtc_hal_uart.o
increment_asynchronous_msgnumber                  lbm/lbm_lib/./build/basic_modem.a(modem_event_utilities.o)
                                                  lbm/lbm_lib/./build/basic_modem.a(lorawan_cid_request_management.o)
                                                  lbm/lbm_lib/./build/basic_modem.a(lorawan_send_management.o)
                                                  lbm/lbm_lib/./build/basic_modem.a(lorawan_join_management.o)
                                                  lbm/lbm_lib/./build/basic_modem.a(modem_supervisor_light.o)
                                                  lbm/lbm_lib/./build/basic_modem.a(modem_core.o)
                                                  lbm/lbm_lib/./build/basic_modem.a(smtc_modem.o)
increment_modem_event_count_and_status            lbm/lbm_lib/./build/basic_modem.a(modem_event_utilities.o)
keys                                              build_sx1261_l0/settings.o
                                                  build_sx1261_l0/main.o
lorawan_api_available_link_adr_get                lbm/lbm_lib/./build/basic_modem.a(lorawan_api.o)
lorawan_api_context_load                          lbm/lbm_lib/./build/basic_modem.a(lorawan_api.o)
lorawan_api_convert_rtc_to_gps_epoch_time         lbm/lbm_lib/./build/basic_modem.a(lorawan_api.o)
                                                  lbm/lbm_lib/./build/basic_modem.a(smtc_modem.o)
lorawan_api_core_abort                            lbm/lbm_lib/./build/basic_modem.a(lorawan_api.o)
                                                  lbm/lbm_lib/./build/basic_modem.a(modem_tx_protocol_manager.o)
                                                  lbm/lbm_lib/./build/basic_modem.a(smtc_modem.o)
lorawan_api_devaddr_get                           lbm/lbm_lib/./build/basic_modem.a(lorawan_api.o)
lorawan_api_devaddr_set                           lbm/lbm_lib/./build/basic_modem.a(lorawan_api.o)
                                                  lbm/lbm_lib/./build/basic_modem.a(smtc_modem.o)
lorawan_api_devnonce_get                          lbm/lbm_lib/./build/basic_modem.a(lorawan_api.o)
lorawan_api_dr_custom_get                         lbm/lbm_lib/./build/basic_modem.a(lorawan_api.o)
lorawan_api_dr_custom_set                         lbm/lbm_lib/./build/basic_modem.a(lorawan_api.o)
                                                  lbm/lbm_lib/./build/basic_modem.a(smtc_modem.o)
lorawan_api_dr_join_distribution_set              lbm/lbm_lib/./build/basic_modem.a(lorawan_api.o)
                                                  lbm/lbm_lib/./build/basic_modem.a(smtc_modem.o)
lorawan_api_dr_strategy_get                       lbm/lbm_lib/./build/basic_modem.a(lorawan_api.o)
                                                  lbm/lbm_lib/./build/basic_modem.a(smtc_modem.o)
lorawan_api_dr_strategy_set                       lbm/lbm_lib/./build/basic_modem.a(lorawan_api.o)
                                                  lbm/lbm_lib/./build/basic_modem.a(lorawan_certification.o)
                                                  lbm/lbm_lib/./build/basic_modem.a(modem_core.o)
                                                  lbm/lbm_lib/./build/basic_modem.a(smtc_modem.o)
lorawan_api_factory_reset                         lbm/lbm_lib/./build/basic_modem.a(lorawan_api.o)
lorawan_api_fcnt_up_get                           lbm/lbm_lib/./build/basic_modem.a(lorawan_api.o)
lorawan_api_get_activation_mode                   lbm/lbm_lib/./build/basic_modem.a(lorawan_api.o)
                                                  lbm/lbm_lib/./build/basic_modem.a(smtc_modem.o)
lorawan_api_get_adr_ack_limit_delay               lbm/lbm_lib/./build/basic_modem.a(lorawan_api.o)
                                                  lbm/lbm_lib/./build/basic_modem.a(smtc_modem.o)
lorawan_api_get_class_b_status                    lbm/lbm_lib/./build/basic_modem.a(lorawan_api.o)
lorawan_api_get_crystal_error                     lbm/lbm_lib/./build/basic_modem.a(lorawan_api.o)
                                                  lbm/lbm_lib/./build/basic_modem.a(smtc_modem.o)
lorawan_api_get_current_adr_ack_cnt               lbm/lbm_lib/./build/basic_modem.a(lorawan_api.o)
lorawan_api_get_current_enabled_frequencies_list  lbm/lbm_lib/./build/basic_modem.a(lorawan_api.o)
                                                  lbm/lbm_lib/./build/basic_modem.a(modem_core.o)
lorawan_api_get_current_no_rx_packet_cnt          lbm/lbm_lib/./build/basic_modem.a(lorawan_api.o)
                                                  lbm/lbm_lib/./build/basic_modem.a(smtc_modem.o)
lorawan_api_get_current_no_rx_packet_cnt_since_s  lbm/lbm_lib/./build/basic_modem.a(lorawan_api.o)
                                                  lbm/lbm_lib/./build/basic_modem.a(smtc_modem.o)
lorawan_api_get_current_no_rx_packet_in_mobile_mode_cnt lbm/lbm_lib/./build/basic_modem.a(lorawan_api.o)
lorawan_api_get_deveui                            lbm/lbm_lib/./build/basic_modem.a(lorawan_api.o)
                                                  lbm/lbm_lib/./build/basic_modem.a(smtc_modem.o)
lorawan_api_get_device_time_invalid_delay_s       lbm/lbm_lib/./build/basic_modem.a(lorawan_api.o)
lorawan_api_get_device_time_req_status            lbm/lbm_lib/./build/basic_modem.a(lorawan_api.o)
                                                  lbm/lbm_lib/./build/basic_modem.a(lorawan_cid_request_management.o)
lorawan_api_get_frequency_factor                  lbm/lbm_lib/./build/basic_modem.a(lorawan_api.o)
lorawan_api_get_joineui                           lbm/lbm_lib/./build/basic_modem.a(lorawan_api.o)
                                                  lbm/lbm_lib/./build/basic_modem.a(smtc_modem.o)
lorawan_api_get_link_check_ans                    lbm/lbm_lib/./build/basic_modem.a(lorawan_api.o)
                                                  lbm/lbm_lib/./build/basic_modem.a(lorawan_cid_request_management.o)
                                                  lbm/lbm_lib/./build/basic_modem.a(smtc_modem.o)
lorawan_api_get_modulation_type_from_datarate     lbm/lbm_lib/./build/basic_modem.a(lorawan_api.o)
lorawan_api_get_network_type                      lbm/lbm_lib/./build/basic_modem.a(lorawan_api.o)
                                                  lbm/lbm_lib/./build/basic_modem.a(smtc_modem.o)
lorawan_api_get_no_rx_packet_threshold            lbm/lbm_lib/./build/basic_modem.a(lorawan_api.o)
lorawan_api_get_no_rx_windows                     lbm/lbm_lib/./build/basic_modem.a(lorawan_api.o)
lorawan_api_get_ping_slot_info_req_status         lbm/lbm_lib/./build/basic_modem.a(lorawan_api.o)
                                                  lbm/lbm_lib/./build/basic_modem.a(lorawan_cid_request_management.o)
lorawan_api_get_ping_slot_periodicity             lbm/lbm_lib/./build/basic_modem.a(lorawan_api.o)
                                                  lbm/lbm_lib/./build/basic_modem.a(smtc_modem.o)
lorawan_api_get_region                            lbm/lbm_lib/./build/basic_modem.a(lorawan_api.o)
                                                  lbm/lbm_lib/./build/basic_modem.a(modem_core.o)
                                                  lbm/lbm_lib/./build/basic_modem.a(smtc_modem.o)
lorawan_api_get_regional_parameters_version       lbm/lbm_lib/./build/basic_modem.a(lorawan_api.o)
                                                  lbm/lbm_lib/./build/basic_modem.a(lorawan_certification.o)
lorawan_api_get_spec_version                      lbm/lbm_lib/./build/basic_modem.a(lorawan_api.o)
                                                  lbm/lbm_lib/./build/basic_modem.a(lorawan_certification.o)
lorawan_api_get_time_left_connection_lost         lbm/lbm_lib/./build/basic_modem.a(lorawan_api.o)
lorawan_api_get_time_of_nwk_ans                   lbm/lbm_lib/./build/basic_modem.a(lorawan_api.o)
                                                  lbm/lbm_lib/./build/basic_modem.a(modem_tx_protocol_manager.o)
lorawan_api_get_timestamp_last_device_time_ans_s  lbm/lbm_lib/./build/basic_modem.a(lorawan_api.o)
                                                  lbm/lbm_lib/./build/basic_modem.a(smtc_modem.o)
lorawan_api_init                                  lbm/lbm_lib/./build/basic_modem.a(lorawan_api.o)
                                                  lbm/lbm_lib/./build/basic_modem.a(modem_core.o)
lorawan_api_is_datarate_valid                     lbm/lbm_lib/./build/basic_modem.a(lorawan_api.o)
lorawan_api_is_dtc_supported                      lbm/lbm_lib/./build/basic_modem.a(lorawan_api.o)
lorawan_api_is_frequency_valid                    lbm/lbm_lib/./build/basic_modem.a(lorawan_api.o)
lorawan_api_is_time_valid                         lbm/lbm_lib/./build/basic_modem.a(lorawan_api.o)
lorawan_api_isjoined                              lbm/lbm_lib/./build/basic_modem.a(lorawan_api.o)
                                                  lbm/lbm_lib/./build/basic_modem.a(smtc_modem_test.o)
                                                  lbm/lbm_lib/./build/basic_modem.a(lorawan_dwn_ack_management.o)
                                                  lbm/lbm_lib/./build/basic_modem.a(lorawan_join_management.o)
                                                  lbm/lbm_lib/./build/basic_modem.a(lorawan_certification.o)
                                                  lbm/lbm_lib/./build/basic_modem.a(modem_core.o)
lorawan_api_join                                  lbm/lbm_lib/./build/basic_modem.a(lorawan_api.o)
                                                  lbm/lbm_lib/./build/basic_modem.a(modem_tx_protocol_manager.o)
                                                  lbm/lbm_lib/./build/basic_modem.a(smtc_modem.o)
lorawan_api_join_duty_cycle_backoff_bypass_get    lbm/lbm_lib/./build/basic_modem.a(lorawan_api.o)
                                                  lbm/lbm_lib/./build/basic_modem.a(lorawan_join_management.o)
                                                  lbm/lbm_lib/./build/basic_modem.a(smtc_modem.o)
lorawan_api_join_duty_cycle_backoff_bypass_set    lbm/lbm_lib/./build/basic_modem.a(lorawan_api.o)
                                                  lbm/lbm_lib/./build/basic_modem.a(smtc_modem.o)
lorawan_api_join_status_clear                     lbm/lbm_lib/./build/basic_modem.a(lorawan_api.o)
                                                  lbm/lbm_lib/./build/basic_modem.a(lorawan_certification.o)
                                                  lbm/lbm_lib/./build/basic_modem.a(modem_core.o)
                                                  lbm/lbm_lib/./build/basic_modem.a(smtc_modem.o)
lorawan_api_lora_dr_to_sf_bw                      lbm/lbm_lib/./build/basic_modem.a(lorawan_api.o)
lorawan_api_mask_tx_dr_channel_up_dwell_time_check lbm/lbm_lib/./build/basic_modem.a(lorawan_api.o)
                                                  lbm/lbm_lib/./build/basic_modem.a(smtc_modem.o)
lorawan_api_max_tx_dr_get                         lbm/lbm_lib/./build/basic_modem.a(lorawan_api.o)
lorawan_api_min_tx_dr_get                         lbm/lbm_lib/./build/basic_modem.a(lorawan_api.o)
lorawan_api_modem_certification_is_enabled        lbm/lbm_lib/./build/basic_modem.a(lorawan_api.o)
                                                  lbm/lbm_lib/./build/basic_modem.a(lorawan_join_management.o)
                                                  lbm/lbm_lib/./build/basic_modem.a(lorawan_certification.o)
                                                  lbm/lbm_lib/./build/basic_modem.a(smtc_modem.o)
lorawan_api_modem_certification_set               lbm/lbm_lib/./build/basic_modem.a(lorawan_api.o)
                                                  lbm/lbm_lib/./build/basic_modem.a(lorawan_certification.o)
lorawan_api_multicast_b_get_session_status        lbm/lbm_lib/./build/basic_modem.a(lorawan_api.o)
lorawan_api_multicast_b_start_session             lbm/lbm_lib/./build/basic_modem.a(lorawan_api.o)
lorawan_api_multicast_b_stop_all_sessions         lbm/lbm_lib/./build/basic_modem.a(lorawan_api.o)
lorawan_api_multicast_b_stop_session              lbm/lbm_lib/./build/basic_modem.a(lorawan_api.o)
lorawan_api_multicast_c_get_session_status        lbm/lbm_lib/./build/basic_modem.a(lorawan_api.o)
lorawan_api_multicast_c_start_session             lbm/lbm_lib/./build/basic_modem.a(lorawan_api.o)
lorawan_api_multicast_c_stop_all_sessions         lbm/lbm_lib/./build/basic_modem.a(lorawan_api.o)
lorawan_api_multicast_c_stop_session              lbm/lbm_lib/./build/basic_modem.a(lorawan_api.o)
lorawan_api_multicast_derive_group_keys           lbm/lbm_lib/./build/basic_modem.a(lorawan_api.o)
lorawan_api_multicast_get_fcnt_down_range         lbm/lbm_lib/./build/basic_modem.a(lorawan_api.o)
lorawan_api_multicast_get_group_address           lbm/lbm_lib/./build/basic_modem.a(lorawan_api.o)
lorawan_api_multicast_get_running_status          lbm/lbm_lib/./build/basic_modem.a(lorawan_api.o)
lorawan_api_multicast_set_fcnt_down_range         lbm/lbm_lib/./build/basic_modem.a(lorawan_api.o)
lorawan_api_multicast_set_group_address           lbm/lbm_lib/./build/basic_modem.a(lorawan_api.o)
lorawan_api_multicast_set_group_session_keys      lbm/lbm_lib/./build/basic_modem.a(lorawan_api.o)
lorawan_api_nb_trans_get                          lbm/lbm_lib/./build/basic_modem.a(lorawan_api.o)
                                                  lbm/lbm_lib/./build/basic_modem.a(smtc_modem.o)
lorawan_api_nb_trans_set                          lbm/lbm_lib/./build/basic_modem.a(lorawan_api.o)
                                                  lbm/lbm_lib/./build/basic_modem.a(smtc_modem.o)
lorawan_api_next_dr_get                           lbm/lbm_lib/./build/basic_modem.a(lorawan_api.o)
lorawan_api_next_frequency_get                    lbm/lbm_lib/./build/basic_modem.a(lorawan_api.o)
lorawan_api_next_join_time_second_get             lbm/lbm_lib/./build/basic_modem.a(lorawan_api.o)
                                                  lbm/lbm_lib/./build/basic_modem.a(lorawan_join_management.o)
lorawan_api_next_max_payload_length_get           lbm/lbm_lib/./build/basic_modem.a(lorawan_api.o)
                                                  lbm/lbm_lib/./build/basic_modem.a(lorawan_certification.o)
                                                  lbm/lbm_lib/./build/basic_modem.a(smtc_modem.o)
lorawan_api_next_network_free_duty_cycle_ms_get   lbm/lbm_lib/./build/basic_modem.a(lorawan_api.o)
                                                  lbm/lbm_lib/./build/basic_modem.a(modem_core.o)
lorawan_api_next_power_get                        lbm/lbm_lib/./build/basic_modem.a(lorawan_api.o)
lorawan_api_payload_send                          lbm/lbm_lib/./build/basic_modem.a(lorawan_api.o)
                                                  lbm/lbm_lib/./build/basic_modem.a(modem_tx_protocol_manager.o)
lorawan_api_payload_send_at_time                  lbm/lbm_lib/./build/basic_modem.a(lorawan_api.o)
lorawan_api_process                               lbm/lbm_lib/./build/basic_modem.a(lorawan_api.o)
                                                  lbm/lbm_lib/./build/basic_modem.a(modem_supervisor_light.o)
lorawan_api_reset_no_rx_packet_in_mobile_mode_cnt lbm/lbm_lib/./build/basic_modem.a(lorawan_api.o)
                                                  lbm/lbm_lib/./build/basic_modem.a(smtc_modem.o)
lorawan_api_send_stack_cid_req                    lbm/lbm_lib/./build/basic_modem.a(lorawan_api.o)
                                                  lbm/lbm_lib/./build/basic_modem.a(modem_tx_protocol_manager.o)
lorawan_api_set_activation_mode                   lbm/lbm_lib/./build/basic_modem.a(lorawan_api.o)
                                                  lbm/lbm_lib/./build/basic_modem.a(lorawan_certification.o)
                                                  lbm/lbm_lib/./build/basic_modem.a(smtc_modem.o)
lorawan_api_set_adr_ack_limit_delay               lbm/lbm_lib/./build/basic_modem.a(lorawan_api.o)
                                                  lbm/lbm_lib/./build/basic_modem.a(smtc_modem.o)
lorawan_api_set_appkey                            lbm/lbm_lib/./build/basic_modem.a(lorawan_api.o)
                                                  lbm/lbm_lib/./build/basic_modem.a(smtc_modem.o)
lorawan_api_set_crystal_error                     lbm/lbm_lib/./build/basic_modem.a(lorawan_api.o)
                                                  lbm/lbm_lib/./build/basic_modem.a(smtc_modem.o)
lorawan_api_set_deveui                            lbm/lbm_lib/./build/basic_modem.a(lorawan_api.o)
                                                  lbm/lbm_lib/./build/basic_modem.a(smtc_modem.o)
lorawan_api_set_device_time_invalid_delay_s       lbm/lbm_lib/./build/basic_modem.a(lorawan_api.o)
lorawan_api_set_join_status                       lbm/lbm_lib/./build/basic_modem.a(lorawan_api.o)
                                                  lbm/lbm_lib/./build/basic_modem.a(lorawan_join_management.o)
lorawan_api_set_joineui                           lbm/lbm_lib/./build/basic_modem.a(lorawan_api.o)
                                                  lbm/lbm_lib/./build/basic_modem.a(smtc_modem.o)
lorawan_api_set_network_type                      lbm/lbm_lib/./build/basic_modem.a(lorawan_api.o)
                                                  lbm/lbm_lib/./build/basic_modem.a(smtc_modem.o)
lorawan_api_set_next_tx_at_time                   lbm/lbm_lib/./build/basic_modem.a(lorawan_api.o)
                                                  lbm/lbm_lib/./build/basic_modem.a(modem_tx_protocol_manager.o)
lorawan_api_set_no_rx_packet_threshold            lbm/lbm_lib/./build/basic_modem.a(lorawan_api.o)
lorawan_api_set_no_rx_windows                     lbm/lbm_lib/./build/basic_modem.a(lorawan_api.o)
lorawan_api_set_nwkkey                            lbm/lbm_lib/./build/basic_modem.a(lorawan_api.o)
                                                  lbm/lbm_lib/./build/basic_modem.a(smtc_modem.o)
lorawan_api_set_ping_slot_periodicity             lbm/lbm_lib/./build/basic_modem.a(lorawan_api.o)
                                                  lbm/lbm_lib/./build/basic_modem.a(lorawan_certification.o)
                                                  lbm/lbm_lib/./build/basic_modem.a(smtc_modem.o)
lorawan_api_set_region                            lbm/lbm_lib/./build/basic_modem.a(lorawan_api.o)
                                                  lbm/lbm_lib/./build/basic_modem.a(modem_core.o)
                                                  lbm/lbm_lib/./build/basic_modem.a(smtc_modem.o)
lorawan_api_set_time_of_nwk_ans                   lbm/lbm_lib/./build/basic_modem.a(lorawan_api.o)
                                                  lbm/lbm_lib/./build/basic_modem.a(modem_tx_protocol_manager.o)
lorawan_api_stack_mac_get                         lbm/lbm_lib/./build/basic_modem.a(lorawan_api.o)
                                                  lbm/lbm_lib/./build/basic_modem.a(modem_tx_protocol_manager.o)
lorawan_api_state_get                             lbm/lbm_lib/./build/basic_modem.a(lorawan_api.o)
lorawan_api_tx_ack_bit_get                        lbm/lbm_lib/./build/basic_modem.a(lorawan_api.o)
                                                  lbm/lbm_lib/./build/basic_modem.a(lorawan_dwn_ack_management.o)
lorawan_api_tx_ack_bit_set                        lbm/lbm_lib/./build/basic_modem.a(lorawan_api.o)
                                                  lbm/lbm_lib/./build/basic_modem.a(lorawan_dwn_ack_management.o)
lorawan_api_update_join_channel                   lbm/lbm_lib/./build/basic_modem.a(lorawan_api.o)
                                                  lbm/lbm_lib/./build/basic_modem.a(modem_tx_protocol_manager.o)
lorawan_api_update_next_tx_channel                lbm/lbm_lib/./build/basic_modem.a(lorawan_api.o)
                                                  lbm/lbm_lib/./build/basic_modem.a(modem_tx_protocol_manager.o)
lorawan_certification_get_enabled                 lbm/lbm_lib/./build/basic_modem.a(lorawan_certification.o)
                                                  lbm/lbm_lib/./build/basic_modem.a(smtc_modem.o)
lorawan_certification_services_init               lbm/lbm_lib/./build/basic_modem.a(lorawan_certification.o)
                                                  lbm/lbm_lib/./build/basic_modem.a(modem_core.o)
lorawan_certification_set_enabled                 lbm/lbm_lib/./build/basic_modem.a(lorawan_certification.o)
                                                  lbm/lbm_lib/./build/basic_modem.a(smtc_modem.o)
lorawan_cid_request_add_task                      lbm/lbm_lib/./build/basic_modem.a(lorawan_cid_request_management.o)
                                                  lbm/lbm_lib/./build/basic_modem.a(smtc_modem.o)
lorawan_cid_request_management_init               lbm/lbm_lib/./build/basic_modem.a(lorawan_cid_request_management.o)
                                                  lbm/lbm_lib/./build/basic_modem.a(modem_core.o)
lorawan_cid_request_remove_task                   lbm/lbm_lib/./build/basic_modem.a(lorawan_cid_request_management.o)
lorawan_down_metadata                             lbm/lbm_lib/./build/basic_modem.a(lorawan_api.o)
lorawan_dwn_ack_add_task                          lbm/lbm_lib/./build/basic_modem.a(lorawan_dwn_ack_management.o)
lorawan_dwn_ack_management_init                   lbm/lbm_lib/./build/basic_modem.a(lorawan_dwn_ack_management.o)
                                                  lbm/lbm_lib/./build/basic_modem.a(modem_core.o)
lorawan_dwn_ack_remove_task                       lbm/lbm_lib/./build/basic_modem.a(lorawan_dwn_ack_management.o)
lorawan_join_add_task                             lbm/lbm_lib/./build/basic_modem.a(lorawan_join_management.o)
                                                  lbm/lbm_lib/./build/basic_modem.a(lorawan_certification.o)
                                                  lbm/lbm_lib/./build/basic_modem.a(smtc_modem.o)
lorawan_join_management_services_init             lbm/lbm_lib/./build/basic_modem.a(lorawan_join_management.o)
                                                  lbm/lbm_lib/./build/basic_modem.a(modem_core.o)
lorawan_join_remove_task                          lbm/lbm_lib/./build/basic_modem.a(lorawan_join_management.o)
lorawan_send_add_task                             lbm/lbm_lib/./build/basic_modem.a(lorawan_send_management.o)
                                                  lbm/lbm_lib/./build/basic_modem.a(lorawan_dwn_ack_management.o)
                                                  lbm/lbm_lib/./build/basic_modem.a(smtc_modem.o)
lorawan_send_management_services_init             lbm/lbm_lib/./build/basic_modem.a(lorawan_send_management.o)
                                                  lbm/lbm_lib/./build/basic_modem.a(modem_core.o)
lorawan_send_remove_task                          lbm/lbm_lib/./build/basic_modem.a(lorawan_send_management.o)
lr1_mac_core_get_device_time_invalid_delay_s      lbm/lbm_lib/./build/basic_modem.a(lr1mac_core.o)
                                                  lbm/lbm_lib/./build/basic_modem.a(lorawan_api.o)
lr1_mac_core_get_device_time_req_status           lbm/lbm_lib/./build/basic_modem.a(lr1mac_core.o)
                                                  lbm/lbm_lib/./build/basic_modem.a(lorawan_api.o)
lr1_mac_core_get_link_check_ans                   lbm/lbm_lib/./build/basic_modem.a(lr1mac_core.o)
                                                  lbm/lbm_lib/./build/basic_modem.a(lorawan_api.o)
lr1_mac_core_get_ping_slot_info_req_status        lbm/lbm_lib/./build/basic_modem.a(lr1mac_core.o)
                                                  lbm/lbm_lib/./build/basic_modem.a(lorawan_api.o)
lr1_mac_core_set_device_time_invalid_delay_s      lbm/lbm_lib/./build/basic_modem.a(lr1mac_core.o)
                                                  lbm/lbm_lib/./build/basic_modem.a(lorawan_api.o)
lr1_mac_joined_status_get                         lbm/lbm_lib/./build/basic_modem.a(lr1mac_core.o)
                                                  lbm/lbm_lib/./build/basic_modem.a(lorawan_api.o)
lr1_stack_get_crystal_error                       lbm/lbm_lib/./build/basic_modem.a(lr1_stack_mac_layer.o)
                                                  lbm/lbm_lib/./build/basic_modem.a(lorawan_api.o)
lr1_stack_mac_cmd_ans_cut                         lbm/lbm_lib/./build/basic_modem.a(lr1mac_utilities.o)
                                                  lbm/lbm_lib/./build/basic_modem.a(lr1_stack_mac_layer.o)
lr1_stack_mac_cmd_parse                           lbm/lbm_lib/./build/basic_modem.a(lr1_stack_mac_layer.o)
                                                  lbm/lbm_lib/./build/basic_modem.a(lr1mac_core.o)
lr1_stack_mac_init                                lbm/lbm_lib/./build/basic_modem.a(lr1_stack_mac_layer.o)
                                                  lbm/lbm_lib/./build/basic_modem.a(lr1mac_core.o)
lr1_stack_mac_join_accept                         lbm/lbm_lib/./build/basic_modem.a(lr1_stack_mac_layer.o)
                                                  lbm/lbm_lib/./build/basic_modem.a(lr1mac_core.o)
lr1_stack_mac_join_request_build                  lbm/lbm_lib/./build/basic_modem.a(lr1_stack_mac_layer.o)
                                                  lbm/lbm_lib/./build/basic_modem.a(lr1mac_core.o)
lr1_stack_mac_region_config                       lbm/lbm_lib/./build/basic_modem.a(lr1_stack_mac_layer.o)
                                                  lbm/lbm_lib/./build/basic_modem.a(lr1mac_core.o)
lr1_stack_mac_region_init                         lbm/lbm_lib/./build/basic_modem.a(lr1_stack_mac_layer.o)
                                                  lbm/lbm_lib/./build/basic_modem.a(lr1mac_core.o)
lr1_stack_mac_rp_callback                         lbm/lbm_lib/./build/basic_modem.a(lr1_stack_mac_layer.o)
                                                  lbm/lbm_lib/./build/basic_modem.a(lr1mac_core.o)
lr1_stack_mac_rx_frame_decode                     lbm/lbm_lib/./build/basic_modem.a(lr1_stack_mac_layer.o)
                                                  lbm/lbm_lib/./build/basic_modem.a(lr1mac_core.o)
lr1_stack_mac_rx_gfsk_launch_callback_for_rp      lbm/lbm_lib/./build/basic_modem.a(lr1_stack_mac_layer.o)
                                                  lbm/lbm_lib/./build/basic_modem.a(smtc_modem_test.o)
lr1_stack_mac_rx_lora_launch_callback_for_rp      lbm/lbm_lib/./build/basic_modem.a(lr1_stack_mac_layer.o)
                                                  lbm/lbm_lib/./build/basic_modem.a(smtc_modem_test.o)
lr1_stack_mac_rx_radio_start                      lbm/lbm_lib/./build/basic_modem.a(lr1_stack_mac_layer.o)
lr1_stack_mac_rx_timer_configure                  lbm/lbm_lib/./build/basic_modem.a(lr1_stack_mac_layer.o)
                                                  lbm/lbm_lib/./build/basic_modem.a(lr1mac_core.o)
lr1_stack_mac_session_init                        lbm/lbm_lib/./build/basic_modem.a(lr1_stack_mac_layer.o)
lr1_stack_mac_tx_ack_bit_get                      lbm/lbm_lib/./build/basic_modem.a(lr1_stack_mac_layer.o)
                                                  lbm/lbm_lib/./build/basic_modem.a(lorawan_api.o)
lr1_stack_mac_tx_ack_bit_set                      lbm/lbm_lib/./build/basic_modem.a(lr1_stack_mac_layer.o)
                                                  lbm/lbm_lib/./build/basic_modem.a(lorawan_api.o)
lr1_stack_mac_tx_frame_build                      lbm/lbm_lib/./build/basic_modem.a(lr1_stack_mac_layer.o)
                                                  lbm/lbm_lib/./build/basic_modem.a(lr1mac_core.o)
lr1_stack_mac_tx_frame_encrypt                    lbm/lbm_lib/./build/basic_modem.a(lr1_stack_mac_layer.o)
                                                  lbm/lbm_lib/./build/basic_modem.a(lr1mac_core.o)
lr1_stack_mac_tx_gfsk_launch_callback_for_rp      lbm/lbm_lib/./build/basic_modem.a(lr1_stack_mac_layer.o)
                                                  lbm/lbm_lib/./build/basic_modem.a(smtc_modem_test.o)
lr1_stack_mac_tx_lora_launch_callback_for_rp      lbm/lbm_lib/./build/basic_modem.a(lr1_stack_mac_layer.o)
                                                  lbm/lbm_lib/./build/basic_modem.a(smtc_modem_test.o)
lr1_stack_mac_tx_lr_fhss_launch_callback_for_rp   lbm/lbm_lib/./build/basic_modem.a(lr1_stack_mac_layer.o)
lr1_stack_mac_tx_radio_start                      lbm/lbm_lib/./build/basic_modem.a(lr1_stack_mac_layer.o)
                                                  lbm/lbm_lib/./build/basic_modem.a(lr1mac_core.o)
lr1_stack_mac_update                              lbm/lbm_lib/./build/basic_modem.a(lr1_stack_mac_layer.o)
                                                  lbm/lbm_lib/./build/basic_modem.a(lr1mac_core.o)
lr1_stack_mac_update_tx_done                      lbm/lbm_lib/./build/basic_modem.a(lr1_stack_mac_layer.o)
                                                  lbm/lbm_lib/./build/basic_modem.a(lr1mac_core.o)
lr1_stack_nb_trans_get                            lbm/lbm_lib/./build/basic_modem.a(lr1_stack_mac_layer.o)
                                                  lbm/lbm_lib/./build/basic_modem.a(lorawan_api.o)
lr1_stack_nb_trans_set                            lbm/lbm_lib/./build/basic_modem.a(lr1_stack_mac_layer.o)
                                                  lbm/lbm_lib/./build/basic_modem.a(lorawan_api.o)
lr1_stack_network_next_free_duty_cycle_ms_get     lbm/lbm_lib/./build/basic_modem.a(lr1_stack_mac_layer.o)
                                                  lbm/lbm_lib/./build/basic_modem.a(lr1mac_core.o)
                                                  lbm/lbm_lib/./build/basic_modem.a(lorawan_api.o)
lr1_stack_set_crystal_error                       lbm/lbm_lib/./build/basic_modem.a(lr1_stack_mac_layer.o)
                                                  lbm/lbm_lib/./build/basic_modem.a(lorawan_api.o)
lr1_stack_toa_get                                 lbm/lbm_lib/./build/basic_modem.a(lr1_stack_mac_layer.o)
lr1mac_core_abort                                 lbm/lbm_lib/./build/basic_modem.a(lr1mac_core.o)
                                                  lbm/lbm_lib/./build/basic_modem.a(lorawan_api.o)
lr1mac_core_available_link_adr_get                lbm/lbm_lib/./build/basic_modem.a(lr1mac_core.o)
                                                  lbm/lbm_lib/./build/basic_modem.a(lorawan_api.o)
lr1mac_core_certification_get                     lbm/lbm_lib/./build/basic_modem.a(lr1mac_core.o)
                                                  lbm/lbm_lib/./build/basic_modem.a(lorawan_api.o)
lr1mac_core_certification_set                     lbm/lbm_lib/./build/basic_modem.a(lr1mac_core.o)
                                                  lbm/lbm_lib/./build/basic_modem.a(lorawan_api.o)
lr1mac_core_context_factory_reset                 lbm/lbm_lib/./build/basic_modem.a(lr1mac_core.o)
                                                  lbm/lbm_lib/./build/basic_modem.a(lorawan_api.o)
lr1mac_core_context_load                          lbm/lbm_lib/./build/basic_modem.a(lr1mac_core.o)
                                                  lbm/lbm_lib/./build/basic_modem.a(lorawan_api.o)
lr1mac_core_context_save                          lbm/lbm_lib/./build/basic_modem.a(lr1mac_core.o)
lr1mac_core_convert_rtc_to_gps_epoch_time         lbm/lbm_lib/./build/basic_modem.a(lr1mac_core.o)
                                                  lbm/lbm_lib/./build/basic_modem.a(lorawan_api.o)
lr1mac_core_devaddr_get                           lbm/lbm_lib/./build/basic_modem.a(lr1mac_core.o)
                                                  lbm/lbm_lib/./build/basic_modem.a(lorawan_api.o)
lr1mac_core_devaddr_set                           lbm/lbm_lib/./build/basic_modem.a(lr1mac_core.o)
                                                  lbm/lbm_lib/./build/basic_modem.a(lorawan_api.o)
lr1mac_core_devnonce_get                          lbm/lbm_lib/./build/basic_modem.a(lr1mac_core.o)
                                                  lbm/lbm_lib/./build/basic_modem.a(lorawan_api.o)
lr1mac_core_dr_strategy_get                       lbm/lbm_lib/./build/basic_modem.a(lr1mac_core.o)
                                                  lbm/lbm_lib/./build/basic_modem.a(lorawan_api.o)
lr1mac_core_dr_strategy_set                       lbm/lbm_lib/./build/basic_modem.a(lr1mac_core.o)
                                                  lbm/lbm_lib/./build/basic_modem.a(lorawan_api.o)
lr1mac_core_fcnt_up_get                           lbm/lbm_lib/./build/basic_modem.a(lr1mac_core.o)
                                                  lbm/lbm_lib/./build/basic_modem.a(lorawan_api.o)
lr1mac_core_get_activation_mode                   lbm/lbm_lib/./build/basic_modem.a(lr1mac_core.o)
                                                  lbm/lbm_lib/./build/basic_modem.a(lorawan_api.o)
lr1mac_core_get_adr_ack_limit_delay               lbm/lbm_lib/./build/basic_modem.a(lr1mac_core.o)
                                                  lbm/lbm_lib/./build/basic_modem.a(lorawan_api.o)
lr1mac_core_get_class_b_status                    lbm/lbm_lib/./build/basic_modem.a(lr1mac_core.o)
                                                  lbm/lbm_lib/./build/basic_modem.a(lorawan_api.o)
lr1mac_core_get_current_adr_ack_cnt               lbm/lbm_lib/./build/basic_modem.a(lr1mac_core.o)
                                                  lbm/lbm_lib/./build/basic_modem.a(lorawan_api.o)
lr1mac_core_get_current_no_rx_packet_cnt          lbm/lbm_lib/./build/basic_modem.a(lr1mac_core.o)
                                                  lbm/lbm_lib/./build/basic_modem.a(lorawan_api.o)
lr1mac_core_get_current_no_rx_packet_cnt_since_s  lbm/lbm_lib/./build/basic_modem.a(lr1mac_core.o)
                                                  lbm/lbm_lib/./build/basic_modem.a(lorawan_api.o)
lr1mac_core_get_current_no_rx_packet_in_mobile_mode lbm/lbm_lib/./build/basic_modem.a(lr1mac_core.o)
                                                  lbm/lbm_lib/./build/basic_modem.a(lorawan_api.o)
lr1mac_core_get_lorawan_version                   lbm/lbm_lib/./build/basic_modem.a(lr1mac_core.o)
                                                  lbm/lbm_lib/./build/basic_modem.a(lorawan_api.o)
lr1mac_core_get_no_rx_packet_threshold            lbm/lbm_lib/./build/basic_modem.a(lr1mac_core.o)
                                                  lbm/lbm_lib/./build/basic_modem.a(lorawan_api.o)
lr1mac_core_get_no_rx_windows                     lbm/lbm_lib/./build/basic_modem.a(lr1mac_core.o)
                                                  lbm/lbm_lib/./build/basic_modem.a(lorawan_api.o)
lr1mac_core_get_ping_slot_periodicity             lbm/lbm_lib/./build/basic_modem.a(lr1mac_core.o)
                                                  lbm/lbm_lib/./build/basic_modem.a(lorawan_api.o)
lr1mac_core_get_region                            lbm/lbm_lib/./build/basic_modem.a(lr1mac_core.o)
                                                  lbm/lbm_lib/./build/basic_modem.a(lorawan_api.o)
lr1mac_core_get_time_left_connection_lost         lbm/lbm_lib/./build/basic_modem.a(lr1mac_core.o)
                                                  lbm/lbm_lib/./build/basic_modem.a(lorawan_api.o)
lr1mac_core_get_time_of_nwk_ans                   lbm/lbm_lib/./build/basic_modem.a(lr1mac_core.o)
                                                  lbm/lbm_lib/./build/basic_modem.a(lorawan_api.o)
lr1mac_core_get_timestamp_last_device_time_ans_s  lbm/lbm_lib/./build/basic_modem.a(lr1mac_core.o)
                                                  lbm/lbm_lib/./build/basic_modem.a(lorawan_api.o)
lr1mac_core_init                                  lbm/lbm_lib/./build/basic_modem.a(lr1mac_core.o)
                                                  lbm/lbm_lib/./build/basic_modem.a(lorawan_api.o)
lr1mac_core_is_time_valid                         lbm/lbm_lib/./build/basic_modem.a(lr1mac_core.o)
                                                  lbm/lbm_lib/./build/basic_modem.a(lorawan_api.o)
lr1mac_core_join                                  lbm/lbm_lib/./build/basic_modem.a(lr1mac_core.o)
                                                  lbm/lbm_lib/./build/basic_modem.a(lorawan_api.o)
lr1mac_core_join_duty_cycle_backoff_bypass_get    lbm/lbm_lib/./build/basic_modem.a(lr1mac_core.o)
                                                  lbm/lbm_lib/./build/basic_modem.a(lorawan_api.o)
lr1mac_core_join_duty_cycle_backoff_bypass_set    lbm/lbm_lib/./build/basic_modem.a(lr1mac_core.o)
                                                  lbm/lbm_lib/./build/basic_modem.a(lorawan_api.o)
lr1mac_core_join_status_clear                     lbm/lbm_lib/./build/basic_modem.a(lr1mac_core.o)
                                                  lbm/lbm_lib/./build/basic_modem.a(lorawan_api.o)
lr1mac_core_next_dr_get                           lbm/lbm_lib/./build/basic_modem.a(lr1mac_core.o)
                                                  lbm/lbm_lib/./build/basic_modem.a(lorawan_api.o)
lr1mac_core_next_frequency_get                    lbm/lbm_lib/./build/basic_modem.a(lr1mac_core.o)
                                                  lbm/lbm_lib/./build/basic_modem.a(lorawan_api.o)
lr1mac_core_next_join_time_second_get             lbm/lbm_lib/./build/basic_modem.a(lr1mac_core.o)
                                                  lbm/lbm_lib/./build/basic_modem.a(lorawan_api.o)
lr1mac_core_next_max_payload_length_get           lbm/lbm_lib/./build/basic_modem.a(lr1mac_core.o)
                                                  lbm/lbm_lib/./build/basic_modem.a(lorawan_api.o)
lr1mac_core_next_power_get                        lbm/lbm_lib/./build/basic_modem.a(lr1mac_core.o)
                                                  lbm/lbm_lib/./build/basic_modem.a(lorawan_api.o)
lr1mac_core_payload_send                          lbm/lbm_lib/./build/basic_modem.a(lr1mac_core.o)
                                                  lbm/lbm_lib/./build/basic_modem.a(lorawan_api.o)
lr1mac_core_payload_send_at_time                  lbm/lbm_lib/./build/basic_modem.a(lr1mac_core.o)
                                                  lbm/lbm_lib/./build/basic_modem.a(lorawan_api.o)
lr1mac_core_process                               lbm/lbm_lib/./build/basic_modem.a(lr1mac_core.o)
                                                  lbm/lbm_lib/./build/basic_modem.a(lorawan_api.o)
lr1mac_core_reset_no_rx_packet_in_mobile_mode_cnt lbm/lbm_lib/./build/basic_modem.a(lr1mac_core.o)
                                                  lbm/lbm_lib/./build/basic_modem.a(lorawan_api.o)
lr1mac_core_send_stack_cid_req                    lbm/lbm_lib/./build/basic_modem.a(lr1mac_core.o)
                                                  lbm/lbm_lib/./build/basic_modem.a(lorawan_api.o)
lr1mac_core_set_activation_mode                   lbm/lbm_lib/./build/basic_modem.a(lr1mac_core.o)
                                                  lbm/lbm_lib/./build/basic_modem.a(lorawan_api.o)
lr1mac_core_set_adr_ack_limit_delay               lbm/lbm_lib/./build/basic_modem.a(lr1mac_core.o)
                                                  lbm/lbm_lib/./build/basic_modem.a(lorawan_api.o)
lr1mac_core_set_join_status                       lbm/lbm_lib/./build/basic_modem.a(lr1mac_core.o)
                                                  lbm/lbm_lib/./build/basic_modem.a(lorawan_api.o)
lr1mac_core_set_next_tx_at_time                   lbm/lbm_lib/./build/basic_modem.a(lr1mac_core.o)
                                                  lbm/lbm_lib/./build/basic_modem.a(lorawan_api.o)
lr1mac_core_set_no_rx_packet_threshold            lbm/lbm_lib/./build/basic_modem.a(lr1mac_core.o)
                                                  lbm/lbm_lib/./build/basic_modem.a(lorawan_api.o)
lr1mac_core_set_no_rx_windows                     lbm/lbm_lib/./build/basic_modem.a(lr1mac_core.o)
                                                  lbm/lbm_lib/./build/basic_modem.a(lorawan_api.o)
lr1mac_core_set_ping_slot_periodicity             lbm/lbm_lib/./build/basic_modem.a(lr1mac_core.o)
                                                  lbm/lbm_lib/./build/basic_modem.a(lorawan_api.o)
lr1mac_core_set_region                            lbm/lbm_lib/./build/basic_modem.a(lr1mac_core.o)
                                                  lbm/lbm_lib/./build/basic_modem.a(lorawan_api.o)
lr1mac_core_set_time_of_nwk_ans                   lbm/lbm_lib/./build/basic_modem.a(lr1mac_core.o)
                                                  lbm/lbm_lib/./build/basic_modem.a(lorawan_api.o)
lr1mac_core_state_get                             lbm/lbm_lib/./build/basic_modem.a(lr1mac_core.o)
                                                  lbm/lbm_lib/./build/basic_modem.a(lorawan_api.o)
lr1mac_core_update_join_channel                   lbm/lbm_lib/./build/basic_modem.a(lr1mac_core.o)
                                                  lbm/lbm_lib/./build/basic_modem.a(lorawan_api.o)
lr1mac_core_update_next_tx_channel                lbm/lbm_lib/./build/basic_modem.a(lr1mac_core.o)
                                                  lbm/lbm_lib/./build/basic_modem.a(lorawan_api.o)
lr1mac_fcnt_dwn_accept                            lbm/lbm_lib/./build/basic_modem.a(lr1mac_utilities.o)
                                                  lbm/lbm_lib/./build/basic_modem.a(lr1_stack_mac_layer.o)
lr1mac_rx_fhdr_extract                            lbm/lbm_lib/./build/basic_modem.a(lr1mac_utilities.o)
                                                  lbm/lbm_lib/./build/basic_modem.a(lr1_stack_mac_layer.o)
lr1mac_rx_mhdr_extract                            lbm/lbm_lib/./build/basic_modem.a(lr1mac_utilities.o)
                                                  lbm/lbm_lib/./build/basic_modem.a(lr1_stack_mac_layer.o)
lr1mac_rx_payload_max_size_check                  lbm/lbm_lib/./build/basic_modem.a(lr1_stack_mac_layer.o)
lr1mac_rx_payload_min_size_check                  lbm/lbm_lib/./build/basic_modem.a(lr1mac_utilities.o)
                                                  lbm/lbm_lib/./build/basic_modem.a(lr1_stack_mac_layer.o)
lr1mac_utilities_crc                              lbm/lbm_lib/./build/basic_modem.a(lr1mac_utilities.o)
                                                  lbm/lbm_lib/./build/basic_modem.a(lr1mac_core.o)
lr1mac_utilities_get_symb_time_us                 lbm/lbm_lib/./build/basic_modem.a(lr1mac_utilities.o)
lr_fhss_build_frame                               lbm/lbm_lib/./build/basic_modem.a(lr_fhss_mac.o)
                                                  lbm/lbm_lib/./build/basic_modem.a(sx126x_lr_fhss.o)
lr_fhss_get_hop_params                            lbm/lbm_lib/./build/basic_modem.a(lr_fhss_mac.o)
                                                  lbm/lbm_lib/./build/basic_modem.a(sx126x_lr_fhss.o)
lr_fhss_get_hop_sequence_count                    lbm/lbm_lib/./build/basic_modem.a(lr_fhss_mac.o)
                                                  lbm/lbm_lib/./build/basic_modem.a(ral_sx126x.o)
lr_fhss_get_next_freq_in_grid                     lbm/lbm_lib/./build/basic_modem.a(lr_fhss_mac.o)
                                                  lbm/lbm_lib/./build/basic_modem.a(sx126x_lr_fhss.o)
lr_fhss_get_next_state                            lbm/lbm_lib/./build/basic_modem.a(lr_fhss_mac.o)
                                                  lbm/lbm_lib/./build/basic_modem.a(sx126x_lr_fhss.o)
lr_fhss_get_time_on_air_in_ms                     lbm/lbm_lib/./build/basic_modem.a(lr_fhss_mac.o)
                                                  lbm/lbm_lib/./build/basic_modem.a(ral_sx126x.o)
lr_fhss_header_crc8_lut                           lbm/lbm_lib/./build/basic_modem.a(lr_fhss_mac.o)
lr_fhss_payload_crc16_lut                         lbm/lbm_lib/./build/basic_modem.a(lr_fhss_mac.o)
lr_fhss_process_parameters                        lbm/lbm_lib/./build/basic_modem.a(lr_fhss_mac.o)
                                                  lbm/lbm_lib/./build/basic_modem.a(sx126x_lr_fhss.o)
main                                              build_sx1261_l0/main.o
                                                  build_sx1261_l0/startup_stm32l071xx.o
                                                  /usr/lib/gcc/arm-none-eabi/10.3.1/../../../arm-none-eabi/lib/thumb/v6-m/nofp/crt0.o
malloc                                            /usr/lib/gcc/arm-none-eabi/10.3.1/../../../arm-none-eabi/lib/thumb/v6-m/nofp/libc_nano.a(lib_a-malloc.o)
                                                  /usr/lib/gcc/arm-none-eabi/10.3.1/../../../arm-none-eabi/lib/thumb/v6-m/nofp/libc_nano.a(lib_a-__atexit.o)
                                                  /usr/lib/gcc/arm-none-eabi/10.3.1/../../../arm-none-eabi/lib/thumb/v6-m/nofp/libc_nano.a(lib_a-rand.o)
memchr                                            /usr/lib/gcc/arm-none-eabi/10.3.1/../../../arm-none-eabi/lib/thumb/v6-m/nofp/libc_nano.a(lib_a-memchr-stub.o)
                                                  /usr/lib/gcc/arm-none-eabi/10.3.1/../../../arm-none-eabi/lib/thumb/v6-m/nofp/libc_nano.a(lib_a-fvwrite.o)
                                                  /usr/lib/gcc/arm-none-eabi/10.3.1/../../../arm-none-eabi/lib/thumb/v6-m/nofp/libc_nano.a(lib_a-nano-vfprintf_i.o)
                                                  /usr/lib/gcc/arm-none-eabi/10.3.1/../../../arm-none-eabi/lib/thumb/v6-m/nofp/libc_nano.a(lib_a-nano-vfprintf.o)
                                                  /usr/lib/gcc/arm-none-eabi/10.3.1/../../../arm-none-eabi/lib/thumb/v6-m/nofp/libc_nano.a(lib_a-nano-svfprintf.o)
memcmp                                            /usr/lib/gcc/arm-none-eabi/10.3.1/../../../arm-none-eabi/lib/thumb/v6-m/nofp/libc_nano.a(lib_a-memcmp.o)
                                                  lbm/lbm_lib/./build/basic_modem.a(lr1mac_core.o)
                                                  build_sx1261_l0/settings.o
memcpy                                            /usr/lib/gcc/arm-none-eabi/10.3.1/../../../arm-none-eabi/lib/thumb/v6-m/nofp/libc_nano.a(lib_a-memcpy-stub.o)
                                                  /usr/lib/gcc/arm-none-eabi/10.3.1/../../../arm-none-eabi/lib/thumb/v6-m/nofp/libc_nano.a(lib_a-nano-reallocr.o)
                                                  /usr/lib/gcc/arm-none-eabi/10.3.1/../../../arm-none-eabi/lib/thumb/v6-m/nofp/libc_nano.a(lib_a-fvwrite.o)
                                                  /usr/lib/gcc/arm-none-eabi/10.3.1/../../../arm-none-eabi/lib/thumb/v6-m/nofp/libc_nano.a(lib_a-nano-svfprintf.o)
                                                  lbm/lbm_lib/./build/basic_modem.a(lr_fhss_mac.o)
                                                  lbm/lbm_lib/./build/basic_modem.a(sx126x_lr_fhss.o)
                                                  lbm/lbm_lib/./build/basic_modem.a(sx126x.o)
                                                  lbm/lbm_lib/./build/basic_modem.a(lr1mac_utilities.o)
                                                  lbm/lbm_lib/./build/basic_modem.a(lr1mac_core.o)
                                                  lbm/lbm_lib/./build/basic_modem.a(lr1_stack_mac_layer.o)
                                                  lbm/lbm_lib/./build/basic_modem.a(region_eu_868.o)
                                                  lbm/lbm_lib/./build/basic_modem.a(smtc_modem_crypto.o)
                                                  lbm/lbm_lib/./build/basic_modem.a(cmac.o)
                                                  lbm/lbm_lib/./build/basic_modem.a(smtc_modem_test.o)
                                                  lbm/lbm_lib/./build/basic_modem.a(radio_planner.o)
                                                  lbm/lbm_lib/./build/basic_modem.a(smtc_real.o)
                                                  lbm/lbm_lib/./build/basic_modem.a(soft_se.o)
                                                  lbm/lbm_lib/./build/basic_modem.a(lorawan_send_management.o)
                                                  lbm/lbm_lib/./build/basic_modem.a(lorawan_certification.o)
                                                  lbm/lbm_lib/./build/basic_modem.a(modem_tx_protocol_manager.o)
                                                  lbm/lbm_lib/./build/basic_modem.a(fifo_ctrl.o)
                                                  lbm/lbm_lib/./build/basic_modem.a(smtc_modem.o)
                                                  build_sx1261_l0/smtc_modem_hal.o
                                                  build_sx1261_l0/smtc_hal_eeprom.o
                                                  build_sx1261_l0/smtc_hal_rng.o
                                                  build_sx1261_l0/sha256.o
                                                  build_sx1261_l0/sht3x.o
memmove                                           /usr/lib/gcc/arm-none-eabi/10.3.1/../../../arm-none-eabi/lib/thumb/v6-m/nofp/libc_nano.a(lib_a-memmove.o)
                                                  /usr/lib/gcc/arm-none-eabi/10.3.1/../../../arm-none-eabi/lib/thumb/v6-m/nofp/libc_nano.a(lib_a-fvwrite.o)
                                                  /usr/lib/gcc/arm-none-eabi/10.3.1/../../../arm-none-eabi/lib/thumb/v6-m/nofp/libc_nano.a(lib_a-nano-svfprintf.o)
memset                                            /usr/lib/gcc/arm-none-eabi/10.3.1/../../../arm-none-eabi/lib/thumb/v6-m/nofp/libc_nano.a(lib_a-memset.o)
                                                  /usr/lib/gcc/arm-none-eabi/10.3.1/../../../arm-none-eabi/lib/thumb/v6-m/nofp/libc_nano.a(lib_a-findfp.o)
                                                  lbm/lbm_lib/./build/basic_modem.a(lr_fhss_mac.o)
                                                  lbm/lbm_lib/./build/basic_modem.a(sx126x.o)
                                                  lbm/lbm_lib/./build/basic_modem.a(lr1mac_core.o)
                                                  lbm/lbm_lib/./build/basic_modem.a(lr1_stack_mac_layer.o)
                                                  lbm/lbm_lib/./build/basic_modem.a(region_eu_868.o)
                                                  lbm/lbm_lib/./build/basic_modem.a(smtc_modem_crypto.o)
                                                  lbm/lbm_lib/./build/basic_modem.a(cmac.o)
                                                  lbm/lbm_lib/./build/basic_modem.a(smtc_modem_test.o)
                                                  lbm/lbm_lib/./build/basic_modem.a(radio_planner.o)
                                                  lbm/lbm_lib/./build/basic_modem.a(ralf_sx126x.o)
                                                  lbm/lbm_lib/./build/basic_modem.a(ral_sx126x.o)
                                                  lbm/lbm_lib/./build/basic_modem.a(smtc_lbt.o)
                                                  lbm/lbm_lib/./build/basic_modem.a(smtc_duty_cycle.o)
                                                  lbm/lbm_lib/./build/basic_modem.a(smtc_real.o)
                                                  lbm/lbm_lib/./build/basic_modem.a(soft_se.o)
                                                  lbm/lbm_lib/./build/basic_modem.a(lorawan_dwn_ack_management.o)
                                                  lbm/lbm_lib/./build/basic_modem.a(lorawan_cid_request_management.o)
                                                  lbm/lbm_lib/./build/basic_modem.a(lorawan_send_management.o)
                                                  lbm/lbm_lib/./build/basic_modem.a(lorawan_join_management.o)
                                                  lbm/lbm_lib/./build/basic_modem.a(lorawan_certification.o)
                                                  lbm/lbm_lib/./build/basic_modem.a(modem_tx_protocol_manager.o)
                                                  lbm/lbm_lib/./build/basic_modem.a(modem_supervisor_light.o)
                                                  lbm/lbm_lib/./build/basic_modem.a(modem_core.o)
                                                  lbm/lbm_lib/./build/basic_modem.a(smtc_modem.o)
                                                  build_sx1261_l0/smtc_modem_hal.o
                                                  build_sx1261_l0/smtc_hal_adc.o
                                                  build_sx1261_l0/smtc_hal_i2c.o
                                                  build_sx1261_l0/smtc_hal_uart.o
                                                  build_sx1261_l0/sha256.o
                                                  /usr/lib/gcc/arm-none-eabi/10.3.1/../../../arm-none-eabi/lib/thumb/v6-m/nofp/crt0.o
modem_context_get_fifo_obj                        lbm/lbm_lib/./build/basic_modem.a(modem_core.o)
                                                  lbm/lbm_lib/./build/basic_modem.a(smtc_modem.o)
modem_context_init_light                          lbm/lbm_lib/./build/basic_modem.a(modem_core.o)
                                                  lbm/lbm_lib/./build/basic_modem.a(smtc_modem.o)
modem_ctx_light                                   lbm/lbm_lib/./build/basic_modem.a(modem_core.o)
modem_duty_cycle_get_status                       lbm/lbm_lib/./build/basic_modem.a(modem_core.o)
                                                  lbm/lbm_lib/./build/basic_modem.a(modem_supervisor_light.o)
                                                  lbm/lbm_lib/./build/basic_modem.a(smtc_modem.o)
modem_empty_callback                              lbm/lbm_lib/./build/basic_modem.a(modem_core.o)
modem_event_ctx                                   lbm/lbm_lib/./build/basic_modem.a(modem_event_utilities.o)
modem_event_init                                  lbm/lbm_lib/./build/basic_modem.a(modem_event_utilities.o)
                                                  lbm/lbm_lib/./build/basic_modem.a(modem_core.o)
modem_get_radio_ctx                               lbm/lbm_lib/./build/basic_modem.a(modem_core.o)
modem_get_reset_counter                           lbm/lbm_lib/./build/basic_modem.a(modem_core.o)
                                                  lbm/lbm_lib/./build/basic_modem.a(smtc_modem.o)
modem_get_rp                                      lbm/lbm_lib/./build/basic_modem.a(modem_core.o)
                                                  lbm/lbm_lib/./build/basic_modem.a(smtc_modem_test.o)
modem_get_status                                  lbm/lbm_lib/./build/basic_modem.a(modem_core.o)
                                                  lbm/lbm_lib/./build/basic_modem.a(smtc_modem.o)
modem_get_test_mode_status                        lbm/lbm_lib/./build/basic_modem.a(modem_core.o)
                                                  lbm/lbm_lib/./build/basic_modem.a(smtc_modem_test.o)
                                                  lbm/lbm_lib/./build/basic_modem.a(smtc_modem.o)
modem_get_user_alarm                              lbm/lbm_lib/./build/basic_modem.a(modem_core.o)
                                                  lbm/lbm_lib/./build/basic_modem.a(modem_supervisor_light.o)
                                                  lbm/lbm_lib/./build/basic_modem.a(smtc_modem.o)
modem_load_modem_context                          lbm/lbm_lib/./build/basic_modem.a(modem_core.o)
modem_radio                                       lbm/lbm_lib/./build/basic_modem.a(smtc_modem.o)
modem_radio_planner                               lbm/lbm_lib/./build/basic_modem.a(smtc_modem.o)
modem_resume_radio_access                         lbm/lbm_lib/./build/basic_modem.a(modem_core.o)
                                                  lbm/lbm_lib/./build/basic_modem.a(smtc_modem.o)
modem_set_radio_ctx                               lbm/lbm_lib/./build/basic_modem.a(modem_core.o)
                                                  lbm/lbm_lib/./build/basic_modem.a(smtc_modem.o)
modem_set_test_mode_status                        lbm/lbm_lib/./build/basic_modem.a(modem_core.o)
                                                  lbm/lbm_lib/./build/basic_modem.a(smtc_modem_test.o)
modem_set_user_alarm                              lbm/lbm_lib/./build/basic_modem.a(modem_core.o)
                                                  lbm/lbm_lib/./build/basic_modem.a(modem_supervisor_light.o)
                                                  lbm/lbm_lib/./build/basic_modem.a(smtc_modem.o)
modem_store_modem_context                         lbm/lbm_lib/./build/basic_modem.a(modem_core.o)
                                                  lbm/lbm_lib/./build/basic_modem.a(lorawan_join_management.o)
modem_supervisor_abort_tasks_in_range             lbm/lbm_lib/./build/basic_modem.a(modem_supervisor_light.o)
                                                  lbm/lbm_lib/./build/basic_modem.a(smtc_modem.o)
modem_supervisor_add_task                         lbm/lbm_lib/./build/basic_modem.a(modem_supervisor_light.o)
                                                  lbm/lbm_lib/./build/basic_modem.a(lorawan_dwn_ack_management.o)
                                                  lbm/lbm_lib/./build/basic_modem.a(lorawan_cid_request_management.o)
                                                  lbm/lbm_lib/./build/basic_modem.a(lorawan_send_management.o)
                                                  lbm/lbm_lib/./build/basic_modem.a(lorawan_join_management.o)
                                                  lbm/lbm_lib/./build/basic_modem.a(lorawan_certification.o)
modem_supervisor_context                          lbm/lbm_lib/./build/basic_modem.a(modem_supervisor_light.o)
modem_supervisor_engine                           lbm/lbm_lib/./build/basic_modem.a(modem_supervisor_light.o)
                                                  lbm/lbm_lib/./build/basic_modem.a(smtc_modem.o)
modem_supervisor_get_modem_is_suspended           lbm/lbm_lib/./build/basic_modem.a(modem_supervisor_light.o)
                                                  lbm/lbm_lib/./build/basic_modem.a(modem_core.o)
                                                  lbm/lbm_lib/./build/basic_modem.a(smtc_modem.o)
modem_supervisor_get_modem_mute_with_priority_parameter lbm/lbm_lib/./build/basic_modem.a(modem_supervisor_light.o)
modem_supervisor_get_task                         lbm/lbm_lib/./build/basic_modem.a(modem_supervisor_light.o)
                                                  lbm/lbm_lib/./build/basic_modem.a(lorawan_dwn_ack_management.o)
                                                  lbm/lbm_lib/./build/basic_modem.a(lorawan_cid_request_management.o)
                                                  lbm/lbm_lib/./build/basic_modem.a(lorawan_send_management.o)
                                                  lbm/lbm_lib/./build/basic_modem.a(lorawan_join_management.o)
                                                  lbm/lbm_lib/./build/basic_modem.a(lorawan_certification.o)
modem_supervisor_init                             lbm/lbm_lib/./build/basic_modem.a(modem_supervisor_light.o)
                                                  lbm/lbm_lib/./build/basic_modem.a(smtc_modem.o)
modem_supervisor_init_callback                    lbm/lbm_lib/./build/basic_modem.a(modem_supervisor_light.o)
                                                  lbm/lbm_lib/./build/basic_modem.a(modem_core.o)
modem_supervisor_remove_task                      lbm/lbm_lib/./build/basic_modem.a(modem_supervisor_light.o)
                                                  lbm/lbm_lib/./build/basic_modem.a(lorawan_dwn_ack_management.o)
                                                  lbm/lbm_lib/./build/basic_modem.a(lorawan_cid_request_management.o)
                                                  lbm/lbm_lib/./build/basic_modem.a(lorawan_send_management.o)
                                                  lbm/lbm_lib/./build/basic_modem.a(lorawan_join_management.o)
modem_supervisor_set_modem_is_suspended           lbm/lbm_lib/./build/basic_modem.a(modem_supervisor_light.o)
                                                  lbm/lbm_lib/./build/basic_modem.a(smtc_modem.o)
modem_supervisor_set_modem_mute_with_priority_parameter lbm/lbm_lib/./build/basic_modem.a(modem_supervisor_light.o)
modem_suspend_radio_access                        lbm/lbm_lib/./build/basic_modem.a(modem_core.o)
                                                  lbm/lbm_lib/./build/basic_modem.a(smtc_modem.o)
modem_test_compute_rssi_callback                  lbm/lbm_lib/./build/basic_modem.a(smtc_modem_test.o)
modem_test_context                                lbm/lbm_lib/./build/basic_modem.a(smtc_modem_test.o)
modem_test_empty_callback                         lbm/lbm_lib/./build/basic_modem.a(smtc_modem_test.o)
modem_test_rx_callback                            lbm/lbm_lib/./build/basic_modem.a(smtc_modem_test.o)
modem_test_set_rssi                               lbm/lbm_lib/./build/basic_modem.a(smtc_modem_test.o)
modem_test_tx_callback                            lbm/lbm_lib/./build/basic_modem.a(smtc_modem_test.o)
modem_tx_protcol_manager_init                     lbm/lbm_lib/./build/basic_modem.a(modem_tx_protocol_manager.o)
                                                  lbm/lbm_lib/./build/basic_modem.a(smtc_modem.o)
mx25_busy                                         build_sx1261_l0/mx25.o
mx25_enable_write                                 build_sx1261_l0/mx25.o
mx25_erase_all                                    build_sx1261_l0/mx25.o
mx25_erase_page                                   build_sx1261_l0/mx25.o
mx25_init                                         build_sx1261_l0/mx25.o
                                                  build_sx1261_l0/main.o
mx25_page_writeable                               build_sx1261_l0/mx25.o
mx25_read                                         build_sx1261_l0/mx25.o
mx25_read_id                                      build_sx1261_l0/mx25.o
mx25_read_status                                  build_sx1261_l0/mx25.o
mx25_sleep                                        build_sx1261_l0/mx25.o
mx25_wait_ready                                   build_sx1261_l0/mx25.o
mx25_wakeup                                       build_sx1261_l0/mx25.o
mx25_write                                        build_sx1261_l0/mx25.o
mx25_write_page                                   build_sx1261_l0/mx25.o
radio_utilities_get_tx_power_offset               build_sx1261_l0/radio_utilities.o
                                                  build_sx1261_l0/ral_sx126x_bsp.o
radio_utilities_set_tx_power_offset               build_sx1261_l0/radio_utilities.o
raise                                             /usr/lib/gcc/arm-none-eabi/10.3.1/../../../arm-none-eabi/lib/thumb/v6-m/nofp/libc_nano.a(lib_a-signal.o)
                                                  /usr/lib/gcc/arm-none-eabi/10.3.1/../../../arm-none-eabi/lib/thumb/v6-m/nofp/libc_nano.a(lib_a-abort.o)
ral_sx126x_bsp_get_lora_cad_det_peak              build_sx1261_l0/ral_sx126x_bsp.o
                                                  lbm/lbm_lib/./build/basic_modem.a(ral_sx126x.o)
ral_sx126x_bsp_get_ocp_value                      build_sx1261_l0/ral_sx126x_bsp.o
                                                  lbm/lbm_lib/./build/basic_modem.a(ral_sx126x.o)
ral_sx126x_bsp_get_reg_mode                       build_sx1261_l0/ral_sx126x_bsp.o
                                                  lbm/lbm_lib/./build/basic_modem.a(ral_sx126x.o)
ral_sx126x_bsp_get_rf_switch_cfg                  build_sx1261_l0/ral_sx126x_bsp.o
                                                  lbm/lbm_lib/./build/basic_modem.a(ral_sx126x.o)
ral_sx126x_bsp_get_rx_boost_cfg                   build_sx1261_l0/ral_sx126x_bsp.o
                                                  lbm/lbm_lib/./build/basic_modem.a(ral_sx126x.o)
ral_sx126x_bsp_get_trim_cap                       build_sx1261_l0/ral_sx126x_bsp.o
                                                  lbm/lbm_lib/./build/basic_modem.a(ral_sx126x.o)
ral_sx126x_bsp_get_tx_cfg                         build_sx1261_l0/ral_sx126x_bsp.o
                                                  lbm/lbm_lib/./build/basic_modem.a(ral_sx126x.o)
ral_sx126x_bsp_get_xosc_cfg                       build_sx1261_l0/ral_sx126x_bsp.o
                                                  lbm/lbm_lib/./build/basic_modem.a(ral_sx126x.o)
ral_sx126x_cal_img                                lbm/lbm_lib/./build/basic_modem.a(ral_sx126x.o)
                                                  lbm/lbm_lib/./build/basic_modem.a(smtc_modem.o)
ral_sx126x_cfg_rx_boosted                         lbm/lbm_lib/./build/basic_modem.a(ral_sx126x.o)
                                                  lbm/lbm_lib/./build/basic_modem.a(smtc_modem.o)
ral_sx126x_clear_irq_status                       lbm/lbm_lib/./build/basic_modem.a(ral_sx126x.o)
                                                  lbm/lbm_lib/./build/basic_modem.a(smtc_modem.o)
ral_sx126x_convert_gfsk_mod_params_from_ral       lbm/lbm_lib/./build/basic_modem.a(ral_sx126x.o)
ral_sx126x_convert_gfsk_pkt_params_from_ral       lbm/lbm_lib/./build/basic_modem.a(ral_sx126x.o)
ral_sx126x_convert_irq_flags_from_ral             lbm/lbm_lib/./build/basic_modem.a(ral_sx126x.o)
ral_sx126x_convert_irq_flags_to_ral               lbm/lbm_lib/./build/basic_modem.a(ral_sx126x.o)
ral_sx126x_convert_lora_cad_params_from_ral       lbm/lbm_lib/./build/basic_modem.a(ral_sx126x.o)
ral_sx126x_convert_lora_cr_to_ral                 lbm/lbm_lib/./build/basic_modem.a(ral_sx126x.o)
ral_sx126x_convert_lora_mod_params_from_ral       lbm/lbm_lib/./build/basic_modem.a(ral_sx126x.o)
ral_sx126x_convert_lora_pkt_params_from_ral       lbm/lbm_lib/./build/basic_modem.a(ral_sx126x.o)
ral_sx126x_convert_lr_fhss_params_from_ral        lbm/lbm_lib/./build/basic_modem.a(ral_sx126x.o)
ral_sx126x_get_and_clear_irq_status               lbm/lbm_lib/./build/basic_modem.a(ral_sx126x.o)
                                                  lbm/lbm_lib/./build/basic_modem.a(smtc_modem.o)
ral_sx126x_get_flrc_rx_pkt_status                 lbm/lbm_lib/./build/basic_modem.a(ral_sx126x.o)
                                                  lbm/lbm_lib/./build/basic_modem.a(smtc_modem.o)
ral_sx126x_get_flrc_time_on_air_in_ms             lbm/lbm_lib/./build/basic_modem.a(ral_sx126x.o)
                                                  lbm/lbm_lib/./build/basic_modem.a(smtc_modem.o)
ral_sx126x_get_gfsk_rx_consumption_in_ua          lbm/lbm_lib/./build/basic_modem.a(ral_sx126x.o)
                                                  lbm/lbm_lib/./build/basic_modem.a(smtc_modem.o)
ral_sx126x_get_gfsk_rx_pkt_status                 lbm/lbm_lib/./build/basic_modem.a(ral_sx126x.o)
                                                  lbm/lbm_lib/./build/basic_modem.a(smtc_modem.o)
ral_sx126x_get_gfsk_time_on_air_in_ms             lbm/lbm_lib/./build/basic_modem.a(ral_sx126x.o)
                                                  lbm/lbm_lib/./build/basic_modem.a(smtc_modem.o)
ral_sx126x_get_irq_status                         lbm/lbm_lib/./build/basic_modem.a(ral_sx126x.o)
                                                  lbm/lbm_lib/./build/basic_modem.a(smtc_modem.o)
ral_sx126x_get_lora_cad_det_peak                  lbm/lbm_lib/./build/basic_modem.a(ral_sx126x.o)
                                                  lbm/lbm_lib/./build/basic_modem.a(smtc_modem.o)
ral_sx126x_get_lora_rx_consumption_in_ua          lbm/lbm_lib/./build/basic_modem.a(ral_sx126x.o)
                                                  lbm/lbm_lib/./build/basic_modem.a(smtc_modem.o)
ral_sx126x_get_lora_rx_pkt_cr_crc                 lbm/lbm_lib/./build/basic_modem.a(ral_sx126x.o)
                                                  lbm/lbm_lib/./build/basic_modem.a(smtc_modem.o)
ral_sx126x_get_lora_rx_pkt_status                 lbm/lbm_lib/./build/basic_modem.a(ral_sx126x.o)
                                                  lbm/lbm_lib/./build/basic_modem.a(smtc_modem.o)
ral_sx126x_get_lora_time_on_air_in_ms             lbm/lbm_lib/./build/basic_modem.a(ral_sx126x.o)
                                                  lbm/lbm_lib/./build/basic_modem.a(smtc_modem.o)
ral_sx126x_get_pkt_payload                        lbm/lbm_lib/./build/basic_modem.a(ral_sx126x.o)
                                                  lbm/lbm_lib/./build/basic_modem.a(smtc_modem.o)
ral_sx126x_get_pkt_type                           lbm/lbm_lib/./build/basic_modem.a(ral_sx126x.o)
                                                  lbm/lbm_lib/./build/basic_modem.a(smtc_modem.o)
ral_sx126x_get_random_numbers                     lbm/lbm_lib/./build/basic_modem.a(ral_sx126x.o)
                                                  lbm/lbm_lib/./build/basic_modem.a(smtc_modem.o)
ral_sx126x_get_rssi_inst                          lbm/lbm_lib/./build/basic_modem.a(ral_sx126x.o)
                                                  lbm/lbm_lib/./build/basic_modem.a(smtc_modem.o)
ral_sx126x_get_tx_consumption_in_ua               lbm/lbm_lib/./build/basic_modem.a(ral_sx126x.o)
                                                  lbm/lbm_lib/./build/basic_modem.a(smtc_modem.o)
ral_sx126x_handle_rx_done                         lbm/lbm_lib/./build/basic_modem.a(ral_sx126x.o)
                                                  lbm/lbm_lib/./build/basic_modem.a(smtc_modem.o)
ral_sx126x_handle_tx_done                         lbm/lbm_lib/./build/basic_modem.a(ral_sx126x.o)
                                                  lbm/lbm_lib/./build/basic_modem.a(smtc_modem.o)
ral_sx126x_handles_part                           lbm/lbm_lib/./build/basic_modem.a(ral_sx126x.o)
                                                  lbm/lbm_lib/./build/basic_modem.a(smtc_modem.o)
ral_sx126x_init                                   lbm/lbm_lib/./build/basic_modem.a(ral_sx126x.o)
                                                  lbm/lbm_lib/./build/basic_modem.a(smtc_modem.o)
ral_sx126x_lr_fhss_build_frame                    lbm/lbm_lib/./build/basic_modem.a(ral_sx126x.o)
                                                  lbm/lbm_lib/./build/basic_modem.a(smtc_modem.o)
ral_sx126x_lr_fhss_get_bit_delay_in_us            lbm/lbm_lib/./build/basic_modem.a(ral_sx126x.o)
                                                  lbm/lbm_lib/./build/basic_modem.a(smtc_modem.o)
ral_sx126x_lr_fhss_get_hop_sequence_count         lbm/lbm_lib/./build/basic_modem.a(ral_sx126x.o)
                                                  lbm/lbm_lib/./build/basic_modem.a(smtc_modem.o)
ral_sx126x_lr_fhss_get_time_on_air_in_ms          lbm/lbm_lib/./build/basic_modem.a(ral_sx126x.o)
                                                  lbm/lbm_lib/./build/basic_modem.a(smtc_modem.o)
ral_sx126x_lr_fhss_handle_hop                     lbm/lbm_lib/./build/basic_modem.a(ral_sx126x.o)
                                                  lbm/lbm_lib/./build/basic_modem.a(smtc_modem.o)
ral_sx126x_lr_fhss_handle_tx_done                 lbm/lbm_lib/./build/basic_modem.a(ral_sx126x.o)
                                                  lbm/lbm_lib/./build/basic_modem.a(smtc_modem.o)
ral_sx126x_lr_fhss_init                           lbm/lbm_lib/./build/basic_modem.a(ral_sx126x.o)
                                                  lbm/lbm_lib/./build/basic_modem.a(smtc_modem.o)
ral_sx126x_reset                                  lbm/lbm_lib/./build/basic_modem.a(ral_sx126x.o)
                                                  lbm/lbm_lib/./build/basic_modem.a(smtc_modem.o)
ral_sx126x_set_dio_irq_params                     lbm/lbm_lib/./build/basic_modem.a(ral_sx126x.o)
                                                  lbm/lbm_lib/./build/basic_modem.a(smtc_modem.o)
ral_sx126x_set_flrc_crc_params                    lbm/lbm_lib/./build/basic_modem.a(ral_sx126x.o)
                                                  lbm/lbm_lib/./build/basic_modem.a(smtc_modem.o)
ral_sx126x_set_flrc_mod_params                    lbm/lbm_lib/./build/basic_modem.a(ral_sx126x.o)
                                                  lbm/lbm_lib/./build/basic_modem.a(smtc_modem.o)
ral_sx126x_set_flrc_pkt_params                    lbm/lbm_lib/./build/basic_modem.a(ral_sx126x.o)
                                                  lbm/lbm_lib/./build/basic_modem.a(smtc_modem.o)
ral_sx126x_set_flrc_sync_word                     lbm/lbm_lib/./build/basic_modem.a(ral_sx126x.o)
                                                  lbm/lbm_lib/./build/basic_modem.a(smtc_modem.o)
ral_sx126x_set_fs                                 lbm/lbm_lib/./build/basic_modem.a(ral_sx126x.o)
                                                  lbm/lbm_lib/./build/basic_modem.a(smtc_modem.o)
ral_sx126x_set_gfsk_crc_params                    lbm/lbm_lib/./build/basic_modem.a(ral_sx126x.o)
                                                  lbm/lbm_lib/./build/basic_modem.a(smtc_modem.o)
ral_sx126x_set_gfsk_mod_params                    lbm/lbm_lib/./build/basic_modem.a(ral_sx126x.o)
                                                  lbm/lbm_lib/./build/basic_modem.a(smtc_modem.o)
ral_sx126x_set_gfsk_pkt_params                    lbm/lbm_lib/./build/basic_modem.a(ral_sx126x.o)
                                                  lbm/lbm_lib/./build/basic_modem.a(smtc_modem.o)
ral_sx126x_set_gfsk_sync_word                     lbm/lbm_lib/./build/basic_modem.a(ral_sx126x.o)
                                                  lbm/lbm_lib/./build/basic_modem.a(smtc_modem.o)
ral_sx126x_set_gfsk_whitening_seed                lbm/lbm_lib/./build/basic_modem.a(ral_sx126x.o)
                                                  lbm/lbm_lib/./build/basic_modem.a(smtc_modem.o)
ral_sx126x_set_lora_cad                           lbm/lbm_lib/./build/basic_modem.a(ral_sx126x.o)
                                                  lbm/lbm_lib/./build/basic_modem.a(smtc_modem.o)
ral_sx126x_set_lora_cad_params                    lbm/lbm_lib/./build/basic_modem.a(ral_sx126x.o)
                                                  lbm/lbm_lib/./build/basic_modem.a(smtc_modem.o)
ral_sx126x_set_lora_mod_params                    lbm/lbm_lib/./build/basic_modem.a(ral_sx126x.o)
                                                  lbm/lbm_lib/./build/basic_modem.a(smtc_modem.o)
ral_sx126x_set_lora_pkt_params                    lbm/lbm_lib/./build/basic_modem.a(ral_sx126x.o)
                                                  lbm/lbm_lib/./build/basic_modem.a(smtc_modem.o)
ral_sx126x_set_lora_symb_nb_timeout               lbm/lbm_lib/./build/basic_modem.a(ral_sx126x.o)
                                                  lbm/lbm_lib/./build/basic_modem.a(smtc_modem.o)
ral_sx126x_set_lora_sync_word                     lbm/lbm_lib/./build/basic_modem.a(ral_sx126x.o)
                                                  lbm/lbm_lib/./build/basic_modem.a(smtc_modem.o)
ral_sx126x_set_pkt_payload                        lbm/lbm_lib/./build/basic_modem.a(ral_sx126x.o)
                                                  lbm/lbm_lib/./build/basic_modem.a(smtc_modem.o)
ral_sx126x_set_pkt_type                           lbm/lbm_lib/./build/basic_modem.a(ral_sx126x.o)
                                                  lbm/lbm_lib/./build/basic_modem.a(smtc_modem.o)
ral_sx126x_set_rf_freq                            lbm/lbm_lib/./build/basic_modem.a(ral_sx126x.o)
                                                  lbm/lbm_lib/./build/basic_modem.a(smtc_modem.o)
ral_sx126x_set_rx                                 lbm/lbm_lib/./build/basic_modem.a(ral_sx126x.o)
                                                  lbm/lbm_lib/./build/basic_modem.a(smtc_modem.o)
ral_sx126x_set_rx_duty_cycle                      lbm/lbm_lib/./build/basic_modem.a(ral_sx126x.o)
                                                  lbm/lbm_lib/./build/basic_modem.a(smtc_modem.o)
ral_sx126x_set_rx_tx_fallback_mode                lbm/lbm_lib/./build/basic_modem.a(ral_sx126x.o)
                                                  lbm/lbm_lib/./build/basic_modem.a(smtc_modem.o)
ral_sx126x_set_sleep                              lbm/lbm_lib/./build/basic_modem.a(ral_sx126x.o)
                                                  lbm/lbm_lib/./build/basic_modem.a(smtc_modem.o)
ral_sx126x_set_standby                            lbm/lbm_lib/./build/basic_modem.a(ral_sx126x.o)
                                                  lbm/lbm_lib/./build/basic_modem.a(smtc_modem.o)
ral_sx126x_set_tx                                 lbm/lbm_lib/./build/basic_modem.a(ral_sx126x.o)
                                                  lbm/lbm_lib/./build/basic_modem.a(smtc_modem.o)
ral_sx126x_set_tx_cfg                             lbm/lbm_lib/./build/basic_modem.a(ral_sx126x.o)
                                                  lbm/lbm_lib/./build/basic_modem.a(smtc_modem.o)
ral_sx126x_set_tx_cw                              lbm/lbm_lib/./build/basic_modem.a(ral_sx126x.o)
                                                  lbm/lbm_lib/./build/basic_modem.a(smtc_modem.o)
ral_sx126x_set_tx_infinite_preamble               lbm/lbm_lib/./build/basic_modem.a(ral_sx126x.o)
                                                  lbm/lbm_lib/./build/basic_modem.a(smtc_modem.o)
ral_sx126x_stop_timer_on_preamble                 lbm/lbm_lib/./build/basic_modem.a(ral_sx126x.o)
                                                  lbm/lbm_lib/./build/basic_modem.a(smtc_modem.o)
ral_sx126x_wakeup                                 lbm/lbm_lib/./build/basic_modem.a(ral_sx126x.o)
                                                  lbm/lbm_lib/./build/basic_modem.a(smtc_modem.o)
ralf_sx126x_setup_flrc                            lbm/lbm_lib/./build/basic_modem.a(ralf_sx126x.o)
                                                  lbm/lbm_lib/./build/basic_modem.a(smtc_modem.o)
ralf_sx126x_setup_gfsk                            lbm/lbm_lib/./build/basic_modem.a(ralf_sx126x.o)
                                                  lbm/lbm_lib/./build/basic_modem.a(smtc_modem.o)
ralf_sx126x_setup_lora                            lbm/lbm_lib/./build/basic_modem.a(ralf_sx126x.o)
                                                  lbm/lbm_lib/./build/basic_modem.a(smtc_modem.o)
ralf_sx126x_setup_lora_cad                        lbm/lbm_lib/./build/basic_modem.a(ralf_sx126x.o)
                                                  lbm/lbm_lib/./build/basic_modem.a(smtc_modem.o)
rand                                              /usr/lib/gcc/arm-none-eabi/10.3.1/../../../arm-none-eabi/lib/thumb/v6-m/nofp/libc_nano.a(lib_a-rand.o)
                                                  build_sx1261_l0/smtc_hal_rng.o
region_eu_868_build_channel_mask                  lbm/lbm_lib/./build/basic_modem.a(region_eu_868.o)
                                                  lbm/lbm_lib/./build/basic_modem.a(smtc_real.o)
region_eu_868_config                              lbm/lbm_lib/./build/basic_modem.a(region_eu_868.o)
                                                  lbm/lbm_lib/./build/basic_modem.a(smtc_real.o)
region_eu_868_fsk_dr_to_bitrate                   lbm/lbm_lib/./build/basic_modem.a(region_eu_868.o)
                                                  lbm/lbm_lib/./build/basic_modem.a(smtc_real.o)
region_eu_868_get_join_next_channel               lbm/lbm_lib/./build/basic_modem.a(region_eu_868.o)
                                                  lbm/lbm_lib/./build/basic_modem.a(smtc_real.o)
region_eu_868_get_modulation_type_from_datarate   lbm/lbm_lib/./build/basic_modem.a(region_eu_868.o)
                                                  lbm/lbm_lib/./build/basic_modem.a(smtc_real.o)
region_eu_868_get_next_channel                    lbm/lbm_lib/./build/basic_modem.a(region_eu_868.o)
                                                  lbm/lbm_lib/./build/basic_modem.a(smtc_real.o)
region_eu_868_init                                lbm/lbm_lib/./build/basic_modem.a(region_eu_868.o)
                                                  lbm/lbm_lib/./build/basic_modem.a(smtc_real.o)
region_eu_868_lora_dr_to_sf_bw                    lbm/lbm_lib/./build/basic_modem.a(region_eu_868.o)
                                                  lbm/lbm_lib/./build/basic_modem.a(smtc_real.o)
region_eu_868_lr_fhss_dr_to_cr_bw                 lbm/lbm_lib/./build/basic_modem.a(region_eu_868.o)
                                                  lbm/lbm_lib/./build/basic_modem.a(smtc_real.o)
rp_attach_new_radio                               lbm/lbm_lib/./build/basic_modem.a(radio_planner.o)
rp_callback                                       lbm/lbm_lib/./build/basic_modem.a(radio_planner.o)
                                                  lbm/lbm_lib/./build/basic_modem.a(smtc_modem_test.o)
                                                  lbm/lbm_lib/./build/basic_modem.a(smtc_lbt.o)
                                                  lbm/lbm_lib/./build/basic_modem.a(modem_core.o)
                                                  lbm/lbm_lib/./build/basic_modem.a(smtc_modem.o)
rp_disable_failsafe                               lbm/lbm_lib/./build/basic_modem.a(radio_planner.o)
                                                  lbm/lbm_lib/./build/basic_modem.a(smtc_modem_test.o)
                                                  lbm/lbm_lib/./build/basic_modem.a(smtc_modem.o)
rp_get_and_clear_raw_radio_irq                    lbm/lbm_lib/./build/basic_modem.a(radio_planner.o)
rp_get_irq_flag                                   lbm/lbm_lib/./build/basic_modem.a(radio_planner.o)
                                                  lbm/lbm_lib/./build/basic_modem.a(smtc_modem.o)
rp_get_pkt_payload                                lbm/lbm_lib/./build/basic_modem.a(radio_planner.o)
rp_get_stats                                      lbm/lbm_lib/./build/basic_modem.a(radio_planner.o)
rp_get_status                                     lbm/lbm_lib/./build/basic_modem.a(radio_planner.o)
                                                  lbm/lbm_lib/./build/basic_modem.a(lr1_stack_mac_layer.o)
                                                  lbm/lbm_lib/./build/basic_modem.a(smtc_lbt.o)
rp_hook_get_id                                    lbm/lbm_lib/./build/basic_modem.a(radio_planner.o)
                                                  lbm/lbm_lib/./build/basic_modem.a(lr1mac_core.o)
                                                  lbm/lbm_lib/./build/basic_modem.a(lr1_stack_mac_layer.o)
                                                  lbm/lbm_lib/./build/basic_modem.a(smtc_lbt.o)
rp_hook_init                                      lbm/lbm_lib/./build/basic_modem.a(radio_planner.o)
                                                  lbm/lbm_lib/./build/basic_modem.a(lr1mac_core.o)
                                                  lbm/lbm_lib/./build/basic_modem.a(smtc_modem_test.o)
                                                  lbm/lbm_lib/./build/basic_modem.a(smtc_lbt.o)
                                                  lbm/lbm_lib/./build/basic_modem.a(smtc_modem.o)
rp_init                                           lbm/lbm_lib/./build/basic_modem.a(radio_planner.o)
                                                  lbm/lbm_lib/./build/basic_modem.a(smtc_modem.o)
rp_radio_irq_callback                             lbm/lbm_lib/./build/basic_modem.a(radio_planner.o)
                                                  lbm/lbm_lib/./build/basic_modem.a(smtc_lbt.o)
                                                  lbm/lbm_lib/./build/basic_modem.a(smtc_modem.o)
rp_release_hook                                   lbm/lbm_lib/./build/basic_modem.a(radio_planner.o)
                                                  lbm/lbm_lib/./build/basic_modem.a(smtc_modem_test.o)
                                                  lbm/lbm_lib/./build/basic_modem.a(smtc_lbt.o)
rp_task_abort                                     lbm/lbm_lib/./build/basic_modem.a(radio_planner.o)
                                                  lbm/lbm_lib/./build/basic_modem.a(lr1mac_core.o)
                                                  lbm/lbm_lib/./build/basic_modem.a(smtc_modem_test.o)
                                                  lbm/lbm_lib/./build/basic_modem.a(modem_core.o)
rp_task_enqueue                                   lbm/lbm_lib/./build/basic_modem.a(radio_planner.o)
                                                  lbm/lbm_lib/./build/basic_modem.a(lr1_stack_mac_layer.o)
                                                  lbm/lbm_lib/./build/basic_modem.a(smtc_modem_test.o)
                                                  lbm/lbm_lib/./build/basic_modem.a(smtc_lbt.o)
                                                  lbm/lbm_lib/./build/basic_modem.a(modem_core.o)
rtc_get_timestamp_in_ticks                        build_sx1261_l0/smtc_hal_rtc.o
                                                  build_sx1261_l0/timer_rtc.o
rtc_ms_2_tick                                     build_sx1261_l0/smtc_hal_rtc.o
                                                  build_sx1261_l0/timer_rtc.o
rtc_tick_2_ms                                     build_sx1261_l0/smtc_hal_rtc.o
                                                  build_sx1261_l0/timer_rtc.o
set_modem_event_count_and_status                  lbm/lbm_lib/./build/basic_modem.a(modem_event_utilities.o)
                                                  lbm/lbm_lib/./build/basic_modem.a(smtc_modem.o)
settings                                          build_sx1261_l0/settings.o
                                                  build_sx1261_l0/smtc_hal_rng.o
                                                  build_sx1261_l0/main.o
settings_init                                     build_sx1261_l0/settings.o
                                                  build_sx1261_l0/main.o
settings_print                                    build_sx1261_l0/settings.o
                                                  build_sx1261_l0/main.o
settings_save                                     build_sx1261_l0/settings.o
sha256                                            build_sx1261_l0/sha256.o
                                                  build_sx1261_l0/settings.o
sha256i_digest                                    build_sx1261_l0/sha256.o
sha256i_init                                      build_sx1261_l0/sha256.o
sha256i_update                                    build_sx1261_l0/sha256.o
sht3x_init                                        build_sx1261_l0/sht3x.o
                                                  build_sx1261_l0/main.o
sht3x_read_temp                                   build_sx1261_l0/sht3x.o
                                                  build_sx1261_l0/main.o
signal                                            /usr/lib/gcc/arm-none-eabi/10.3.1/../../../arm-none-eabi/lib/thumb/v6-m/nofp/libc_nano.a(lib_a-signal.o)
smtc_duty_cycle_band_get_available_toa_ms         lbm/lbm_lib/./build/basic_modem.a(smtc_duty_cycle.o)
smtc_duty_cycle_config                            lbm/lbm_lib/./build/basic_modem.a(smtc_duty_cycle.o)
                                                  lbm/lbm_lib/./build/basic_modem.a(lorawan_api.o)
smtc_duty_cycle_enable_get                        lbm/lbm_lib/./build/basic_modem.a(smtc_duty_cycle.o)
                                                  lbm/lbm_lib/./build/basic_modem.a(modem_core.o)
smtc_duty_cycle_enable_set                        lbm/lbm_lib/./build/basic_modem.a(smtc_duty_cycle.o)
                                                  lbm/lbm_lib/./build/basic_modem.a(lorawan_api.o)
                                                  lbm/lbm_lib/./build/basic_modem.a(lorawan_send_management.o)
                                                  lbm/lbm_lib/./build/basic_modem.a(lorawan_certification.o)
                                                  lbm/lbm_lib/./build/basic_modem.a(smtc_modem.o)
smtc_duty_cycle_get_next_free_time_ms             lbm/lbm_lib/./build/basic_modem.a(smtc_duty_cycle.o)
                                                  lbm/lbm_lib/./build/basic_modem.a(modem_core.o)
smtc_duty_cycle_init                              lbm/lbm_lib/./build/basic_modem.a(smtc_duty_cycle.o)
                                                  lbm/lbm_lib/./build/basic_modem.a(modem_core.o)
smtc_duty_cycle_is_band_free                      lbm/lbm_lib/./build/basic_modem.a(smtc_duty_cycle.o)
smtc_duty_cycle_is_channel_free                   lbm/lbm_lib/./build/basic_modem.a(smtc_duty_cycle.o)
                                                  lbm/lbm_lib/./build/basic_modem.a(region_eu_868.o)
smtc_duty_cycle_is_toa_accepted                   lbm/lbm_lib/./build/basic_modem.a(smtc_duty_cycle.o)
smtc_duty_cycle_sum                               lbm/lbm_lib/./build/basic_modem.a(smtc_duty_cycle.o)
                                                  lbm/lbm_lib/./build/basic_modem.a(radio_planner.o)
smtc_duty_cycle_update                            lbm/lbm_lib/./build/basic_modem.a(smtc_duty_cycle.o)
                                                  lbm/lbm_lib/./build/basic_modem.a(region_eu_868.o)
smtc_lbt_get_obj                                  lbm/lbm_lib/./build/basic_modem.a(smtc_lbt.o)
                                                  lbm/lbm_lib/./build/basic_modem.a(modem_tx_protocol_manager.o)
                                                  lbm/lbm_lib/./build/basic_modem.a(smtc_modem.o)
smtc_lbt_get_parameters                           lbm/lbm_lib/./build/basic_modem.a(smtc_lbt.o)
                                                  lbm/lbm_lib/./build/basic_modem.a(modem_tx_protocol_manager.o)
                                                  lbm/lbm_lib/./build/basic_modem.a(smtc_modem.o)
smtc_lbt_get_state                                lbm/lbm_lib/./build/basic_modem.a(smtc_lbt.o)
                                                  lbm/lbm_lib/./build/basic_modem.a(modem_tx_protocol_manager.o)
                                                  lbm/lbm_lib/./build/basic_modem.a(smtc_modem.o)
smtc_lbt_init                                     lbm/lbm_lib/./build/basic_modem.a(smtc_lbt.o)
                                                  lbm/lbm_lib/./build/basic_modem.a(smtc_modem_test.o)
                                                  lbm/lbm_lib/./build/basic_modem.a(modem_tx_protocol_manager.o)
smtc_lbt_launch_callback_for_rp                   lbm/lbm_lib/./build/basic_modem.a(smtc_lbt.o)
smtc_lbt_listen_channel                           lbm/lbm_lib/./build/basic_modem.a(smtc_lbt.o)
                                                  lbm/lbm_lib/./build/basic_modem.a(smtc_modem_test.o)
                                                  lbm/lbm_lib/./build/basic_modem.a(modem_tx_protocol_manager.o)
smtc_lbt_rp_callback                              lbm/lbm_lib/./build/basic_modem.a(smtc_lbt.o)
smtc_lbt_set_parameters                           lbm/lbm_lib/./build/basic_modem.a(smtc_lbt.o)
                                                  lbm/lbm_lib/./build/basic_modem.a(smtc_modem_test.o)
                                                  lbm/lbm_lib/./build/basic_modem.a(modem_tx_protocol_manager.o)
                                                  lbm/lbm_lib/./build/basic_modem.a(smtc_modem.o)
smtc_lbt_set_state                                lbm/lbm_lib/./build/basic_modem.a(smtc_lbt.o)
                                                  lbm/lbm_lib/./build/basic_modem.a(smtc_modem_test.o)
                                                  lbm/lbm_lib/./build/basic_modem.a(modem_tx_protocol_manager.o)
                                                  lbm/lbm_lib/./build/basic_modem.a(smtc_modem.o)
smtc_modem_adr_get_profile                        lbm/lbm_lib/./build/basic_modem.a(smtc_modem.o)
smtc_modem_adr_set_join_distribution              lbm/lbm_lib/./build/basic_modem.a(smtc_modem.o)
smtc_modem_adr_set_profile                        lbm/lbm_lib/./build/basic_modem.a(smtc_modem.o)
                                                  lbm/lbm_lib/./build/basic_modem.a(lorawan_certification.o)
smtc_modem_alarm_clear_timer                      lbm/lbm_lib/./build/basic_modem.a(smtc_modem.o)
smtc_modem_alarm_get_remaining_time               lbm/lbm_lib/./build/basic_modem.a(smtc_modem.o)
smtc_modem_alarm_start_timer                      lbm/lbm_lib/./build/basic_modem.a(smtc_modem.o)
smtc_modem_class_b_get_ping_slot_periodicity      lbm/lbm_lib/./build/basic_modem.a(smtc_modem.o)
smtc_modem_class_b_set_ping_slot_periodicity      lbm/lbm_lib/./build/basic_modem.a(smtc_modem.o)
smtc_modem_crypto_compute_and_add_mic             lbm/lbm_lib/./build/basic_modem.a(smtc_modem_crypto.o)
                                                  lbm/lbm_lib/./build/basic_modem.a(lr1_stack_mac_layer.o)
smtc_modem_crypto_compute_join_mic                lbm/lbm_lib/./build/basic_modem.a(smtc_modem_crypto.o)
                                                  lbm/lbm_lib/./build/basic_modem.a(lr1_stack_mac_layer.o)
smtc_modem_crypto_derive_multicast_session_keys   lbm/lbm_lib/./build/basic_modem.a(smtc_modem_crypto.o)
smtc_modem_crypto_derive_skeys                    lbm/lbm_lib/./build/basic_modem.a(smtc_modem_crypto.o)
                                                  lbm/lbm_lib/./build/basic_modem.a(lr1_stack_mac_layer.o)
smtc_modem_crypto_get_class_b_rand                lbm/lbm_lib/./build/basic_modem.a(smtc_modem_crypto.o)
smtc_modem_crypto_payload_decrypt                 lbm/lbm_lib/./build/basic_modem.a(smtc_modem_crypto.o)
                                                  lbm/lbm_lib/./build/basic_modem.a(lr1_stack_mac_layer.o)
smtc_modem_crypto_payload_encrypt                 lbm/lbm_lib/./build/basic_modem.a(smtc_modem_crypto.o)
                                                  lbm/lbm_lib/./build/basic_modem.a(lr1_stack_mac_layer.o)
smtc_modem_crypto_process_join_accept             lbm/lbm_lib/./build/basic_modem.a(smtc_modem_crypto.o)
                                                  lbm/lbm_lib/./build/basic_modem.a(lr1_stack_mac_layer.o)
smtc_modem_crypto_service_encrypt                 lbm/lbm_lib/./build/basic_modem.a(smtc_modem_crypto.o)
smtc_modem_crypto_set_key                         lbm/lbm_lib/./build/basic_modem.a(smtc_modem_crypto.o)
                                                  lbm/lbm_lib/./build/basic_modem.a(lorawan_api.o)
smtc_modem_crypto_verify_mic                      lbm/lbm_lib/./build/basic_modem.a(smtc_modem_crypto.o)
                                                  lbm/lbm_lib/./build/basic_modem.a(lr1_stack_mac_layer.o)
smtc_modem_debug_connect_with_abp                 lbm/lbm_lib/./build/basic_modem.a(smtc_modem.o)
smtc_modem_debug_set_duty_cycle_state             lbm/lbm_lib/./build/basic_modem.a(smtc_modem.o)
smtc_modem_get_adr_ack_limit_delay                lbm/lbm_lib/./build/basic_modem.a(smtc_modem.o)
smtc_modem_get_available_datarates                lbm/lbm_lib/./build/basic_modem.a(smtc_modem.o)
smtc_modem_get_certification_mode                 lbm/lbm_lib/./build/basic_modem.a(smtc_modem.o)
smtc_modem_get_charge                             lbm/lbm_lib/./build/basic_modem.a(smtc_modem.o)
smtc_modem_get_class                              lbm/lbm_lib/./build/basic_modem.a(smtc_modem.o)
smtc_modem_get_crystal_error_ppm                  lbm/lbm_lib/./build/basic_modem.a(smtc_modem.o)
smtc_modem_get_deveui                             lbm/lbm_lib/./build/basic_modem.a(smtc_modem.o)
smtc_modem_get_downlink_data                      lbm/lbm_lib/./build/basic_modem.a(smtc_modem.o)
                                                  build_sx1261_l0/main.o
smtc_modem_get_duty_cycle_status                  lbm/lbm_lib/./build/basic_modem.a(smtc_modem.o)
smtc_modem_get_enabled_datarates                  lbm/lbm_lib/./build/basic_modem.a(smtc_modem.o)
smtc_modem_get_event                              lbm/lbm_lib/./build/basic_modem.a(smtc_modem.o)
                                                  build_sx1261_l0/main.o
smtc_modem_get_join_duty_cycle_backoff_bypass     lbm/lbm_lib/./build/basic_modem.a(smtc_modem.o)
smtc_modem_get_joineui                            lbm/lbm_lib/./build/basic_modem.a(smtc_modem.o)
smtc_modem_get_list_region                        lbm/lbm_lib/./build/basic_modem.a(smtc_modem.o)
smtc_modem_get_lorawan_link_check_data            lbm/lbm_lib/./build/basic_modem.a(smtc_modem.o)
smtc_modem_get_lorawan_mac_time                   lbm/lbm_lib/./build/basic_modem.a(smtc_modem.o)
smtc_modem_get_modem_version                      lbm/lbm_lib/./build/basic_modem.a(smtc_modem.o)
smtc_modem_get_nb_trans                           lbm/lbm_lib/./build/basic_modem.a(smtc_modem.o)
smtc_modem_get_network_type                       lbm/lbm_lib/./build/basic_modem.a(smtc_modem.o)
smtc_modem_get_next_tx_max_payload                lbm/lbm_lib/./build/basic_modem.a(smtc_modem.o)
smtc_modem_get_radio_context                      lbm/lbm_lib/./build/basic_modem.a(smtc_modem.o)
smtc_modem_get_region                             lbm/lbm_lib/./build/basic_modem.a(smtc_modem.o)
smtc_modem_get_rp_stats_to_array                  lbm/lbm_lib/./build/basic_modem.a(smtc_modem.o)
smtc_modem_get_status                             lbm/lbm_lib/./build/basic_modem.a(smtc_modem.o)
smtc_modem_get_suspend_radio_communications       lbm/lbm_lib/./build/basic_modem.a(smtc_modem.o)
smtc_modem_hal_context_flash_pages_erase          build_sx1261_l0/smtc_modem_hal.o
smtc_modem_hal_context_restore                    build_sx1261_l0/smtc_modem_hal.o
                                                  lbm/lbm_lib/./build/basic_modem.a(lr1mac_core.o)
                                                  lbm/lbm_lib/./build/basic_modem.a(soft_se.o)
                                                  lbm/lbm_lib/./build/basic_modem.a(modem_core.o)
smtc_modem_hal_context_store                      build_sx1261_l0/smtc_modem_hal.o
                                                  lbm/lbm_lib/./build/basic_modem.a(lr1mac_core.o)
                                                  lbm/lbm_lib/./build/basic_modem.a(soft_se.o)
                                                  lbm/lbm_lib/./build/basic_modem.a(modem_core.o)
smtc_modem_hal_crashlog_get_status                build_sx1261_l0/smtc_modem_hal.o
                                                  lbm/lbm_lib/./build/basic_modem.a(modem_core.o)
smtc_modem_hal_crashlog_restore                   build_sx1261_l0/smtc_modem_hal.o
smtc_modem_hal_crashlog_set_status                build_sx1261_l0/smtc_modem_hal.o
smtc_modem_hal_crashlog_store                     build_sx1261_l0/smtc_modem_hal.o
smtc_modem_hal_disable_modem_irq                  build_sx1261_l0/smtc_modem_hal.o
                                                  lbm/lbm_lib/./build/basic_modem.a(radio_planner.o)
                                                  lbm/lbm_lib/./build/basic_modem.a(fifo_ctrl.o)
smtc_modem_hal_enable_modem_irq                   build_sx1261_l0/smtc_modem_hal.o
                                                  lbm/lbm_lib/./build/basic_modem.a(radio_planner.o)
                                                  lbm/lbm_lib/./build/basic_modem.a(fifo_ctrl.o)
smtc_modem_hal_get_battery_level                  build_sx1261_l0/smtc_modem_hal.o
                                                  lbm/lbm_lib/./build/basic_modem.a(lr1_stack_mac_layer.o)
smtc_modem_hal_get_board_delay_ms                 build_sx1261_l0/smtc_modem_hal.o
                                                  lbm/lbm_lib/./build/basic_modem.a(lr1_stack_mac_layer.o)
smtc_modem_hal_get_radio_tcxo_startup_delay_ms    build_sx1261_l0/smtc_modem_hal.o
                                                  lbm/lbm_lib/./build/basic_modem.a(lr1_stack_mac_layer.o)
                                                  lbm/lbm_lib/./build/basic_modem.a(smtc_lbt.o)
                                                  lbm/lbm_lib/./build/basic_modem.a(modem_tx_protocol_manager.o)
smtc_modem_hal_get_random_nb_in_range             build_sx1261_l0/smtc_modem_hal.o
                                                  lbm/lbm_lib/./build/basic_modem.a(lr1mac_core.o)
                                                  lbm/lbm_lib/./build/basic_modem.a(lr1_stack_mac_layer.o)
                                                  lbm/lbm_lib/./build/basic_modem.a(region_eu_868.o)
                                                  lbm/lbm_lib/./build/basic_modem.a(smtc_modem_test.o)
                                                  lbm/lbm_lib/./build/basic_modem.a(smtc_real.o)
                                                  lbm/lbm_lib/./build/basic_modem.a(lorawan_join_management.o)
                                                  lbm/lbm_lib/./build/basic_modem.a(modem_tx_protocol_manager.o)
smtc_modem_hal_get_temperature                    build_sx1261_l0/smtc_modem_hal.o
smtc_modem_hal_get_time_in_ms                     build_sx1261_l0/smtc_modem_hal.o
                                                  lbm/lbm_lib/./build/basic_modem.a(lr1mac_core.o)
                                                  lbm/lbm_lib/./build/basic_modem.a(lr1_stack_mac_layer.o)
                                                  lbm/lbm_lib/./build/basic_modem.a(smtc_modem_test.o)
                                                  lbm/lbm_lib/./build/basic_modem.a(radio_planner.o)
                                                  lbm/lbm_lib/./build/basic_modem.a(smtc_lbt.o)
                                                  lbm/lbm_lib/./build/basic_modem.a(smtc_duty_cycle.o)
                                                  lbm/lbm_lib/./build/basic_modem.a(lorawan_cid_request_management.o)
                                                  lbm/lbm_lib/./build/basic_modem.a(lorawan_send_management.o)
                                                  lbm/lbm_lib/./build/basic_modem.a(lorawan_join_management.o)
                                                  lbm/lbm_lib/./build/basic_modem.a(lorawan_certification.o)
                                                  lbm/lbm_lib/./build/basic_modem.a(modem_tx_protocol_manager.o)
                                                  lbm/lbm_lib/./build/basic_modem.a(modem_core.o)
                                                  lbm/lbm_lib/./build/basic_modem.a(smtc_modem.o)
smtc_modem_hal_get_time_in_s                      build_sx1261_l0/smtc_modem_hal.o
                                                  lbm/lbm_lib/./build/basic_modem.a(lr1mac_core.o)
                                                  lbm/lbm_lib/./build/basic_modem.a(lr1_stack_mac_layer.o)
                                                  lbm/lbm_lib/./build/basic_modem.a(lorawan_dwn_ack_management.o)
                                                  lbm/lbm_lib/./build/basic_modem.a(lorawan_cid_request_management.o)
                                                  lbm/lbm_lib/./build/basic_modem.a(lorawan_send_management.o)
                                                  lbm/lbm_lib/./build/basic_modem.a(lorawan_join_management.o)
                                                  lbm/lbm_lib/./build/basic_modem.a(lorawan_certification.o)
                                                  lbm/lbm_lib/./build/basic_modem.a(modem_tx_protocol_manager.o)
                                                  lbm/lbm_lib/./build/basic_modem.a(modem_supervisor_light.o)
                                                  lbm/lbm_lib/./build/basic_modem.a(smtc_modem.o)
smtc_modem_hal_get_voltage_mv                     build_sx1261_l0/smtc_modem_hal.o
smtc_modem_hal_irq_config_radio_irq               build_sx1261_l0/smtc_modem_hal.o
                                                  lbm/lbm_lib/./build/basic_modem.a(smtc_modem.o)
smtc_modem_hal_on_panic                           build_sx1261_l0/smtc_modem_hal.o
                                                  lbm/lbm_lib/./build/basic_modem.a(lr1mac_core.o)
                                                  lbm/lbm_lib/./build/basic_modem.a(lr1_stack_mac_layer.o)
                                                  lbm/lbm_lib/./build/basic_modem.a(region_eu_868.o)
                                                  lbm/lbm_lib/./build/basic_modem.a(smtc_modem_test.o)
                                                  lbm/lbm_lib/./build/basic_modem.a(lorawan_api.o)
                                                  lbm/lbm_lib/./build/basic_modem.a(radio_planner.o)
                                                  lbm/lbm_lib/./build/basic_modem.a(smtc_lbt.o)
                                                  lbm/lbm_lib/./build/basic_modem.a(smtc_duty_cycle.o)
                                                  lbm/lbm_lib/./build/basic_modem.a(smtc_real.o)
                                                  lbm/lbm_lib/./build/basic_modem.a(lorawan_dwn_ack_management.o)
                                                  lbm/lbm_lib/./build/basic_modem.a(lorawan_cid_request_management.o)
                                                  lbm/lbm_lib/./build/basic_modem.a(lorawan_send_management.o)
                                                  lbm/lbm_lib/./build/basic_modem.a(lorawan_join_management.o)
                                                  lbm/lbm_lib/./build/basic_modem.a(lorawan_certification.o)
                                                  lbm/lbm_lib/./build/basic_modem.a(modem_supervisor_light.o)
                                                  lbm/lbm_lib/./build/basic_modem.a(modem_event_utilities.o)
                                                  lbm/lbm_lib/./build/basic_modem.a(smtc_modem.o)
smtc_modem_hal_print_trace                        build_sx1261_l0/smtc_modem_hal.o
smtc_modem_hal_radio_irq_clear_pending            build_sx1261_l0/smtc_modem_hal.o
                                                  lbm/lbm_lib/./build/basic_modem.a(radio_planner.o)
smtc_modem_hal_reload_wdog                        build_sx1261_l0/smtc_modem_hal.o
                                                  lbm/lbm_lib/./build/basic_modem.a(smtc_modem_test.o)
smtc_modem_hal_reset_mcu                          build_sx1261_l0/smtc_modem_hal.o
                                                  lbm/lbm_lib/./build/basic_modem.a(lorawan_certification.o)
                                                  build_sx1261_l0/main.o
smtc_modem_hal_set_ant_switch                     build_sx1261_l0/smtc_modem_hal.o
                                                  lbm/lbm_lib/./build/basic_modem.a(lr1_stack_mac_layer.o)
                                                  lbm/lbm_lib/./build/basic_modem.a(smtc_modem_test.o)
                                                  lbm/lbm_lib/./build/basic_modem.a(radio_planner.o)
                                                  lbm/lbm_lib/./build/basic_modem.a(smtc_lbt.o)
                                                  lbm/lbm_lib/./build/basic_modem.a(smtc_modem.o)
smtc_modem_hal_set_offset_to_test_wrapping        build_sx1261_l0/smtc_modem_hal.o
smtc_modem_hal_start_radio_tcxo                   build_sx1261_l0/smtc_modem_hal.o
                                                  lbm/lbm_lib/./build/basic_modem.a(lr1_stack_mac_layer.o)
                                                  lbm/lbm_lib/./build/basic_modem.a(smtc_lbt.o)
smtc_modem_hal_start_timer                        build_sx1261_l0/smtc_modem_hal.o
                                                  lbm/lbm_lib/./build/basic_modem.a(radio_planner.o)
smtc_modem_hal_stop_radio_tcxo                    build_sx1261_l0/smtc_modem_hal.o
                                                  lbm/lbm_lib/./build/basic_modem.a(smtc_modem_test.o)
                                                  lbm/lbm_lib/./build/basic_modem.a(radio_planner.o)
smtc_modem_hal_stop_timer                         build_sx1261_l0/smtc_modem_hal.o
                                                  lbm/lbm_lib/./build/basic_modem.a(radio_planner.o)
smtc_modem_hal_user_lbm_irq                       build_sx1261_l0/smtc_modem_hal.o
                                                  lbm/lbm_lib/./build/basic_modem.a(radio_planner.o)
smtc_modem_init                                   lbm/lbm_lib/./build/basic_modem.a(smtc_modem.o)
                                                  build_sx1261_l0/main.o
smtc_modem_is_irq_flag_pending                    lbm/lbm_lib/./build/basic_modem.a(smtc_modem.o)
                                                  build_sx1261_l0/smtc_hal_mcu.o
smtc_modem_join_network                           lbm/lbm_lib/./build/basic_modem.a(smtc_modem.o)
                                                  build_sx1261_l0/main.o
smtc_modem_key_ctx                                lbm/lbm_lib/./build/basic_modem.a(smtc_modem.o)
smtc_modem_lbt_get_parameters                     lbm/lbm_lib/./build/basic_modem.a(smtc_modem.o)
smtc_modem_lbt_get_state                          lbm/lbm_lib/./build/basic_modem.a(smtc_modem.o)
smtc_modem_lbt_set_parameters                     lbm/lbm_lib/./build/basic_modem.a(smtc_modem.o)
smtc_modem_lbt_set_state                          lbm/lbm_lib/./build/basic_modem.a(smtc_modem.o)
smtc_modem_leave_network                          lbm/lbm_lib/./build/basic_modem.a(smtc_modem.o)
smtc_modem_lorawan_get_lost_connection_counter    lbm/lbm_lib/./build/basic_modem.a(smtc_modem.o)
smtc_modem_lorawan_get_lost_connection_counter_since_s lbm/lbm_lib/./build/basic_modem.a(smtc_modem.o)
smtc_modem_multicast_class_b_get_session_status   lbm/lbm_lib/./build/basic_modem.a(smtc_modem.o)
smtc_modem_multicast_class_b_start_session        lbm/lbm_lib/./build/basic_modem.a(smtc_modem.o)
smtc_modem_multicast_class_b_stop_all_sessions    lbm/lbm_lib/./build/basic_modem.a(smtc_modem.o)
smtc_modem_multicast_class_b_stop_session         lbm/lbm_lib/./build/basic_modem.a(smtc_modem.o)
smtc_modem_multicast_class_c_get_session_status   lbm/lbm_lib/./build/basic_modem.a(smtc_modem.o)
smtc_modem_multicast_class_c_start_session        lbm/lbm_lib/./build/basic_modem.a(smtc_modem.o)
smtc_modem_multicast_class_c_stop_all_sessions    lbm/lbm_lib/./build/basic_modem.a(smtc_modem.o)
smtc_modem_multicast_class_c_stop_session         lbm/lbm_lib/./build/basic_modem.a(smtc_modem.o)
smtc_modem_multicast_get_grp_config               lbm/lbm_lib/./build/basic_modem.a(smtc_modem.o)
smtc_modem_multicast_set_grp_config               lbm/lbm_lib/./build/basic_modem.a(smtc_modem.o)
smtc_modem_request_emergency_uplink               lbm/lbm_lib/./build/basic_modem.a(smtc_modem.o)
smtc_modem_request_empty_uplink                   lbm/lbm_lib/./build/basic_modem.a(smtc_modem.o)
smtc_modem_request_uplink                         lbm/lbm_lib/./build/basic_modem.a(smtc_modem.o)
                                                  build_sx1261_l0/main.o
smtc_modem_reset_charge                           lbm/lbm_lib/./build/basic_modem.a(smtc_modem.o)
smtc_modem_run_engine                             lbm/lbm_lib/./build/basic_modem.a(smtc_modem.o)
                                                  build_sx1261_l0/main.o
smtc_modem_set_adr_ack_limit_delay                lbm/lbm_lib/./build/basic_modem.a(smtc_modem.o)
smtc_modem_set_appkey                             lbm/lbm_lib/./build/basic_modem.a(smtc_modem.o)
                                                  build_sx1261_l0/main.o
smtc_modem_set_certification_mode                 lbm/lbm_lib/./build/basic_modem.a(smtc_modem.o)
smtc_modem_set_class                              lbm/lbm_lib/./build/basic_modem.a(smtc_modem.o)
                                                  lbm/lbm_lib/./build/basic_modem.a(lorawan_certification.o)
smtc_modem_set_crystal_error_ppm                  lbm/lbm_lib/./build/basic_modem.a(smtc_modem.o)
smtc_modem_set_deveui                             lbm/lbm_lib/./build/basic_modem.a(smtc_modem.o)
                                                  build_sx1261_l0/main.o
smtc_modem_set_join_duty_cycle_backoff_bypass     lbm/lbm_lib/./build/basic_modem.a(smtc_modem.o)
smtc_modem_set_joineui                            lbm/lbm_lib/./build/basic_modem.a(smtc_modem.o)
                                                  build_sx1261_l0/main.o
smtc_modem_set_nb_trans                           lbm/lbm_lib/./build/basic_modem.a(smtc_modem.o)
smtc_modem_set_network_type                       lbm/lbm_lib/./build/basic_modem.a(smtc_modem.o)
smtc_modem_set_nwkkey                             lbm/lbm_lib/./build/basic_modem.a(smtc_modem.o)
                                                  build_sx1261_l0/main.o
smtc_modem_set_radio_context                      lbm/lbm_lib/./build/basic_modem.a(smtc_modem.o)
smtc_modem_set_region                             lbm/lbm_lib/./build/basic_modem.a(smtc_modem.o)
                                                  build_sx1261_l0/main.o
smtc_modem_suspend_radio_communications           lbm/lbm_lib/./build/basic_modem.a(smtc_modem.o)
smtc_modem_test_direct_radio_read                 lbm/lbm_lib/./build/basic_modem.a(smtc_modem_test.o)
smtc_modem_test_direct_radio_write                lbm/lbm_lib/./build/basic_modem.a(smtc_modem_test.o)
smtc_modem_test_get_nb_rx_packets                 lbm/lbm_lib/./build/basic_modem.a(smtc_modem_test.o)
smtc_modem_test_get_rssi                          lbm/lbm_lib/./build/basic_modem.a(smtc_modem_test.o)
smtc_modem_test_nop                               lbm/lbm_lib/./build/basic_modem.a(smtc_modem_test.o)
smtc_modem_test_radio_reset                       lbm/lbm_lib/./build/basic_modem.a(smtc_modem_test.o)
smtc_modem_test_rssi                              lbm/lbm_lib/./build/basic_modem.a(smtc_modem_test.o)
smtc_modem_test_rx_continuous                     lbm/lbm_lib/./build/basic_modem.a(smtc_modem_test.o)
smtc_modem_test_start                             lbm/lbm_lib/./build/basic_modem.a(smtc_modem_test.o)
                                                  lbm/lbm_lib/./build/basic_modem.a(lorawan_certification.o)
smtc_modem_test_stop                              lbm/lbm_lib/./build/basic_modem.a(smtc_modem_test.o)
                                                  lbm/lbm_lib/./build/basic_modem.a(lorawan_certification.o)
smtc_modem_test_tx                                lbm/lbm_lib/./build/basic_modem.a(smtc_modem_test.o)
smtc_modem_test_tx_cw                             lbm/lbm_lib/./build/basic_modem.a(smtc_modem_test.o)
                                                  lbm/lbm_lib/./build/basic_modem.a(lorawan_certification.o)
smtc_modem_test_tx_hop                            lbm/lbm_lib/./build/basic_modem.a(smtc_modem_test.o)
smtc_modem_trig_lorawan_mac_request               lbm/lbm_lib/./build/basic_modem.a(smtc_modem.o)
smtc_real_build_channel_mask                      lbm/lbm_lib/./build/basic_modem.a(smtc_real.o)
                                                  lbm/lbm_lib/./build/basic_modem.a(lr1_stack_mac_layer.o)
smtc_real_cf_list_type_supported                  lbm/lbm_lib/./build/basic_modem.a(smtc_real.o)
smtc_real_clamp_output_power_eirp_vs_freq_and_dr  lbm/lbm_lib/./build/basic_modem.a(smtc_real.o)
                                                  lbm/lbm_lib/./build/basic_modem.a(lr1_stack_mac_layer.o)
smtc_real_config                                  lbm/lbm_lib/./build/basic_modem.a(smtc_real.o)
                                                  lbm/lbm_lib/./build/basic_modem.a(lr1_stack_mac_layer.o)
smtc_real_config_session                          lbm/lbm_lib/./build/basic_modem.a(smtc_real.o)
                                                  lbm/lbm_lib/./build/basic_modem.a(lr1_stack_mac_layer.o)
smtc_real_convert_power_cmd                       lbm/lbm_lib/./build/basic_modem.a(smtc_real.o)
                                                  lbm/lbm_lib/./build/basic_modem.a(lr1_stack_mac_layer.o)
smtc_real_decode_freq_from_buf                    lbm/lbm_lib/./build/basic_modem.a(smtc_real.o)
                                                  lbm/lbm_lib/./build/basic_modem.a(lr1_stack_mac_layer.o)
smtc_real_decrement_dr                            lbm/lbm_lib/./build/basic_modem.a(smtc_real.o)
                                                  lbm/lbm_lib/./build/basic_modem.a(lr1_stack_mac_layer.o)
smtc_real_decrement_dr_simulation                 lbm/lbm_lib/./build/basic_modem.a(smtc_real.o)
                                                  lbm/lbm_lib/./build/basic_modem.a(lr1_stack_mac_layer.o)
smtc_real_enable_all_channels_with_valid_freq     lbm/lbm_lib/./build/basic_modem.a(smtc_real.o)
smtc_real_fsk_dr_to_bitrate                       lbm/lbm_lib/./build/basic_modem.a(smtc_real.o)
                                                  lbm/lbm_lib/./build/basic_modem.a(lr1_stack_mac_layer.o)
smtc_real_get_adr_ack_delay                       lbm/lbm_lib/./build/basic_modem.a(smtc_real.o)
                                                  lbm/lbm_lib/./build/basic_modem.a(lr1mac_core.o)
smtc_real_get_adr_ack_limit                       lbm/lbm_lib/./build/basic_modem.a(smtc_real.o)
                                                  lbm/lbm_lib/./build/basic_modem.a(lr1mac_core.o)
smtc_real_get_beacon_dr                           lbm/lbm_lib/./build/basic_modem.a(smtc_real.o)
smtc_real_get_beacon_frequency                    lbm/lbm_lib/./build/basic_modem.a(smtc_real.o)
smtc_real_get_coding_rate                         lbm/lbm_lib/./build/basic_modem.a(smtc_real.o)
                                                  lbm/lbm_lib/./build/basic_modem.a(lr1_stack_mac_layer.o)
smtc_real_get_current_enabled_frequency_list      lbm/lbm_lib/./build/basic_modem.a(smtc_real.o)
                                                  lbm/lbm_lib/./build/basic_modem.a(lorawan_api.o)
smtc_real_get_custom_dr_distribution              lbm/lbm_lib/./build/basic_modem.a(smtc_real.o)
                                                  lbm/lbm_lib/./build/basic_modem.a(lorawan_api.o)
smtc_real_get_default_max_eirp                    lbm/lbm_lib/./build/basic_modem.a(smtc_real.o)
                                                  lbm/lbm_lib/./build/basic_modem.a(lr1mac_core.o)
smtc_real_get_frequency_factor                    lbm/lbm_lib/./build/basic_modem.a(smtc_real.o)
                                                  lbm/lbm_lib/./build/basic_modem.a(lorawan_api.o)
smtc_real_get_gfsk_sync_word                      lbm/lbm_lib/./build/basic_modem.a(smtc_real.o)
                                                  lbm/lbm_lib/./build/basic_modem.a(lr1_stack_mac_layer.o)
smtc_real_get_join_next_channel                   lbm/lbm_lib/./build/basic_modem.a(smtc_real.o)
                                                  lbm/lbm_lib/./build/basic_modem.a(lr1mac_core.o)
smtc_real_get_lbt_bw_hz                           lbm/lbm_lib/./build/basic_modem.a(smtc_real.o)
                                                  lbm/lbm_lib/./build/basic_modem.a(modem_tx_protocol_manager.o)
smtc_real_get_lbt_duration_ms                     lbm/lbm_lib/./build/basic_modem.a(smtc_real.o)
                                                  lbm/lbm_lib/./build/basic_modem.a(modem_tx_protocol_manager.o)
smtc_real_get_lbt_threshold_dbm                   lbm/lbm_lib/./build/basic_modem.a(smtc_real.o)
                                                  lbm/lbm_lib/./build/basic_modem.a(modem_tx_protocol_manager.o)
smtc_real_get_lr_fhss_sync_word                   lbm/lbm_lib/./build/basic_modem.a(smtc_real.o)
                                                  lbm/lbm_lib/./build/basic_modem.a(lr1_stack_mac_layer.o)
smtc_real_get_max_payload_size                    lbm/lbm_lib/./build/basic_modem.a(smtc_real.o)
                                                  lbm/lbm_lib/./build/basic_modem.a(lr1mac_core.o)
                                                  lbm/lbm_lib/./build/basic_modem.a(lr1_stack_mac_layer.o)
smtc_real_get_max_tx_channel_dr                   lbm/lbm_lib/./build/basic_modem.a(smtc_real.o)
                                                  lbm/lbm_lib/./build/basic_modem.a(lorawan_api.o)
smtc_real_get_min_tx_channel_dr                   lbm/lbm_lib/./build/basic_modem.a(smtc_real.o)
                                                  lbm/lbm_lib/./build/basic_modem.a(lr1mac_core.o)
                                                  lbm/lbm_lib/./build/basic_modem.a(lorawan_api.o)
smtc_real_get_modulation_type_from_datarate       lbm/lbm_lib/./build/basic_modem.a(smtc_real.o)
                                                  lbm/lbm_lib/./build/basic_modem.a(lr1mac_core.o)
                                                  lbm/lbm_lib/./build/basic_modem.a(lr1_stack_mac_layer.o)
                                                  lbm/lbm_lib/./build/basic_modem.a(lorawan_api.o)
smtc_real_get_next_channel                        lbm/lbm_lib/./build/basic_modem.a(smtc_real.o)
                                                  lbm/lbm_lib/./build/basic_modem.a(lr1mac_core.o)
smtc_real_get_next_tx_dr                          lbm/lbm_lib/./build/basic_modem.a(smtc_real.o)
                                                  lbm/lbm_lib/./build/basic_modem.a(lr1mac_core.o)
                                                  lbm/lbm_lib/./build/basic_modem.a(lr1_stack_mac_layer.o)
smtc_real_get_number_of_chmask_in_cflist          lbm/lbm_lib/./build/basic_modem.a(smtc_real.o)
smtc_real_get_number_of_enabled_channels_for_a_datarate lbm/lbm_lib/./build/basic_modem.a(smtc_real.o)
smtc_real_get_ping_slot_datarate                  lbm/lbm_lib/./build/basic_modem.a(smtc_real.o)
smtc_real_get_ping_slot_frequency                 lbm/lbm_lib/./build/basic_modem.a(smtc_real.o)
smtc_real_get_preamble_len                        lbm/lbm_lib/./build/basic_modem.a(smtc_real.o)
                                                  lbm/lbm_lib/./build/basic_modem.a(lr1_stack_mac_layer.o)
smtc_real_get_private_sync_word                   lbm/lbm_lib/./build/basic_modem.a(smtc_real.o)
                                                  lbm/lbm_lib/./build/basic_modem.a(lorawan_api.o)
smtc_real_get_public_sync_word                    lbm/lbm_lib/./build/basic_modem.a(smtc_real.o)
                                                  lbm/lbm_lib/./build/basic_modem.a(lorawan_api.o)
smtc_real_get_regional_parameters_version         lbm/lbm_lib/./build/basic_modem.a(smtc_real.o)
                                                  lbm/lbm_lib/./build/basic_modem.a(lorawan_api.o)
smtc_real_get_rx1_channel_frequency               lbm/lbm_lib/./build/basic_modem.a(smtc_real.o)
smtc_real_get_rx1_datarate_config                 lbm/lbm_lib/./build/basic_modem.a(smtc_real.o)
                                                  lbm/lbm_lib/./build/basic_modem.a(lr1_stack_mac_layer.o)
smtc_real_get_rx1_join_delay                      lbm/lbm_lib/./build/basic_modem.a(smtc_real.o)
                                                  lbm/lbm_lib/./build/basic_modem.a(lr1mac_core.o)
smtc_real_get_rx2_join_dr                         lbm/lbm_lib/./build/basic_modem.a(smtc_real.o)
                                                  lbm/lbm_lib/./build/basic_modem.a(lr1mac_core.o)
smtc_real_get_rx_start_time_offset_ms             lbm/lbm_lib/./build/basic_modem.a(smtc_real.o)
                                                  lbm/lbm_lib/./build/basic_modem.a(lr1_stack_mac_layer.o)
smtc_real_get_rx_window_parameters                lbm/lbm_lib/./build/basic_modem.a(smtc_real.o)
                                                  lbm/lbm_lib/./build/basic_modem.a(lr1_stack_mac_layer.o)
smtc_real_get_symbol_duration_us                  lbm/lbm_lib/./build/basic_modem.a(smtc_real.o)
smtc_real_get_sync_word                           lbm/lbm_lib/./build/basic_modem.a(smtc_real.o)
                                                  lbm/lbm_lib/./build/basic_modem.a(lr1_stack_mac_layer.o)
                                                  lbm/lbm_lib/./build/basic_modem.a(lorawan_api.o)
smtc_real_get_tx_channel_frequency                lbm/lbm_lib/./build/basic_modem.a(smtc_real.o)
                                                  lbm/lbm_lib/./build/basic_modem.a(lr1_stack_mac_layer.o)
smtc_real_init                                    lbm/lbm_lib/./build/basic_modem.a(smtc_real.o)
                                                  lbm/lbm_lib/./build/basic_modem.a(lr1_stack_mac_layer.o)
smtc_real_init_after_join_snapshot_channel_mask   lbm/lbm_lib/./build/basic_modem.a(smtc_real.o)
                                                  lbm/lbm_lib/./build/basic_modem.a(lr1_stack_mac_layer.o)
smtc_real_init_channel_mask                       lbm/lbm_lib/./build/basic_modem.a(smtc_real.o)
smtc_real_init_join_snapshot_channel_mask         lbm/lbm_lib/./build/basic_modem.a(smtc_real.o)
                                                  lbm/lbm_lib/./build/basic_modem.a(lr1mac_core.o)
smtc_real_is_beacon_hopping                       lbm/lbm_lib/./build/basic_modem.a(smtc_real.o)
smtc_real_is_channel_index_valid                  lbm/lbm_lib/./build/basic_modem.a(smtc_real.o)
                                                  lbm/lbm_lib/./build/basic_modem.a(lr1_stack_mac_layer.o)
smtc_real_is_channel_mask_for_mobile_mode         lbm/lbm_lib/./build/basic_modem.a(smtc_real.o)
                                                  lbm/lbm_lib/./build/basic_modem.a(lr1_stack_mac_layer.o)
smtc_real_is_dtc_supported                        lbm/lbm_lib/./build/basic_modem.a(smtc_real.o)
                                                  lbm/lbm_lib/./build/basic_modem.a(lorawan_api.o)
smtc_real_is_frequency_valid                      lbm/lbm_lib/./build/basic_modem.a(smtc_real.o)
                                                  lbm/lbm_lib/./build/basic_modem.a(lr1_stack_mac_layer.o)
                                                  lbm/lbm_lib/./build/basic_modem.a(lorawan_api.o)
smtc_real_is_lbt_supported                        lbm/lbm_lib/./build/basic_modem.a(smtc_real.o)
smtc_real_is_new_channel_req_supported            lbm/lbm_lib/./build/basic_modem.a(smtc_real.o)
                                                  lbm/lbm_lib/./build/basic_modem.a(lr1_stack_mac_layer.o)
smtc_real_is_nwk_received_tx_frequency_valid      lbm/lbm_lib/./build/basic_modem.a(smtc_real.o)
                                                  lbm/lbm_lib/./build/basic_modem.a(lr1_stack_mac_layer.o)
smtc_real_is_payload_size_valid                   lbm/lbm_lib/./build/basic_modem.a(smtc_real.o)
                                                  lbm/lbm_lib/./build/basic_modem.a(lr1mac_core.o)
                                                  lbm/lbm_lib/./build/basic_modem.a(lr1_stack_mac_layer.o)
smtc_real_is_rx1_dr_offset_valid                  lbm/lbm_lib/./build/basic_modem.a(smtc_real.o)
                                                  lbm/lbm_lib/./build/basic_modem.a(lr1_stack_mac_layer.o)
smtc_real_is_rx_dr_valid                          lbm/lbm_lib/./build/basic_modem.a(smtc_real.o)
                                                  lbm/lbm_lib/./build/basic_modem.a(lr1_stack_mac_layer.o)
                                                  lbm/lbm_lib/./build/basic_modem.a(lorawan_api.o)
smtc_real_is_supported_region                     lbm/lbm_lib/./build/basic_modem.a(smtc_real.o)
                                                  lbm/lbm_lib/./build/basic_modem.a(lr1mac_core.o)
smtc_real_is_tx_dr_acceptable                     lbm/lbm_lib/./build/basic_modem.a(smtc_real.o)
                                                  lbm/lbm_lib/./build/basic_modem.a(lr1_stack_mac_layer.o)
smtc_real_is_tx_dr_valid                          lbm/lbm_lib/./build/basic_modem.a(smtc_real.o)
                                                  lbm/lbm_lib/./build/basic_modem.a(lr1_stack_mac_layer.o)
smtc_real_is_tx_param_setup_req_supported         lbm/lbm_lib/./build/basic_modem.a(smtc_real.o)
                                                  lbm/lbm_lib/./build/basic_modem.a(lr1_stack_mac_layer.o)
smtc_real_is_tx_power_valid                       lbm/lbm_lib/./build/basic_modem.a(smtc_real.o)
                                                  lbm/lbm_lib/./build/basic_modem.a(lr1_stack_mac_layer.o)
smtc_real_lora_dr_to_sf_bw                        lbm/lbm_lib/./build/basic_modem.a(smtc_real.o)
                                                  lbm/lbm_lib/./build/basic_modem.a(lr1mac_core.o)
                                                  lbm/lbm_lib/./build/basic_modem.a(lr1_stack_mac_layer.o)
                                                  lbm/lbm_lib/./build/basic_modem.a(lorawan_api.o)
smtc_real_lr_fhss_dr_to_cr_bw                     lbm/lbm_lib/./build/basic_modem.a(smtc_real.o)
                                                  lbm/lbm_lib/./build/basic_modem.a(lr1mac_core.o)
                                                  lbm/lbm_lib/./build/basic_modem.a(lr1_stack_mac_layer.o)
smtc_real_lr_fhss_get_grid                        lbm/lbm_lib/./build/basic_modem.a(smtc_real.o)
                                                  lbm/lbm_lib/./build/basic_modem.a(lr1_stack_mac_layer.o)
smtc_real_lr_fhss_get_header_count                lbm/lbm_lib/./build/basic_modem.a(smtc_real.o)
                                                  lbm/lbm_lib/./build/basic_modem.a(lr1_stack_mac_layer.o)
smtc_real_mask_channel_used_for_tx                lbm/lbm_lib/./build/basic_modem.a(smtc_real.o)
                                                  lbm/lbm_lib/./build/basic_modem.a(lr1_stack_mac_layer.o)
smtc_real_mask_tx_dr_channel                      lbm/lbm_lib/./build/basic_modem.a(smtc_real.o)
smtc_real_mask_tx_dr_channel_up_dwell_time_check  lbm/lbm_lib/./build/basic_modem.a(smtc_real.o)
                                                  lbm/lbm_lib/./build/basic_modem.a(lorawan_api.o)
smtc_real_set_channel_dr                          lbm/lbm_lib/./build/basic_modem.a(smtc_real.o)
                                                  lbm/lbm_lib/./build/basic_modem.a(lr1_stack_mac_layer.o)
smtc_real_set_channel_enabled                     lbm/lbm_lib/./build/basic_modem.a(smtc_real.o)
                                                  lbm/lbm_lib/./build/basic_modem.a(lr1_stack_mac_layer.o)
smtc_real_set_channel_mask                        lbm/lbm_lib/./build/basic_modem.a(smtc_real.o)
                                                  lbm/lbm_lib/./build/basic_modem.a(lr1_stack_mac_layer.o)
smtc_real_set_custom_dr_distribution              lbm/lbm_lib/./build/basic_modem.a(smtc_real.o)
                                                  lbm/lbm_lib/./build/basic_modem.a(lorawan_api.o)
smtc_real_set_downlink_dwell_time                 lbm/lbm_lib/./build/basic_modem.a(smtc_real.o)
                                                  lbm/lbm_lib/./build/basic_modem.a(lr1_stack_mac_layer.o)
smtc_real_set_dr_distribution                     lbm/lbm_lib/./build/basic_modem.a(smtc_real.o)
                                                  lbm/lbm_lib/./build/basic_modem.a(lr1mac_core.o)
smtc_real_set_join_dr_distribution                lbm/lbm_lib/./build/basic_modem.a(smtc_real.o)
                                                  lbm/lbm_lib/./build/basic_modem.a(lorawan_api.o)
smtc_real_set_rx1_frequency_channel               lbm/lbm_lib/./build/basic_modem.a(smtc_real.o)
                                                  lbm/lbm_lib/./build/basic_modem.a(lr1_stack_mac_layer.o)
smtc_real_set_sync_word                           lbm/lbm_lib/./build/basic_modem.a(smtc_real.o)
                                                  lbm/lbm_lib/./build/basic_modem.a(lorawan_api.o)
smtc_real_set_tx_frequency_channel                lbm/lbm_lib/./build/basic_modem.a(smtc_real.o)
                                                  lbm/lbm_lib/./build/basic_modem.a(lr1_stack_mac_layer.o)
smtc_real_set_uplink_dwell_time                   lbm/lbm_lib/./build/basic_modem.a(smtc_real.o)
                                                  lbm/lbm_lib/./build/basic_modem.a(lr1_stack_mac_layer.o)
smtc_real_update_cflist                           lbm/lbm_lib/./build/basic_modem.a(smtc_real.o)
                                                  lbm/lbm_lib/./build/basic_modem.a(lr1_stack_mac_layer.o)
smtc_secure_element_aes_encrypt                   lbm/lbm_lib/./build/basic_modem.a(soft_se.o)
                                                  lbm/lbm_lib/./build/basic_modem.a(smtc_modem_crypto.o)
smtc_secure_element_compute_aes_cmac              lbm/lbm_lib/./build/basic_modem.a(soft_se.o)
                                                  lbm/lbm_lib/./build/basic_modem.a(smtc_modem_crypto.o)
smtc_secure_element_derive_and_store_key          lbm/lbm_lib/./build/basic_modem.a(soft_se.o)
                                                  lbm/lbm_lib/./build/basic_modem.a(smtc_modem_crypto.o)
smtc_secure_element_get_deveui                    lbm/lbm_lib/./build/basic_modem.a(soft_se.o)
                                                  lbm/lbm_lib/./build/basic_modem.a(lr1_stack_mac_layer.o)
                                                  lbm/lbm_lib/./build/basic_modem.a(lorawan_api.o)
smtc_secure_element_get_joineui                   lbm/lbm_lib/./build/basic_modem.a(soft_se.o)
                                                  lbm/lbm_lib/./build/basic_modem.a(lr1_stack_mac_layer.o)
                                                  lbm/lbm_lib/./build/basic_modem.a(lorawan_api.o)
smtc_secure_element_get_pin                       lbm/lbm_lib/./build/basic_modem.a(soft_se.o)
smtc_secure_element_init                          lbm/lbm_lib/./build/basic_modem.a(soft_se.o)
                                                  lbm/lbm_lib/./build/basic_modem.a(smtc_modem.o)
smtc_secure_element_process_join_accept           lbm/lbm_lib/./build/basic_modem.a(soft_se.o)
                                                  lbm/lbm_lib/./build/basic_modem.a(smtc_modem_crypto.o)
smtc_secure_element_restore_context               lbm/lbm_lib/./build/basic_modem.a(soft_se.o)
                                                  lbm/lbm_lib/./build/basic_modem.a(lorawan_certification.o)
smtc_secure_element_set_deveui                    lbm/lbm_lib/./build/basic_modem.a(soft_se.o)
                                                  lbm/lbm_lib/./build/basic_modem.a(lorawan_api.o)
smtc_secure_element_set_joineui                   lbm/lbm_lib/./build/basic_modem.a(soft_se.o)
                                                  lbm/lbm_lib/./build/basic_modem.a(lorawan_api.o)
smtc_secure_element_set_key                       lbm/lbm_lib/./build/basic_modem.a(soft_se.o)
                                                  lbm/lbm_lib/./build/basic_modem.a(smtc_modem_crypto.o)
                                                  lbm/lbm_lib/./build/basic_modem.a(smtc_modem.o)
smtc_secure_element_set_pin                       lbm/lbm_lib/./build/basic_modem.a(soft_se.o)
smtc_secure_element_store_context                 lbm/lbm_lib/./build/basic_modem.a(soft_se.o)
                                                  lbm/lbm_lib/./build/basic_modem.a(smtc_modem.o)
smtc_secure_element_verify_aes_cmac               lbm/lbm_lib/./build/basic_modem.a(soft_se.o)
                                                  lbm/lbm_lib/./build/basic_modem.a(smtc_modem_crypto.o)
sniprintf                                         /usr/lib/gcc/arm-none-eabi/10.3.1/../../../arm-none-eabi/lib/thumb/v6-m/nofp/libc_nano.a(lib_a-snprintf.o)
snprintf                                          /usr/lib/gcc/arm-none-eabi/10.3.1/../../../arm-none-eabi/lib/thumb/v6-m/nofp/libc_nano.a(lib_a-snprintf.o)
                                                  build_sx1261_l0/smtc_modem_hal.o
soft_ce_crc                                       lbm/lbm_lib/./build/basic_modem.a(soft_se.o)
software_init_hook                                /usr/lib/gcc/arm-none-eabi/10.3.1/../../../arm-none-eabi/lib/thumb/v6-m/nofp/crt0.o
srand                                             /usr/lib/gcc/arm-none-eabi/10.3.1/../../../arm-none-eabi/lib/thumb/v6-m/nofp/libc_nano.a(lib_a-rand.o)
                                                  build_sx1261_l0/smtc_hal_rng.o
strcmp                                            /usr/lib/gcc/arm-none-eabi/10.3.1/../../../arm-none-eabi/lib/thumb/v6-m/nofp/libc_nano.a(lib_a-strcmp.o)
                                                  lbm/lbm_lib/./build/basic_modem.a(ral_sx126x.o)
strlen                                            /usr/lib/gcc/arm-none-eabi/10.3.1/../../../arm-none-eabi/lib/thumb/v6-m/nofp/libc_nano.a(lib_a-strlen-stub.o)
                                                  build_sx1261_l0/smtc_hal_trace.o
sx126x_add_registers_to_retention_list            lbm/lbm_lib/./build/basic_modem.a(sx126x.o)
sx126x_cal                                        lbm/lbm_lib/./build/basic_modem.a(sx126x.o)
                                                  lbm/lbm_lib/./build/basic_modem.a(ral_sx126x.o)
sx126x_cal_img                                    lbm/lbm_lib/./build/basic_modem.a(sx126x.o)
sx126x_cal_img_in_mhz                             lbm/lbm_lib/./build/basic_modem.a(sx126x.o)
                                                  lbm/lbm_lib/./build/basic_modem.a(ral_sx126x.o)
sx126x_cfg_rx_boosted                             lbm/lbm_lib/./build/basic_modem.a(sx126x.o)
                                                  lbm/lbm_lib/./build/basic_modem.a(ral_sx126x.o)
sx126x_cfg_tx_clamp                               lbm/lbm_lib/./build/basic_modem.a(sx126x.o)
                                                  lbm/lbm_lib/./build/basic_modem.a(ral_sx126x.o)
sx126x_clear_device_errors                        lbm/lbm_lib/./build/basic_modem.a(sx126x.o)
sx126x_clear_irq_status                           lbm/lbm_lib/./build/basic_modem.a(sx126x.o)
                                                  lbm/lbm_lib/./build/basic_modem.a(ral_sx126x.o)
sx126x_convert_freq_in_hz_to_pll_step             lbm/lbm_lib/./build/basic_modem.a(sx126x.o)
                                                  lbm/lbm_lib/./build/basic_modem.a(ral_sx126x.o)
sx126x_convert_timeout_in_ms_to_rtc_step          lbm/lbm_lib/./build/basic_modem.a(sx126x.o)
                                                  lbm/lbm_lib/./build/basic_modem.a(ral_sx126x.o)
sx126x_get_and_clear_irq_status                   lbm/lbm_lib/./build/basic_modem.a(sx126x.o)
                                                  lbm/lbm_lib/./build/basic_modem.a(ral_sx126x.o)
sx126x_get_device_errors                          lbm/lbm_lib/./build/basic_modem.a(sx126x.o)
sx126x_get_gfsk_bw_param                          lbm/lbm_lib/./build/basic_modem.a(sx126x.o)
                                                  lbm/lbm_lib/./build/basic_modem.a(ral_sx126x.o)
sx126x_get_gfsk_pkt_status                        lbm/lbm_lib/./build/basic_modem.a(sx126x.o)
                                                  lbm/lbm_lib/./build/basic_modem.a(ral_sx126x.o)
sx126x_get_gfsk_stats                             lbm/lbm_lib/./build/basic_modem.a(sx126x.o)
sx126x_get_gfsk_time_on_air_in_ms                 lbm/lbm_lib/./build/basic_modem.a(sx126x.o)
                                                  lbm/lbm_lib/./build/basic_modem.a(ral_sx126x.o)
sx126x_get_gfsk_time_on_air_numerator             lbm/lbm_lib/./build/basic_modem.a(sx126x.o)
sx126x_get_irq_status                             lbm/lbm_lib/./build/basic_modem.a(sx126x.o)
                                                  lbm/lbm_lib/./build/basic_modem.a(ral_sx126x.o)
sx126x_get_lora_bw_in_hz                          lbm/lbm_lib/./build/basic_modem.a(sx126x.o)
sx126x_get_lora_params_from_header                lbm/lbm_lib/./build/basic_modem.a(sx126x.o)
                                                  lbm/lbm_lib/./build/basic_modem.a(ral_sx126x.o)
sx126x_get_lora_pkt_status                        lbm/lbm_lib/./build/basic_modem.a(sx126x.o)
                                                  lbm/lbm_lib/./build/basic_modem.a(ral_sx126x.o)
sx126x_get_lora_stats                             lbm/lbm_lib/./build/basic_modem.a(sx126x.o)
sx126x_get_lora_time_on_air_in_ms                 lbm/lbm_lib/./build/basic_modem.a(sx126x.o)
                                                  lbm/lbm_lib/./build/basic_modem.a(ral_sx126x.o)
sx126x_get_lora_time_on_air_numerator             lbm/lbm_lib/./build/basic_modem.a(sx126x.o)
sx126x_get_pkt_type                               lbm/lbm_lib/./build/basic_modem.a(sx126x.o)
                                                  lbm/lbm_lib/./build/basic_modem.a(ral_sx126x.o)
sx126x_get_random_numbers                         lbm/lbm_lib/./build/basic_modem.a(sx126x.o)
                                                  lbm/lbm_lib/./build/basic_modem.a(ral_sx126x.o)
sx126x_get_rssi_inst                              lbm/lbm_lib/./build/basic_modem.a(sx126x.o)
                                                  lbm/lbm_lib/./build/basic_modem.a(ral_sx126x.o)
sx126x_get_rx_buffer_status                       lbm/lbm_lib/./build/basic_modem.a(sx126x.o)
                                                  lbm/lbm_lib/./build/basic_modem.a(ral_sx126x.o)
sx126x_get_status                                 lbm/lbm_lib/./build/basic_modem.a(sx126x.o)
                                                  lbm/lbm_lib/./build/basic_modem.a(ral_sx126x.o)
sx126x_hal_read                                   build_sx1261_l0/sx126x_hal.o
                                                  lbm/lbm_lib/./build/basic_modem.a(sx126x.o)
                                                  lbm/lbm_lib/./build/basic_modem.a(smtc_modem_test.o)
sx126x_hal_reset                                  build_sx1261_l0/sx126x_hal.o
                                                  lbm/lbm_lib/./build/basic_modem.a(sx126x.o)
sx126x_hal_wakeup                                 build_sx1261_l0/sx126x_hal.o
                                                  lbm/lbm_lib/./build/basic_modem.a(sx126x.o)
sx126x_hal_write                                  build_sx1261_l0/sx126x_hal.o
                                                  lbm/lbm_lib/./build/basic_modem.a(sx126x_lr_fhss.o)
                                                  lbm/lbm_lib/./build/basic_modem.a(sx126x.o)
                                                  lbm/lbm_lib/./build/basic_modem.a(smtc_modem_test.o)
sx126x_handle_rx_done                             lbm/lbm_lib/./build/basic_modem.a(sx126x.o)
                                                  lbm/lbm_lib/./build/basic_modem.a(ral_sx126x.o)
sx126x_init_retention_list                        lbm/lbm_lib/./build/basic_modem.a(sx126x.o)
                                                  lbm/lbm_lib/./build/basic_modem.a(ral_sx126x.o)
sx126x_lr_fhss_build_frame                        lbm/lbm_lib/./build/basic_modem.a(sx126x_lr_fhss.o)
                                                  lbm/lbm_lib/./build/basic_modem.a(ral_sx126x.o)
sx126x_lr_fhss_get_bit_delay_in_us                lbm/lbm_lib/./build/basic_modem.a(sx126x_lr_fhss.o)
                                                  lbm/lbm_lib/./build/basic_modem.a(ral_sx126x.o)
sx126x_lr_fhss_get_next_freq_in_pll_steps         lbm/lbm_lib/./build/basic_modem.a(sx126x_lr_fhss.o)
sx126x_lr_fhss_handle_hop                         lbm/lbm_lib/./build/basic_modem.a(sx126x_lr_fhss.o)
                                                  lbm/lbm_lib/./build/basic_modem.a(ral_sx126x.o)
sx126x_lr_fhss_handle_tx_done                     lbm/lbm_lib/./build/basic_modem.a(sx126x_lr_fhss.o)
                                                  lbm/lbm_lib/./build/basic_modem.a(ral_sx126x.o)
sx126x_lr_fhss_init                               lbm/lbm_lib/./build/basic_modem.a(sx126x_lr_fhss.o)
                                                  lbm/lbm_lib/./build/basic_modem.a(ral_sx126x.o)
sx126x_lr_fhss_process_parameters                 lbm/lbm_lib/./build/basic_modem.a(sx126x_lr_fhss.o)
sx126x_lr_fhss_write_hop                          lbm/lbm_lib/./build/basic_modem.a(sx126x_lr_fhss.o)
sx126x_lr_fhss_write_hop_config                   lbm/lbm_lib/./build/basic_modem.a(sx126x_lr_fhss.o)
sx126x_lr_fhss_write_hop_sequence_head            lbm/lbm_lib/./build/basic_modem.a(sx126x_lr_fhss.o)
sx126x_lr_fhss_write_payload                      lbm/lbm_lib/./build/basic_modem.a(sx126x_lr_fhss.o)
sx126x_read_buffer                                lbm/lbm_lib/./build/basic_modem.a(sx126x.o)
                                                  lbm/lbm_lib/./build/basic_modem.a(ral_sx126x.o)
sx126x_read_register                              lbm/lbm_lib/./build/basic_modem.a(sx126x.o)
sx126x_reset                                      lbm/lbm_lib/./build/basic_modem.a(sx126x.o)
                                                  lbm/lbm_lib/./build/basic_modem.a(ral_sx126x.o)
sx126x_reset_stats                                lbm/lbm_lib/./build/basic_modem.a(sx126x.o)
sx126x_set_bpsk_mod_params                        lbm/lbm_lib/./build/basic_modem.a(sx126x.o)
sx126x_set_bpsk_pkt_params                        lbm/lbm_lib/./build/basic_modem.a(sx126x.o)
sx126x_set_buffer_base_address                    lbm/lbm_lib/./build/basic_modem.a(sx126x.o)
                                                  lbm/lbm_lib/./build/basic_modem.a(sx126x_lr_fhss.o)
                                                  lbm/lbm_lib/./build/basic_modem.a(ral_sx126x.o)
sx126x_set_cad                                    lbm/lbm_lib/./build/basic_modem.a(sx126x.o)
                                                  lbm/lbm_lib/./build/basic_modem.a(ral_sx126x.o)
sx126x_set_cad_params                             lbm/lbm_lib/./build/basic_modem.a(sx126x.o)
                                                  lbm/lbm_lib/./build/basic_modem.a(ral_sx126x.o)
sx126x_set_dio2_as_rf_sw_ctrl                     lbm/lbm_lib/./build/basic_modem.a(sx126x.o)
                                                  lbm/lbm_lib/./build/basic_modem.a(ral_sx126x.o)
sx126x_set_dio3_as_tcxo_ctrl                      lbm/lbm_lib/./build/basic_modem.a(sx126x.o)
                                                  lbm/lbm_lib/./build/basic_modem.a(ral_sx126x.o)
sx126x_set_dio_irq_params                         lbm/lbm_lib/./build/basic_modem.a(sx126x.o)
                                                  lbm/lbm_lib/./build/basic_modem.a(ral_sx126x.o)
sx126x_set_fs                                     lbm/lbm_lib/./build/basic_modem.a(sx126x.o)
                                                  lbm/lbm_lib/./build/basic_modem.a(ral_sx126x.o)
sx126x_set_gfsk_crc_polynomial                    lbm/lbm_lib/./build/basic_modem.a(sx126x.o)
                                                  lbm/lbm_lib/./build/basic_modem.a(ral_sx126x.o)
sx126x_set_gfsk_crc_seed                          lbm/lbm_lib/./build/basic_modem.a(sx126x.o)
                                                  lbm/lbm_lib/./build/basic_modem.a(ral_sx126x.o)
sx126x_set_gfsk_mod_params                        lbm/lbm_lib/./build/basic_modem.a(sx126x.o)
                                                  lbm/lbm_lib/./build/basic_modem.a(ral_sx126x.o)
sx126x_set_gfsk_pkt_address                       lbm/lbm_lib/./build/basic_modem.a(sx126x.o)
sx126x_set_gfsk_pkt_params                        lbm/lbm_lib/./build/basic_modem.a(sx126x.o)
                                                  lbm/lbm_lib/./build/basic_modem.a(ral_sx126x.o)
sx126x_set_gfsk_sync_word                         lbm/lbm_lib/./build/basic_modem.a(sx126x.o)
                                                  lbm/lbm_lib/./build/basic_modem.a(ral_sx126x.o)
sx126x_set_gfsk_whitening_seed                    lbm/lbm_lib/./build/basic_modem.a(sx126x.o)
                                                  lbm/lbm_lib/./build/basic_modem.a(ral_sx126x.o)
sx126x_set_lora_mod_params                        lbm/lbm_lib/./build/basic_modem.a(sx126x.o)
                                                  lbm/lbm_lib/./build/basic_modem.a(ral_sx126x.o)
sx126x_set_lora_pkt_params                        lbm/lbm_lib/./build/basic_modem.a(sx126x.o)
                                                  lbm/lbm_lib/./build/basic_modem.a(ral_sx126x.o)
sx126x_set_lora_symb_nb_timeout                   lbm/lbm_lib/./build/basic_modem.a(sx126x.o)
                                                  lbm/lbm_lib/./build/basic_modem.a(ral_sx126x.o)
sx126x_set_lora_sync_word                         lbm/lbm_lib/./build/basic_modem.a(sx126x.o)
                                                  lbm/lbm_lib/./build/basic_modem.a(ral_sx126x.o)
sx126x_set_ocp_value                              lbm/lbm_lib/./build/basic_modem.a(sx126x.o)
                                                  lbm/lbm_lib/./build/basic_modem.a(ral_sx126x.o)
sx126x_set_pa_cfg                                 lbm/lbm_lib/./build/basic_modem.a(sx126x.o)
                                                  lbm/lbm_lib/./build/basic_modem.a(ral_sx126x.o)
sx126x_set_pkt_type                               lbm/lbm_lib/./build/basic_modem.a(sx126x.o)
                                                  lbm/lbm_lib/./build/basic_modem.a(sx126x_lr_fhss.o)
                                                  lbm/lbm_lib/./build/basic_modem.a(ral_sx126x.o)
sx126x_set_reg_mode                               lbm/lbm_lib/./build/basic_modem.a(sx126x.o)
                                                  lbm/lbm_lib/./build/basic_modem.a(ral_sx126x.o)
sx126x_set_rf_freq                                lbm/lbm_lib/./build/basic_modem.a(sx126x.o)
                                                  lbm/lbm_lib/./build/basic_modem.a(ral_sx126x.o)
sx126x_set_rf_freq_in_pll_steps                   lbm/lbm_lib/./build/basic_modem.a(sx126x.o)
sx126x_set_rx                                     lbm/lbm_lib/./build/basic_modem.a(sx126x.o)
                                                  lbm/lbm_lib/./build/basic_modem.a(ral_sx126x.o)
sx126x_set_rx_duty_cycle                          lbm/lbm_lib/./build/basic_modem.a(sx126x.o)
                                                  lbm/lbm_lib/./build/basic_modem.a(ral_sx126x.o)
sx126x_set_rx_duty_cycle_with_timings_in_rtc_step lbm/lbm_lib/./build/basic_modem.a(sx126x.o)
sx126x_set_rx_tx_fallback_mode                    lbm/lbm_lib/./build/basic_modem.a(sx126x.o)
                                                  lbm/lbm_lib/./build/basic_modem.a(ral_sx126x.o)
sx126x_set_rx_with_timeout_in_rtc_step            lbm/lbm_lib/./build/basic_modem.a(sx126x.o)
                                                  lbm/lbm_lib/./build/basic_modem.a(ral_sx126x.o)
sx126x_set_sleep                                  lbm/lbm_lib/./build/basic_modem.a(sx126x.o)
                                                  lbm/lbm_lib/./build/basic_modem.a(ral_sx126x.o)
sx126x_set_standby                                lbm/lbm_lib/./build/basic_modem.a(sx126x.o)
                                                  lbm/lbm_lib/./build/basic_modem.a(ral_sx126x.o)
sx126x_set_trimming_capacitor_values              lbm/lbm_lib/./build/basic_modem.a(sx126x.o)
                                                  lbm/lbm_lib/./build/basic_modem.a(ral_sx126x.o)
sx126x_set_tx                                     lbm/lbm_lib/./build/basic_modem.a(sx126x.o)
                                                  lbm/lbm_lib/./build/basic_modem.a(ral_sx126x.o)
sx126x_set_tx_cw                                  lbm/lbm_lib/./build/basic_modem.a(sx126x.o)
                                                  lbm/lbm_lib/./build/basic_modem.a(ral_sx126x.o)
sx126x_set_tx_infinite_preamble                   lbm/lbm_lib/./build/basic_modem.a(sx126x.o)
                                                  lbm/lbm_lib/./build/basic_modem.a(ral_sx126x.o)
sx126x_set_tx_params                              lbm/lbm_lib/./build/basic_modem.a(sx126x.o)
                                                  lbm/lbm_lib/./build/basic_modem.a(ral_sx126x.o)
sx126x_set_tx_with_timeout_in_rtc_step            lbm/lbm_lib/./build/basic_modem.a(sx126x.o)
sx126x_stop_rtc                                   lbm/lbm_lib/./build/basic_modem.a(sx126x.o)
sx126x_stop_timer_on_preamble                     lbm/lbm_lib/./build/basic_modem.a(sx126x.o)
                                                  lbm/lbm_lib/./build/basic_modem.a(ral_sx126x.o)
sx126x_wakeup                                     lbm/lbm_lib/./build/basic_modem.a(sx126x.o)
                                                  lbm/lbm_lib/./build/basic_modem.a(ral_sx126x.o)
sx126x_write_buffer                               lbm/lbm_lib/./build/basic_modem.a(sx126x.o)
                                                  lbm/lbm_lib/./build/basic_modem.a(sx126x_lr_fhss.o)
                                                  lbm/lbm_lib/./build/basic_modem.a(ral_sx126x.o)
sx126x_write_register                             lbm/lbm_lib/./build/basic_modem.a(sx126x.o)
                                                  lbm/lbm_lib/./build/basic_modem.a(sx126x_lr_fhss.o)
test_mode_cw_callback_for_rp                      lbm/lbm_lib/./build/basic_modem.a(smtc_modem_test.o)
trace_uart_deinit                                 build_sx1261_l0/smtc_hal_uart.o
                                                  build_sx1261_l0/smtc_hal_mcu.o
trace_uart_init                                   build_sx1261_l0/smtc_hal_uart.o
                                                  build_sx1261_l0/smtc_hal_mcu.o
trace_uart_tx                                     build_sx1261_l0/smtc_hal_uart.o
                                                  build_sx1261_l0/smtc_hal_trace.o
tx_protocol_manager_abort                         lbm/lbm_lib/./build/basic_modem.a(modem_tx_protocol_manager.o)
                                                  lbm/lbm_lib/./build/basic_modem.a(smtc_modem.o)
tx_protocol_manager_is_busy                       lbm/lbm_lib/./build/basic_modem.a(modem_tx_protocol_manager.o)
                                                  lbm/lbm_lib/./build/basic_modem.a(modem_supervisor_light.o)
tx_protocol_manager_lr1mac_stand_alone_tx         lbm/lbm_lib/./build/basic_modem.a(modem_tx_protocol_manager.o)
                                                  lbm/lbm_lib/./build/basic_modem.a(modem_supervisor_light.o)
tx_protocol_manager_request                       lbm/lbm_lib/./build/basic_modem.a(modem_tx_protocol_manager.o)
                                                  lbm/lbm_lib/./build/basic_modem.a(lorawan_cid_request_management.o)
                                                  lbm/lbm_lib/./build/basic_modem.a(lorawan_send_management.o)
                                                  lbm/lbm_lib/./build/basic_modem.a(lorawan_join_management.o)
                                                  lbm/lbm_lib/./build/basic_modem.a(lorawan_certification.o)
tx_protocol_manager_tx_is_aborted                 lbm/lbm_lib/./build/basic_modem.a(modem_tx_protocol_manager.o)
                                                  lbm/lbm_lib/./build/basic_modem.a(lorawan_send_management.o)
vfiprintf                                         /usr/lib/gcc/arm-none-eabi/10.3.1/../../../arm-none-eabi/lib/thumb/v6-m/nofp/libc_nano.a(lib_a-nano-vfprintf.o)
vfprintf                                          /usr/lib/gcc/arm-none-eabi/10.3.1/../../../arm-none-eabi/lib/thumb/v6-m/nofp/libc_nano.a(lib_a-nano-vfprintf.o)
vsiprintf                                         /usr/lib/gcc/arm-none-eabi/10.3.1/../../../arm-none-eabi/lib/thumb/v6-m/nofp/libc_nano.a(lib_a-vsprintf.o)
vsprintf                                          /usr/lib/gcc/arm-none-eabi/10.3.1/../../../arm-none-eabi/lib/thumb/v6-m/nofp/libc_nano.a(lib_a-vsprintf.o)
                                                  build_sx1261_l0/smtc_modem_hal.o
                                                  build_sx1261_l0/smtc_hal_trace.o
