ARM GAS  /tmp/cc9iWrjb.s 			page 1


   1              		.cpu cortex-m0plus
   2              		.eabi_attribute 23, 1
   3              		.eabi_attribute 24, 1
   4              		.eabi_attribute 25, 1
   5              		.eabi_attribute 26, 1
   6              		.eabi_attribute 30, 4
   7              		.eabi_attribute 34, 0
   8              		.eabi_attribute 18, 4
   9              		.file	"stm32l0xx_ll_i2c.c"
  10              		.text
  11              		.section	.text.LL_I2C_DeInit,"ax",%progbits
  12              		.align	1
  13              		.global	LL_I2C_DeInit
  14              		.arch armv6s-m
  15              		.syntax unified
  16              		.code	16
  17              		.thumb_func
  18              		.fpu softvfp
  20              	LL_I2C_DeInit:
  21              		@ args = 0, pretend = 0, frame = 0
  22              		@ frame_needed = 0, uses_anonymous_args = 0
  23              		@ link register save eliminated.
  24 0000 144A     		ldr	r2, .L7
  25 0002 0300     		movs	r3, r0
  26 0004 9042     		cmp	r0, r2
  27 0006 0BD1     		bne	.L2
  28 0008 8022     		movs	r2, #128
  29 000a 134B     		ldr	r3, .L7+4
  30 000c 9203     		lsls	r2, r2, #14
  31 000e 996A     		ldr	r1, [r3, #40]
  32 0010 0A43     		orrs	r2, r1
  33 0012 9A62     		str	r2, [r3, #40]
  34 0014 9A6A     		ldr	r2, [r3, #40]
  35 0016 1149     		ldr	r1, .L7+8
  36              	.L6:
  37 0018 0020     		movs	r0, #0
  38 001a 0A40     		ands	r2, r1
  39 001c 9A62     		str	r2, [r3, #40]
  40              	.L3:
  41              		@ sp needed
  42 001e 7047     		bx	lr
  43              	.L2:
  44 0020 0F4A     		ldr	r2, .L7+12
  45 0022 9042     		cmp	r0, r2
  46 0024 08D1     		bne	.L4
  47 0026 8022     		movs	r2, #128
  48 0028 0B4B     		ldr	r3, .L7+4
  49 002a D203     		lsls	r2, r2, #15
  50 002c 996A     		ldr	r1, [r3, #40]
  51 002e 0A43     		orrs	r2, r1
  52 0030 9A62     		str	r2, [r3, #40]
  53 0032 9A6A     		ldr	r2, [r3, #40]
  54 0034 0B49     		ldr	r1, .L7+16
  55 0036 EFE7     		b	.L6
  56              	.L4:
  57 0038 0B4A     		ldr	r2, .L7+20
  58 003a 0120     		movs	r0, #1
ARM GAS  /tmp/cc9iWrjb.s 			page 2


  59 003c 9342     		cmp	r3, r2
  60 003e EED1     		bne	.L3
  61 0040 8022     		movs	r2, #128
  62 0042 054B     		ldr	r3, .L7+4
  63 0044 D205     		lsls	r2, r2, #23
  64 0046 996A     		ldr	r1, [r3, #40]
  65 0048 0A43     		orrs	r2, r1
  66 004a 9A62     		str	r2, [r3, #40]
  67 004c 9A6A     		ldr	r2, [r3, #40]
  68 004e 0749     		ldr	r1, .L7+24
  69 0050 E2E7     		b	.L6
  70              	.L8:
  71 0052 C046     		.align	2
  72              	.L7:
  73 0054 00540040 		.word	1073763328
  74 0058 00100240 		.word	1073876992
  75 005c FFFFDFFF 		.word	-2097153
  76 0060 00580040 		.word	1073764352
  77 0064 FFFFBFFF 		.word	-4194305
  78 0068 00780040 		.word	1073772544
  79 006c FFFFFFBF 		.word	-1073741825
  81              		.section	.text.LL_I2C_Init,"ax",%progbits
  82              		.align	1
  83              		.global	LL_I2C_Init
  84              		.syntax unified
  85              		.code	16
  86              		.thumb_func
  87              		.fpu softvfp
  89              	LL_I2C_Init:
  90              		@ args = 0, pretend = 0, frame = 0
  91              		@ frame_needed = 0, uses_anonymous_args = 0
  92 0000 0122     		movs	r2, #1
  93 0002 0368     		ldr	r3, [r0]
  94 0004 30B5     		push	{r4, r5, lr}
  95 0006 9343     		bics	r3, r2
  96 0008 0360     		str	r3, [r0]
  97 000a CB68     		ldr	r3, [r1, #12]
  98 000c 8D68     		ldr	r5, [r1, #8]
  99 000e 1B02     		lsls	r3, r3, #8
 100 0010 0468     		ldr	r4, [r0]
 101 0012 2B43     		orrs	r3, r5
 102 0014 144D     		ldr	r5, .L14
 103 0016 2C40     		ands	r4, r5
 104 0018 2343     		orrs	r3, r4
 105 001a 0360     		str	r3, [r0]
 106 001c 4B68     		ldr	r3, [r1, #4]
 107 001e 134C     		ldr	r4, .L14+4
 108 0020 0361     		str	r3, [r0, #16]
 109 0022 0368     		ldr	r3, [r0]
 110 0024 0D69     		ldr	r5, [r1, #16]
 111 0026 1A43     		orrs	r2, r3
 112 0028 0260     		str	r2, [r0]
 113 002a 8368     		ldr	r3, [r0, #8]
 114 002c 8A69     		ldr	r2, [r1, #24]
 115 002e 2340     		ands	r3, r4
 116 0030 8360     		str	r3, [r0, #8]
 117 0032 8368     		ldr	r3, [r0, #8]
ARM GAS  /tmp/cc9iWrjb.s 			page 3


 118 0034 2A43     		orrs	r2, r5
 119 0036 DB0A     		lsrs	r3, r3, #11
 120 0038 DB02     		lsls	r3, r3, #11
 121 003a 1A43     		orrs	r2, r3
 122 003c 8260     		str	r2, [r0, #8]
 123 003e 002D     		cmp	r5, #0
 124 0040 04D0     		beq	.L10
 125 0042 8023     		movs	r3, #128
 126 0044 8268     		ldr	r2, [r0, #8]
 127 0046 1B02     		lsls	r3, r3, #8
 128 0048 1343     		orrs	r3, r2
 129 004a 8360     		str	r3, [r0, #8]
 130              	.L10:
 131 004c 0268     		ldr	r2, [r0]
 132 004e 084B     		ldr	r3, .L14+8
 133              		@ sp needed
 134 0050 1A40     		ands	r2, r3
 135 0052 0B68     		ldr	r3, [r1]
 136 0054 1A43     		orrs	r2, r3
 137 0056 0260     		str	r2, [r0]
 138 0058 4368     		ldr	r3, [r0, #4]
 139 005a 4A69     		ldr	r2, [r1, #20]
 140 005c 2340     		ands	r3, r4
 141 005e 1343     		orrs	r3, r2
 142 0060 4360     		str	r3, [r0, #4]
 143 0062 0020     		movs	r0, #0
 144 0064 30BD     		pop	{r4, r5, pc}
 145              	.L15:
 146 0066 C046     		.align	2
 147              	.L14:
 148 0068 FFE0FFFF 		.word	-7937
 149 006c FF7FFFFF 		.word	-32769
 150 0070 FFFFCFFF 		.word	-3145729
 152              		.section	.text.LL_I2C_StructInit,"ax",%progbits
 153              		.align	1
 154              		.global	LL_I2C_StructInit
 155              		.syntax unified
 156              		.code	16
 157              		.thumb_func
 158              		.fpu softvfp
 160              	LL_I2C_StructInit:
 161              		@ args = 0, pretend = 0, frame = 0
 162              		@ frame_needed = 0, uses_anonymous_args = 0
 163              		@ link register save eliminated.
 164 0000 8022     		movs	r2, #128
 165              		@ sp needed
 166 0002 0023     		movs	r3, #0
 167 0004 1202     		lsls	r2, r2, #8
 168 0006 0360     		str	r3, [r0]
 169 0008 4360     		str	r3, [r0, #4]
 170 000a 8360     		str	r3, [r0, #8]
 171 000c C360     		str	r3, [r0, #12]
 172 000e 0361     		str	r3, [r0, #16]
 173 0010 4261     		str	r2, [r0, #20]
 174 0012 8361     		str	r3, [r0, #24]
 175 0014 7047     		bx	lr
 177              		.ident	"GCC: (15:10.3-2021.07-4) 10.3.1 20210621 (release)"
ARM GAS  /tmp/cc9iWrjb.s 			page 4


ARM GAS  /tmp/cc9iWrjb.s 			page 5

