ARM GAS  /tmp/ccg54bqa.s 			page 1


   1              		.cpu cortex-m0plus
   2              		.eabi_attribute 23, 1
   3              		.eabi_attribute 24, 1
   4              		.eabi_attribute 25, 1
   5              		.eabi_attribute 26, 1
   6              		.eabi_attribute 30, 4
   7              		.eabi_attribute 34, 0
   8              		.eabi_attribute 18, 4
   9              		.file	"lorawan_api.c"
  10              		.text
  11              		.section	.rodata.lorawan_api_init.str1.1,"aMS",%progbits,1
  12              	.LC0:
  13 0000 73746163 		.ascii	"stack_id < NUMBER_OF_STACKS\000"
  13      6B5F6964 
  13      203C204E 
  13      554D4245 
  13      525F4F46 
  14              		.section	.text.lorawan_api_init,"ax",%progbits
  15              		.align	1
  16              		.global	lorawan_api_init
  17              		.arch armv6s-m
  18              		.syntax unified
  19              		.code	16
  20              		.thumb_func
  21              		.fpu softvfp
  23              	lorawan_api_init:
  24              		@ args = 0, pretend = 0, frame = 8
  25              		@ frame_needed = 0, uses_anonymous_args = 0
  26 0000 7FB5     		push	{r0, r1, r2, r3, r4, r5, r6, lr}
  27 0002 0F26     		movs	r6, #15
  28 0004 6E44     		add	r6, r6, sp
  29 0006 0400     		movs	r4, r0
  30 0008 1500     		movs	r5, r2
  31 000a 3170     		strb	r1, [r6]
  32 000c 0029     		cmp	r1, #0
  33 000e 04D0     		beq	.L2
  34 0010 6921     		movs	r1, #105
  35 0012 0C4A     		ldr	r2, .L6
  36 0014 0C48     		ldr	r0, .L6+4
  37 0016 FFF7FEFF 		bl	smtc_modem_hal_on_panic
  38              	.L2:
  39              		@ sp needed
  40 001a C421     		movs	r1, #196
  41 001c A120     		movs	r0, #161
  42 001e A122     		movs	r2, #161
  43 0020 3378     		ldrb	r3, [r6]
  44 0022 4900     		lsls	r1, r1, #1
  45 0024 5943     		muls	r1, r3
  46 0026 C000     		lsls	r0, r0, #3
  47 0028 5843     		muls	r0, r3
  48 002a D200     		lsls	r2, r2, #3
  49 002c 8918     		adds	r1, r1, r2
  50 002e 074A     		ldr	r2, .L6+8
  51 0030 0196     		str	r6, [sp, #4]
  52 0032 8918     		adds	r1, r1, r2
  53 0034 8018     		adds	r0, r0, r2
  54 0036 0095     		str	r5, [sp]
ARM GAS  /tmp/ccg54bqa.s 			page 2


  55 0038 0023     		movs	r3, #0
  56 003a 2200     		movs	r2, r4
  57 003c FFF7FEFF 		bl	lr1mac_core_init
  58 0040 7FBD     		pop	{r0, r1, r2, r3, r4, r5, r6, pc}
  59              	.L7:
  60 0042 C046     		.align	2
  61              	.L6:
  62 0044 00000000 		.word	.LC0
  63 0048 00000000 		.word	.LANCHOR0
  64 004c 00000000 		.word	lr1mac_core_context
  66              		.section	.text.lorawan_api_get_region,"ax",%progbits
  67              		.align	1
  68              		.global	lorawan_api_get_region
  69              		.syntax unified
  70              		.code	16
  71              		.thumb_func
  72              		.fpu softvfp
  74              	lorawan_api_get_region:
  75              		@ args = 0, pretend = 0, frame = 0
  76              		@ frame_needed = 0, uses_anonymous_args = 0
  77 0000 10B5     		push	{r4, lr}
  78 0002 041E     		subs	r4, r0, #0
  79 0004 04D0     		beq	.L9
  80 0006 8B21     		movs	r1, #139
  81 0008 054A     		ldr	r2, .L13
  82 000a 0648     		ldr	r0, .L13+4
  83 000c FFF7FEFF 		bl	smtc_modem_hal_on_panic
  84              	.L9:
  85              		@ sp needed
  86 0010 A120     		movs	r0, #161
  87 0012 C000     		lsls	r0, r0, #3
  88 0014 6043     		muls	r0, r4
  89 0016 044B     		ldr	r3, .L13+8
  90 0018 C018     		adds	r0, r0, r3
  91 001a FFF7FEFF 		bl	lr1mac_core_get_region
  92 001e 10BD     		pop	{r4, pc}
  93              	.L14:
  94              		.align	2
  95              	.L13:
  96 0020 00000000 		.word	.LC0
  97 0024 00000000 		.word	.LANCHOR1
  98 0028 00000000 		.word	lr1mac_core_context
 100              		.section	.text.lorawan_api_set_region,"ax",%progbits
 101              		.align	1
 102              		.global	lorawan_api_set_region
 103              		.syntax unified
 104              		.code	16
 105              		.thumb_func
 106              		.fpu softvfp
 108              	lorawan_api_set_region:
 109              		@ args = 0, pretend = 0, frame = 0
 110              		@ frame_needed = 0, uses_anonymous_args = 0
 111 0000 F7B5     		push	{r0, r1, r2, r4, r5, r6, r7, lr}
 112 0002 0500     		movs	r5, r0
 113 0004 0C1E     		subs	r4, r1, #0
 114 0006 04D0     		beq	.L16
 115 0008 9221     		movs	r1, #146
ARM GAS  /tmp/ccg54bqa.s 			page 3


 116 000a 154A     		ldr	r2, .L28
 117 000c 1548     		ldr	r0, .L28+4
 118 000e FFF7FEFF 		bl	smtc_modem_hal_on_panic
 119              	.L16:
 120 0012 A120     		movs	r0, #161
 121 0014 C000     		lsls	r0, r0, #3
 122 0016 6043     		muls	r0, r4
 123 0018 134E     		ldr	r6, .L28+8
 124 001a 2900     		movs	r1, r5
 125 001c 8019     		adds	r0, r0, r6
 126 001e FFF7FEFF 		bl	lr1mac_core_set_region
 127 0022 041E     		subs	r4, r0, #0
 128 0024 19D1     		bne	.L23
 129 0026 012D     		cmp	r5, #1
 130 0028 0FD1     		bne	.L18
 131 002a 0500     		movs	r5, r0
 132 002c 0F4F     		ldr	r7, .L28+12
 133              	.L19:
 134 002e 104B     		ldr	r3, .L28+16
 135 0030 6A00     		lsls	r2, r5, #1
 136 0032 D25A     		ldrh	r2, [r2, r3]
 137 0034 7B68     		ldr	r3, [r7, #4]
 138 0036 E9B2     		uxtb	r1, r5
 139 0038 0093     		str	r3, [sp]
 140 003a 3B68     		ldr	r3, [r7]
 141 003c 0620     		movs	r0, #6
 142 003e 0135     		adds	r5, r5, #1
 143 0040 FFF7FEFF 		bl	smtc_duty_cycle_config
 144 0044 0837     		adds	r7, r7, #8
 145 0046 062D     		cmp	r5, #6
 146 0048 F1D1     		bne	.L19
 147              	.L18:
 148 004a 3068     		ldr	r0, [r6]
 149 004c FFF7FEFF 		bl	smtc_real_is_dtc_supported
 150 0050 4342     		rsbs	r3, r0, #0
 151 0052 5841     		adcs	r0, r0, r3
 152 0054 0130     		adds	r0, r0, #1
 153 0056 FFF7FEFF 		bl	smtc_duty_cycle_enable_set
 154              	.L23:
 155              		@ sp needed
 156 005a 2000     		movs	r0, r4
 157 005c FEBD     		pop	{r1, r2, r3, r4, r5, r6, r7, pc}
 158              	.L29:
 159 005e C046     		.align	2
 160              	.L28:
 161 0060 00000000 		.word	.LC0
 162 0064 00000000 		.word	.LANCHOR2
 163 0068 00000000 		.word	lr1mac_core_context
 164 006c 00000000 		.word	.LANCHOR3
 165 0070 00000000 		.word	.LANCHOR4
 167              		.section	.text.lorawan_api_payload_send,"ax",%progbits
 168              		.align	1
 169              		.global	lorawan_api_payload_send
 170              		.syntax unified
 171              		.code	16
 172              		.thumb_func
 173              		.fpu softvfp
ARM GAS  /tmp/ccg54bqa.s 			page 4


 175              	lorawan_api_payload_send:
 176              		@ args = 12, pretend = 0, frame = 8
 177              		@ frame_needed = 0, uses_anonymous_args = 0
 178 0000 F0B5     		push	{r4, r5, r6, r7, lr}
 179 0002 87B0     		sub	sp, sp, #28
 180 0004 0493     		str	r3, [sp, #16]
 181 0006 0CAB     		add	r3, sp, #48
 182 0008 1B78     		ldrb	r3, [r3]
 183 000a 0400     		movs	r4, r0
 184 000c 0593     		str	r3, [sp, #20]
 185 000e 0EAB     		add	r3, sp, #56
 186 0010 1F78     		ldrb	r7, [r3]
 187 0012 0D00     		movs	r5, r1
 188 0014 1600     		movs	r6, r2
 189 0016 002F     		cmp	r7, #0
 190 0018 04D0     		beq	.L31
 191 001a C321     		movs	r1, #195
 192 001c 0A4A     		ldr	r2, .L35
 193 001e 0B48     		ldr	r0, .L35+4
 194 0020 FFF7FEFF 		bl	smtc_modem_hal_on_panic
 195              	.L31:
 196 0024 A120     		movs	r0, #161
 197 0026 0D9B     		ldr	r3, [sp, #52]
 198 0028 C000     		lsls	r0, r0, #3
 199 002a 4743     		muls	r7, r0
 200 002c 0293     		str	r3, [sp, #8]
 201 002e 059B     		ldr	r3, [sp, #20]
 202 0030 0748     		ldr	r0, .L35+8
 203 0032 0193     		str	r3, [sp, #4]
 204 0034 049B     		ldr	r3, [sp, #16]
 205 0036 2A00     		movs	r2, r5
 206 0038 0093     		str	r3, [sp]
 207 003a 2100     		movs	r1, r4
 208 003c 3300     		movs	r3, r6
 209 003e 3818     		adds	r0, r7, r0
 210 0040 FFF7FEFF 		bl	lr1mac_core_payload_send
 211 0044 07B0     		add	sp, sp, #28
 212              		@ sp needed
 213 0046 F0BD     		pop	{r4, r5, r6, r7, pc}
 214              	.L36:
 215              		.align	2
 216              	.L35:
 217 0048 00000000 		.word	.LC0
 218 004c 00000000 		.word	.LANCHOR5
 219 0050 00000000 		.word	lr1mac_core_context
 221              		.section	.text.lorawan_api_payload_send_at_time,"ax",%progbits
 222              		.align	1
 223              		.global	lorawan_api_payload_send_at_time
 224              		.syntax unified
 225              		.code	16
 226              		.thumb_func
 227              		.fpu softvfp
 229              	lorawan_api_payload_send_at_time:
 230              		@ args = 12, pretend = 0, frame = 8
 231              		@ frame_needed = 0, uses_anonymous_args = 0
 232 0000 F0B5     		push	{r4, r5, r6, r7, lr}
 233 0002 87B0     		sub	sp, sp, #28
ARM GAS  /tmp/ccg54bqa.s 			page 5


 234 0004 0493     		str	r3, [sp, #16]
 235 0006 0CAB     		add	r3, sp, #48
 236 0008 1B78     		ldrb	r3, [r3]
 237 000a 0400     		movs	r4, r0
 238 000c 0593     		str	r3, [sp, #20]
 239 000e 0EAB     		add	r3, sp, #56
 240 0010 1F78     		ldrb	r7, [r3]
 241 0012 0D00     		movs	r5, r1
 242 0014 1600     		movs	r6, r2
 243 0016 002F     		cmp	r7, #0
 244 0018 04D0     		beq	.L38
 245 001a CC21     		movs	r1, #204
 246 001c 0A4A     		ldr	r2, .L42
 247 001e 0B48     		ldr	r0, .L42+4
 248 0020 FFF7FEFF 		bl	smtc_modem_hal_on_panic
 249              	.L38:
 250 0024 A120     		movs	r0, #161
 251 0026 0D9B     		ldr	r3, [sp, #52]
 252 0028 C000     		lsls	r0, r0, #3
 253 002a 4743     		muls	r7, r0
 254 002c 0293     		str	r3, [sp, #8]
 255 002e 059B     		ldr	r3, [sp, #20]
 256 0030 0748     		ldr	r0, .L42+8
 257 0032 0193     		str	r3, [sp, #4]
 258 0034 049B     		ldr	r3, [sp, #16]
 259 0036 2A00     		movs	r2, r5
 260 0038 0093     		str	r3, [sp]
 261 003a 2100     		movs	r1, r4
 262 003c 3300     		movs	r3, r6
 263 003e 3818     		adds	r0, r7, r0
 264 0040 FFF7FEFF 		bl	lr1mac_core_payload_send_at_time
 265 0044 07B0     		add	sp, sp, #28
 266              		@ sp needed
 267 0046 F0BD     		pop	{r4, r5, r6, r7, pc}
 268              	.L43:
 269              		.align	2
 270              	.L42:
 271 0048 00000000 		.word	.LC0
 272 004c 00000000 		.word	.LANCHOR6
 273 0050 00000000 		.word	lr1mac_core_context
 275              		.section	.text.lorawan_api_send_stack_cid_req,"ax",%progbits
 276              		.align	1
 277              		.global	lorawan_api_send_stack_cid_req
 278              		.syntax unified
 279              		.code	16
 280              		.thumb_func
 281              		.fpu softvfp
 283              	lorawan_api_send_stack_cid_req:
 284              		@ args = 0, pretend = 0, frame = 0
 285              		@ frame_needed = 0, uses_anonymous_args = 0
 286 0000 F8B5     		push	{r3, r4, r5, r6, r7, lr}
 287 0002 0400     		movs	r4, r0
 288 0004 0D00     		movs	r5, r1
 289 0006 1600     		movs	r6, r2
 290 0008 1F1E     		subs	r7, r3, #0
 291 000a 04D0     		beq	.L45
 292 000c D421     		movs	r1, #212
ARM GAS  /tmp/ccg54bqa.s 			page 6


 293 000e 074A     		ldr	r2, .L49
 294 0010 0748     		ldr	r0, .L49+4
 295 0012 FFF7FEFF 		bl	smtc_modem_hal_on_panic
 296              	.L45:
 297              		@ sp needed
 298 0016 A120     		movs	r0, #161
 299 0018 C000     		lsls	r0, r0, #3
 300 001a 7843     		muls	r0, r7
 301 001c 054B     		ldr	r3, .L49+8
 302 001e 2A00     		movs	r2, r5
 303 0020 2100     		movs	r1, r4
 304 0022 C018     		adds	r0, r0, r3
 305 0024 3300     		movs	r3, r6
 306 0026 FFF7FEFF 		bl	lr1mac_core_send_stack_cid_req
 307 002a F8BD     		pop	{r3, r4, r5, r6, r7, pc}
 308              	.L50:
 309              		.align	2
 310              	.L49:
 311 002c 00000000 		.word	.LC0
 312 0030 00000000 		.word	.LANCHOR7
 313 0034 00000000 		.word	lr1mac_core_context
 315              		.section	.text.lorawan_api_join,"ax",%progbits
 316              		.align	1
 317              		.global	lorawan_api_join
 318              		.syntax unified
 319              		.code	16
 320              		.thumb_func
 321              		.fpu softvfp
 323              	lorawan_api_join:
 324              		@ args = 0, pretend = 0, frame = 0
 325              		@ frame_needed = 0, uses_anonymous_args = 0
 326 0000 70B5     		push	{r4, r5, r6, lr}
 327 0002 0400     		movs	r4, r0
 328 0004 0D1E     		subs	r5, r1, #0
 329 0006 04D0     		beq	.L52
 330 0008 DA21     		movs	r1, #218
 331 000a 064A     		ldr	r2, .L56
 332 000c 0648     		ldr	r0, .L56+4
 333 000e FFF7FEFF 		bl	smtc_modem_hal_on_panic
 334              	.L52:
 335              		@ sp needed
 336 0012 A120     		movs	r0, #161
 337 0014 C000     		lsls	r0, r0, #3
 338 0016 6843     		muls	r0, r5
 339 0018 0449     		ldr	r1, .L56+8
 340 001a 4018     		adds	r0, r0, r1
 341 001c 2100     		movs	r1, r4
 342 001e FFF7FEFF 		bl	lr1mac_core_join
 343 0022 70BD     		pop	{r4, r5, r6, pc}
 344              	.L57:
 345              		.align	2
 346              	.L56:
 347 0024 00000000 		.word	.LC0
 348 0028 00000000 		.word	.LANCHOR8
 349 002c 00000000 		.word	lr1mac_core_context
 351              		.section	.text.lorawan_api_isjoined,"ax",%progbits
 352              		.align	1
ARM GAS  /tmp/ccg54bqa.s 			page 7


 353              		.global	lorawan_api_isjoined
 354              		.syntax unified
 355              		.code	16
 356              		.thumb_func
 357              		.fpu softvfp
 359              	lorawan_api_isjoined:
 360              		@ args = 0, pretend = 0, frame = 0
 361              		@ frame_needed = 0, uses_anonymous_args = 0
 362 0000 10B5     		push	{r4, lr}
 363 0002 041E     		subs	r4, r0, #0
 364 0004 04D0     		beq	.L59
 365 0006 E021     		movs	r1, #224
 366 0008 054A     		ldr	r2, .L63
 367 000a 0648     		ldr	r0, .L63+4
 368 000c FFF7FEFF 		bl	smtc_modem_hal_on_panic
 369              	.L59:
 370              		@ sp needed
 371 0010 A120     		movs	r0, #161
 372 0012 C000     		lsls	r0, r0, #3
 373 0014 6043     		muls	r0, r4
 374 0016 044B     		ldr	r3, .L63+8
 375 0018 C018     		adds	r0, r0, r3
 376 001a FFF7FEFF 		bl	lr1_mac_joined_status_get
 377 001e 10BD     		pop	{r4, pc}
 378              	.L64:
 379              		.align	2
 380              	.L63:
 381 0020 00000000 		.word	.LC0
 382 0024 00000000 		.word	.LANCHOR9
 383 0028 00000000 		.word	lr1mac_core_context
 385              		.section	.text.lorawan_api_join_status_clear,"ax",%progbits
 386              		.align	1
 387              		.global	lorawan_api_join_status_clear
 388              		.syntax unified
 389              		.code	16
 390              		.thumb_func
 391              		.fpu softvfp
 393              	lorawan_api_join_status_clear:
 394              		@ args = 0, pretend = 0, frame = 0
 395              		@ frame_needed = 0, uses_anonymous_args = 0
 396 0000 10B5     		push	{r4, lr}
 397 0002 041E     		subs	r4, r0, #0
 398 0004 04D0     		beq	.L66
 399 0006 E621     		movs	r1, #230
 400 0008 054A     		ldr	r2, .L70
 401 000a 0648     		ldr	r0, .L70+4
 402 000c FFF7FEFF 		bl	smtc_modem_hal_on_panic
 403              	.L66:
 404              		@ sp needed
 405 0010 A120     		movs	r0, #161
 406 0012 C000     		lsls	r0, r0, #3
 407 0014 6043     		muls	r0, r4
 408 0016 044B     		ldr	r3, .L70+8
 409 0018 C018     		adds	r0, r0, r3
 410 001a FFF7FEFF 		bl	lr1mac_core_join_status_clear
 411 001e 10BD     		pop	{r4, pc}
 412              	.L71:
ARM GAS  /tmp/ccg54bqa.s 			page 8


 413              		.align	2
 414              	.L70:
 415 0020 00000000 		.word	.LC0
 416 0024 00000000 		.word	.LANCHOR10
 417 0028 00000000 		.word	lr1mac_core_context
 419              		.section	.text.lorawan_api_dr_strategy_set,"ax",%progbits
 420              		.align	1
 421              		.global	lorawan_api_dr_strategy_set
 422              		.syntax unified
 423              		.code	16
 424              		.thumb_func
 425              		.fpu softvfp
 427              	lorawan_api_dr_strategy_set:
 428              		@ args = 0, pretend = 0, frame = 0
 429              		@ frame_needed = 0, uses_anonymous_args = 0
 430 0000 70B5     		push	{r4, r5, r6, lr}
 431 0002 0400     		movs	r4, r0
 432 0004 0D1E     		subs	r5, r1, #0
 433 0006 04D0     		beq	.L73
 434 0008 EC21     		movs	r1, #236
 435 000a 064A     		ldr	r2, .L77
 436 000c 0648     		ldr	r0, .L77+4
 437 000e FFF7FEFF 		bl	smtc_modem_hal_on_panic
 438              	.L73:
 439              		@ sp needed
 440 0012 A120     		movs	r0, #161
 441 0014 C000     		lsls	r0, r0, #3
 442 0016 6843     		muls	r0, r5
 443 0018 0449     		ldr	r1, .L77+8
 444 001a 4018     		adds	r0, r0, r1
 445 001c 2100     		movs	r1, r4
 446 001e FFF7FEFF 		bl	lr1mac_core_dr_strategy_set
 447 0022 70BD     		pop	{r4, r5, r6, pc}
 448              	.L78:
 449              		.align	2
 450              	.L77:
 451 0024 00000000 		.word	.LC0
 452 0028 00000000 		.word	.LANCHOR11
 453 002c 00000000 		.word	lr1mac_core_context
 455              		.section	.text.lorawan_api_dr_strategy_get,"ax",%progbits
 456              		.align	1
 457              		.global	lorawan_api_dr_strategy_get
 458              		.syntax unified
 459              		.code	16
 460              		.thumb_func
 461              		.fpu softvfp
 463              	lorawan_api_dr_strategy_get:
 464              		@ args = 0, pretend = 0, frame = 0
 465              		@ frame_needed = 0, uses_anonymous_args = 0
 466 0000 10B5     		push	{r4, lr}
 467 0002 041E     		subs	r4, r0, #0
 468 0004 04D0     		beq	.L80
 469 0006 F221     		movs	r1, #242
 470 0008 054A     		ldr	r2, .L84
 471 000a 0648     		ldr	r0, .L84+4
 472 000c FFF7FEFF 		bl	smtc_modem_hal_on_panic
 473              	.L80:
ARM GAS  /tmp/ccg54bqa.s 			page 9


 474              		@ sp needed
 475 0010 A120     		movs	r0, #161
 476 0012 C000     		lsls	r0, r0, #3
 477 0014 6043     		muls	r0, r4
 478 0016 044B     		ldr	r3, .L84+8
 479 0018 C018     		adds	r0, r0, r3
 480 001a FFF7FEFF 		bl	lr1mac_core_dr_strategy_get
 481 001e 10BD     		pop	{r4, pc}
 482              	.L85:
 483              		.align	2
 484              	.L84:
 485 0020 00000000 		.word	.LC0
 486 0024 00000000 		.word	.LANCHOR12
 487 0028 00000000 		.word	lr1mac_core_context
 489              		.section	.text.lorawan_api_dr_custom_set,"ax",%progbits
 490              		.align	1
 491              		.global	lorawan_api_dr_custom_set
 492              		.syntax unified
 493              		.code	16
 494              		.thumb_func
 495              		.fpu softvfp
 497              	lorawan_api_dr_custom_set:
 498              		@ args = 0, pretend = 0, frame = 0
 499              		@ frame_needed = 0, uses_anonymous_args = 0
 500 0000 70B5     		push	{r4, r5, r6, lr}
 501 0002 0500     		movs	r5, r0
 502 0004 0C1E     		subs	r4, r1, #0
 503 0006 04D0     		beq	.L87
 504 0008 F821     		movs	r1, #248
 505 000a 064A     		ldr	r2, .L91
 506 000c 0648     		ldr	r0, .L91+4
 507 000e FFF7FEFF 		bl	smtc_modem_hal_on_panic
 508              	.L87:
 509              		@ sp needed
 510 0012 A121     		movs	r1, #161
 511 0014 C900     		lsls	r1, r1, #3
 512 0016 4C43     		muls	r4, r1
 513 0018 044B     		ldr	r3, .L91+8
 514 001a 2900     		movs	r1, r5
 515 001c E058     		ldr	r0, [r4, r3]
 516 001e FFF7FEFF 		bl	smtc_real_set_custom_dr_distribution
 517 0022 70BD     		pop	{r4, r5, r6, pc}
 518              	.L92:
 519              		.align	2
 520              	.L91:
 521 0024 00000000 		.word	.LC0
 522 0028 00000000 		.word	.LANCHOR13
 523 002c 00000000 		.word	lr1mac_core_context
 525              		.section	.text.lorawan_api_dr_custom_get,"ax",%progbits
 526              		.align	1
 527              		.global	lorawan_api_dr_custom_get
 528              		.syntax unified
 529              		.code	16
 530              		.thumb_func
 531              		.fpu softvfp
 533              	lorawan_api_dr_custom_get:
 534              		@ args = 0, pretend = 0, frame = 0
ARM GAS  /tmp/ccg54bqa.s 			page 10


 535              		@ frame_needed = 0, uses_anonymous_args = 0
 536 0000 70B5     		push	{r4, r5, r6, lr}
 537 0002 0500     		movs	r5, r0
 538 0004 0C1E     		subs	r4, r1, #0
 539 0006 04D0     		beq	.L94
 540 0008 FE21     		movs	r1, #254
 541 000a 064A     		ldr	r2, .L98
 542 000c 0648     		ldr	r0, .L98+4
 543 000e FFF7FEFF 		bl	smtc_modem_hal_on_panic
 544              	.L94:
 545              		@ sp needed
 546 0012 A121     		movs	r1, #161
 547 0014 C900     		lsls	r1, r1, #3
 548 0016 4C43     		muls	r4, r1
 549 0018 044B     		ldr	r3, .L98+8
 550 001a 2900     		movs	r1, r5
 551 001c E058     		ldr	r0, [r4, r3]
 552 001e FFF7FEFF 		bl	smtc_real_get_custom_dr_distribution
 553 0022 70BD     		pop	{r4, r5, r6, pc}
 554              	.L99:
 555              		.align	2
 556              	.L98:
 557 0024 00000000 		.word	.LC0
 558 0028 00000000 		.word	.LANCHOR14
 559 002c 00000000 		.word	lr1mac_core_context
 561              		.section	.text.lorawan_api_dr_join_distribution_set,"ax",%progbits
 562              		.align	1
 563              		.global	lorawan_api_dr_join_distribution_set
 564              		.syntax unified
 565              		.code	16
 566              		.thumb_func
 567              		.fpu softvfp
 569              	lorawan_api_dr_join_distribution_set:
 570              		@ args = 0, pretend = 0, frame = 0
 571              		@ frame_needed = 0, uses_anonymous_args = 0
 572 0000 70B5     		push	{r4, r5, r6, lr}
 573 0002 0500     		movs	r5, r0
 574 0004 0C1E     		subs	r4, r1, #0
 575 0006 05D0     		beq	.L101
 576 0008 8221     		movs	r1, #130
 577 000a 074A     		ldr	r2, .L105
 578 000c 0748     		ldr	r0, .L105+4
 579 000e 4900     		lsls	r1, r1, #1
 580 0010 FFF7FEFF 		bl	smtc_modem_hal_on_panic
 581              	.L101:
 582              		@ sp needed
 583 0014 A121     		movs	r1, #161
 584 0016 C900     		lsls	r1, r1, #3
 585 0018 4C43     		muls	r4, r1
 586 001a 054B     		ldr	r3, .L105+8
 587 001c 2900     		movs	r1, r5
 588 001e E058     		ldr	r0, [r4, r3]
 589 0020 FFF7FEFF 		bl	smtc_real_set_join_dr_distribution
 590 0024 70BD     		pop	{r4, r5, r6, pc}
 591              	.L106:
 592 0026 C046     		.align	2
 593              	.L105:
ARM GAS  /tmp/ccg54bqa.s 			page 11


 594 0028 00000000 		.word	.LC0
 595 002c 00000000 		.word	.LANCHOR15
 596 0030 00000000 		.word	lr1mac_core_context
 598              		.section	.text.lorawan_api_process,"ax",%progbits
 599              		.align	1
 600              		.global	lorawan_api_process
 601              		.syntax unified
 602              		.code	16
 603              		.thumb_func
 604              		.fpu softvfp
 606              	lorawan_api_process:
 607              		@ args = 0, pretend = 0, frame = 0
 608              		@ frame_needed = 0, uses_anonymous_args = 0
 609 0000 10B5     		push	{r4, lr}
 610 0002 041E     		subs	r4, r0, #0
 611 0004 05D0     		beq	.L108
 612 0006 8521     		movs	r1, #133
 613 0008 064A     		ldr	r2, .L112
 614 000a 0748     		ldr	r0, .L112+4
 615 000c 4900     		lsls	r1, r1, #1
 616 000e FFF7FEFF 		bl	smtc_modem_hal_on_panic
 617              	.L108:
 618              		@ sp needed
 619 0012 A120     		movs	r0, #161
 620 0014 C000     		lsls	r0, r0, #3
 621 0016 6043     		muls	r0, r4
 622 0018 044B     		ldr	r3, .L112+8
 623 001a C018     		adds	r0, r0, r3
 624 001c FFF7FEFF 		bl	lr1mac_core_process
 625 0020 10BD     		pop	{r4, pc}
 626              	.L113:
 627 0022 C046     		.align	2
 628              	.L112:
 629 0024 00000000 		.word	.LC0
 630 0028 00000000 		.word	.LANCHOR16
 631 002c 00000000 		.word	lr1mac_core_context
 633              		.section	.text.lorawan_api_context_load,"ax",%progbits
 634              		.align	1
 635              		.global	lorawan_api_context_load
 636              		.syntax unified
 637              		.code	16
 638              		.thumb_func
 639              		.fpu softvfp
 641              	lorawan_api_context_load:
 642              		@ args = 0, pretend = 0, frame = 0
 643              		@ frame_needed = 0, uses_anonymous_args = 0
 644 0000 10B5     		push	{r4, lr}
 645 0002 041E     		subs	r4, r0, #0
 646 0004 05D0     		beq	.L115
 647 0006 8821     		movs	r1, #136
 648 0008 064A     		ldr	r2, .L119
 649 000a 0748     		ldr	r0, .L119+4
 650 000c 4900     		lsls	r1, r1, #1
 651 000e FFF7FEFF 		bl	smtc_modem_hal_on_panic
 652              	.L115:
 653              		@ sp needed
 654 0012 A120     		movs	r0, #161
ARM GAS  /tmp/ccg54bqa.s 			page 12


 655 0014 C000     		lsls	r0, r0, #3
 656 0016 6043     		muls	r0, r4
 657 0018 044B     		ldr	r3, .L119+8
 658 001a C018     		adds	r0, r0, r3
 659 001c FFF7FEFF 		bl	lr1mac_core_context_load
 660 0020 10BD     		pop	{r4, pc}
 661              	.L120:
 662 0022 C046     		.align	2
 663              	.L119:
 664 0024 00000000 		.word	.LC0
 665 0028 00000000 		.word	.LANCHOR17
 666 002c 00000000 		.word	lr1mac_core_context
 668              		.section	.text.lorawan_api_factory_reset,"ax",%progbits
 669              		.align	1
 670              		.global	lorawan_api_factory_reset
 671              		.syntax unified
 672              		.code	16
 673              		.thumb_func
 674              		.fpu softvfp
 676              	lorawan_api_factory_reset:
 677              		@ args = 0, pretend = 0, frame = 0
 678              		@ frame_needed = 0, uses_anonymous_args = 0
 679 0000 10B5     		push	{r4, lr}
 680 0002 041E     		subs	r4, r0, #0
 681 0004 05D0     		beq	.L122
 682 0006 8B21     		movs	r1, #139
 683 0008 064A     		ldr	r2, .L126
 684 000a 0748     		ldr	r0, .L126+4
 685 000c 4900     		lsls	r1, r1, #1
 686 000e FFF7FEFF 		bl	smtc_modem_hal_on_panic
 687              	.L122:
 688              		@ sp needed
 689 0012 A120     		movs	r0, #161
 690 0014 C000     		lsls	r0, r0, #3
 691 0016 6043     		muls	r0, r4
 692 0018 044B     		ldr	r3, .L126+8
 693 001a C018     		adds	r0, r0, r3
 694 001c FFF7FEFF 		bl	lr1mac_core_context_factory_reset
 695 0020 10BD     		pop	{r4, pc}
 696              	.L127:
 697 0022 C046     		.align	2
 698              	.L126:
 699 0024 00000000 		.word	.LC0
 700 0028 00000000 		.word	.LANCHOR18
 701 002c 00000000 		.word	lr1mac_core_context
 703              		.section	.text.lorawan_api_get_activation_mode,"ax",%progbits
 704              		.align	1
 705              		.global	lorawan_api_get_activation_mode
 706              		.syntax unified
 707              		.code	16
 708              		.thumb_func
 709              		.fpu softvfp
 711              	lorawan_api_get_activation_mode:
 712              		@ args = 0, pretend = 0, frame = 0
 713              		@ frame_needed = 0, uses_anonymous_args = 0
 714 0000 10B5     		push	{r4, lr}
 715 0002 041E     		subs	r4, r0, #0
ARM GAS  /tmp/ccg54bqa.s 			page 13


 716 0004 05D0     		beq	.L129
 717 0006 8E21     		movs	r1, #142
 718 0008 064A     		ldr	r2, .L133
 719 000a 0748     		ldr	r0, .L133+4
 720 000c 4900     		lsls	r1, r1, #1
 721 000e FFF7FEFF 		bl	smtc_modem_hal_on_panic
 722              	.L129:
 723              		@ sp needed
 724 0012 A120     		movs	r0, #161
 725 0014 C000     		lsls	r0, r0, #3
 726 0016 6043     		muls	r0, r4
 727 0018 044B     		ldr	r3, .L133+8
 728 001a C018     		adds	r0, r0, r3
 729 001c FFF7FEFF 		bl	lr1mac_core_get_activation_mode
 730 0020 10BD     		pop	{r4, pc}
 731              	.L134:
 732 0022 C046     		.align	2
 733              	.L133:
 734 0024 00000000 		.word	.LC0
 735 0028 00000000 		.word	.LANCHOR19
 736 002c 00000000 		.word	lr1mac_core_context
 738              		.section	.text.lorawan_api_set_activation_mode,"ax",%progbits
 739              		.align	1
 740              		.global	lorawan_api_set_activation_mode
 741              		.syntax unified
 742              		.code	16
 743              		.thumb_func
 744              		.fpu softvfp
 746              	lorawan_api_set_activation_mode:
 747              		@ args = 0, pretend = 0, frame = 0
 748              		@ frame_needed = 0, uses_anonymous_args = 0
 749 0000 70B5     		push	{r4, r5, r6, lr}
 750 0002 0400     		movs	r4, r0
 751 0004 0D1E     		subs	r5, r1, #0
 752 0006 05D0     		beq	.L136
 753 0008 9121     		movs	r1, #145
 754 000a 074A     		ldr	r2, .L140
 755 000c 0748     		ldr	r0, .L140+4
 756 000e 4900     		lsls	r1, r1, #1
 757 0010 FFF7FEFF 		bl	smtc_modem_hal_on_panic
 758              	.L136:
 759              		@ sp needed
 760 0014 A120     		movs	r0, #161
 761 0016 C000     		lsls	r0, r0, #3
 762 0018 6843     		muls	r0, r5
 763 001a 0549     		ldr	r1, .L140+8
 764 001c 4018     		adds	r0, r0, r1
 765 001e 2100     		movs	r1, r4
 766 0020 FFF7FEFF 		bl	lr1mac_core_set_activation_mode
 767 0024 70BD     		pop	{r4, r5, r6, pc}
 768              	.L141:
 769 0026 C046     		.align	2
 770              	.L140:
 771 0028 00000000 		.word	.LC0
 772 002c 00000000 		.word	.LANCHOR20
 773 0030 00000000 		.word	lr1mac_core_context
 775              		.section	.text.lorawan_api_next_max_payload_length_get,"ax",%progbits
ARM GAS  /tmp/ccg54bqa.s 			page 14


 776              		.align	1
 777              		.global	lorawan_api_next_max_payload_length_get
 778              		.syntax unified
 779              		.code	16
 780              		.thumb_func
 781              		.fpu softvfp
 783              	lorawan_api_next_max_payload_length_get:
 784              		@ args = 0, pretend = 0, frame = 0
 785              		@ frame_needed = 0, uses_anonymous_args = 0
 786 0000 10B5     		push	{r4, lr}
 787 0002 041E     		subs	r4, r0, #0
 788 0004 05D0     		beq	.L143
 789 0006 9421     		movs	r1, #148
 790 0008 064A     		ldr	r2, .L147
 791 000a 0748     		ldr	r0, .L147+4
 792 000c 4900     		lsls	r1, r1, #1
 793 000e FFF7FEFF 		bl	smtc_modem_hal_on_panic
 794              	.L143:
 795              		@ sp needed
 796 0012 A120     		movs	r0, #161
 797 0014 C000     		lsls	r0, r0, #3
 798 0016 6043     		muls	r0, r4
 799 0018 044B     		ldr	r3, .L147+8
 800 001a C018     		adds	r0, r0, r3
 801 001c FFF7FEFF 		bl	lr1mac_core_next_max_payload_length_get
 802 0020 10BD     		pop	{r4, pc}
 803              	.L148:
 804 0022 C046     		.align	2
 805              	.L147:
 806 0024 00000000 		.word	.LC0
 807 0028 00000000 		.word	.LANCHOR21
 808 002c 00000000 		.word	lr1mac_core_context
 810              		.section	.text.lorawan_api_devaddr_get,"ax",%progbits
 811              		.align	1
 812              		.global	lorawan_api_devaddr_get
 813              		.syntax unified
 814              		.code	16
 815              		.thumb_func
 816              		.fpu softvfp
 818              	lorawan_api_devaddr_get:
 819              		@ args = 0, pretend = 0, frame = 0
 820              		@ frame_needed = 0, uses_anonymous_args = 0
 821 0000 10B5     		push	{r4, lr}
 822 0002 041E     		subs	r4, r0, #0
 823 0004 05D0     		beq	.L150
 824 0006 9721     		movs	r1, #151
 825 0008 064A     		ldr	r2, .L154
 826 000a 0748     		ldr	r0, .L154+4
 827 000c 4900     		lsls	r1, r1, #1
 828 000e FFF7FEFF 		bl	smtc_modem_hal_on_panic
 829              	.L150:
 830              		@ sp needed
 831 0012 A120     		movs	r0, #161
 832 0014 C000     		lsls	r0, r0, #3
 833 0016 6043     		muls	r0, r4
 834 0018 044B     		ldr	r3, .L154+8
 835 001a C018     		adds	r0, r0, r3
ARM GAS  /tmp/ccg54bqa.s 			page 15


 836 001c FFF7FEFF 		bl	lr1mac_core_devaddr_get
 837 0020 10BD     		pop	{r4, pc}
 838              	.L155:
 839 0022 C046     		.align	2
 840              	.L154:
 841 0024 00000000 		.word	.LC0
 842 0028 00000000 		.word	.LANCHOR22
 843 002c 00000000 		.word	lr1mac_core_context
 845              		.section	.text.lorawan_api_devaddr_set,"ax",%progbits
 846              		.align	1
 847              		.global	lorawan_api_devaddr_set
 848              		.syntax unified
 849              		.code	16
 850              		.thumb_func
 851              		.fpu softvfp
 853              	lorawan_api_devaddr_set:
 854              		@ args = 0, pretend = 0, frame = 0
 855              		@ frame_needed = 0, uses_anonymous_args = 0
 856 0000 70B5     		push	{r4, r5, r6, lr}
 857 0002 0400     		movs	r4, r0
 858 0004 0D1E     		subs	r5, r1, #0
 859 0006 05D0     		beq	.L157
 860 0008 9A21     		movs	r1, #154
 861 000a 074A     		ldr	r2, .L161
 862 000c 0748     		ldr	r0, .L161+4
 863 000e 4900     		lsls	r1, r1, #1
 864 0010 FFF7FEFF 		bl	smtc_modem_hal_on_panic
 865              	.L157:
 866              		@ sp needed
 867 0014 A120     		movs	r0, #161
 868 0016 C000     		lsls	r0, r0, #3
 869 0018 6843     		muls	r0, r5
 870 001a 0549     		ldr	r1, .L161+8
 871 001c 4018     		adds	r0, r0, r1
 872 001e 2100     		movs	r1, r4
 873 0020 FFF7FEFF 		bl	lr1mac_core_devaddr_set
 874 0024 70BD     		pop	{r4, r5, r6, pc}
 875              	.L162:
 876 0026 C046     		.align	2
 877              	.L161:
 878 0028 00000000 		.word	.LC0
 879 002c 00000000 		.word	.LANCHOR23
 880 0030 00000000 		.word	lr1mac_core_context
 882              		.section	.text.lorawan_api_get_deveui,"ax",%progbits
 883              		.align	1
 884              		.global	lorawan_api_get_deveui
 885              		.syntax unified
 886              		.code	16
 887              		.thumb_func
 888              		.fpu softvfp
 890              	lorawan_api_get_deveui:
 891              		@ args = 0, pretend = 0, frame = 0
 892              		@ frame_needed = 0, uses_anonymous_args = 0
 893 0000 70B5     		push	{r4, r5, r6, lr}
 894 0002 0500     		movs	r5, r0
 895 0004 0C1E     		subs	r4, r1, #0
 896 0006 05D0     		beq	.L164
ARM GAS  /tmp/ccg54bqa.s 			page 16


 897 0008 9D21     		movs	r1, #157
 898 000a 064A     		ldr	r2, .L168
 899 000c 0648     		ldr	r0, .L168+4
 900 000e 4900     		lsls	r1, r1, #1
 901 0010 FFF7FEFF 		bl	smtc_modem_hal_on_panic
 902              	.L164:
 903              		@ sp needed
 904 0014 2800     		movs	r0, r5
 905 0016 2100     		movs	r1, r4
 906 0018 FFF7FEFF 		bl	smtc_secure_element_get_deveui
 907 001c 431E     		subs	r3, r0, #1
 908 001e 9841     		sbcs	r0, r0, r3
 909 0020 4042     		rsbs	r0, r0, #0
 910 0022 70BD     		pop	{r4, r5, r6, pc}
 911              	.L169:
 912              		.align	2
 913              	.L168:
 914 0024 00000000 		.word	.LC0
 915 0028 00000000 		.word	.LANCHOR24
 917              		.section	.text.lorawan_api_set_deveui,"ax",%progbits
 918              		.align	1
 919              		.global	lorawan_api_set_deveui
 920              		.syntax unified
 921              		.code	16
 922              		.thumb_func
 923              		.fpu softvfp
 925              	lorawan_api_set_deveui:
 926              		@ args = 0, pretend = 0, frame = 0
 927              		@ frame_needed = 0, uses_anonymous_args = 0
 928 0000 70B5     		push	{r4, r5, r6, lr}
 929 0002 0500     		movs	r5, r0
 930 0004 0C1E     		subs	r4, r1, #0
 931 0006 05D0     		beq	.L171
 932 0008 A321     		movs	r1, #163
 933 000a 064A     		ldr	r2, .L175
 934 000c 0648     		ldr	r0, .L175+4
 935 000e 4900     		lsls	r1, r1, #1
 936 0010 FFF7FEFF 		bl	smtc_modem_hal_on_panic
 937              	.L171:
 938              		@ sp needed
 939 0014 2800     		movs	r0, r5
 940 0016 2100     		movs	r1, r4
 941 0018 FFF7FEFF 		bl	smtc_secure_element_set_deveui
 942 001c 431E     		subs	r3, r0, #1
 943 001e 9841     		sbcs	r0, r0, r3
 944 0020 4042     		rsbs	r0, r0, #0
 945 0022 70BD     		pop	{r4, r5, r6, pc}
 946              	.L176:
 947              		.align	2
 948              	.L175:
 949 0024 00000000 		.word	.LC0
 950 0028 00000000 		.word	.LANCHOR25
 952              		.section	.text.lorawan_api_get_joineui,"ax",%progbits
 953              		.align	1
 954              		.global	lorawan_api_get_joineui
 955              		.syntax unified
 956              		.code	16
ARM GAS  /tmp/ccg54bqa.s 			page 17


 957              		.thumb_func
 958              		.fpu softvfp
 960              	lorawan_api_get_joineui:
 961              		@ args = 0, pretend = 0, frame = 0
 962              		@ frame_needed = 0, uses_anonymous_args = 0
 963 0000 70B5     		push	{r4, r5, r6, lr}
 964 0002 0500     		movs	r5, r0
 965 0004 0C1E     		subs	r4, r1, #0
 966 0006 05D0     		beq	.L178
 967 0008 A921     		movs	r1, #169
 968 000a 064A     		ldr	r2, .L182
 969 000c 0648     		ldr	r0, .L182+4
 970 000e 4900     		lsls	r1, r1, #1
 971 0010 FFF7FEFF 		bl	smtc_modem_hal_on_panic
 972              	.L178:
 973              		@ sp needed
 974 0014 2800     		movs	r0, r5
 975 0016 2100     		movs	r1, r4
 976 0018 FFF7FEFF 		bl	smtc_secure_element_get_joineui
 977 001c 431E     		subs	r3, r0, #1
 978 001e 9841     		sbcs	r0, r0, r3
 979 0020 4042     		rsbs	r0, r0, #0
 980 0022 70BD     		pop	{r4, r5, r6, pc}
 981              	.L183:
 982              		.align	2
 983              	.L182:
 984 0024 00000000 		.word	.LC0
 985 0028 00000000 		.word	.LANCHOR26
 987              		.section	.text.lorawan_api_set_joineui,"ax",%progbits
 988              		.align	1
 989              		.global	lorawan_api_set_joineui
 990              		.syntax unified
 991              		.code	16
 992              		.thumb_func
 993              		.fpu softvfp
 995              	lorawan_api_set_joineui:
 996              		@ args = 0, pretend = 0, frame = 0
 997              		@ frame_needed = 0, uses_anonymous_args = 0
 998 0000 70B5     		push	{r4, r5, r6, lr}
 999 0002 0500     		movs	r5, r0
 1000 0004 0C1E     		subs	r4, r1, #0
 1001 0006 05D0     		beq	.L185
 1002 0008 5E21     		movs	r1, #94
 1003 000a 064A     		ldr	r2, .L189
 1004 000c 0648     		ldr	r0, .L189+4
 1005 000e FF31     		adds	r1, r1, #255
 1006 0010 FFF7FEFF 		bl	smtc_modem_hal_on_panic
 1007              	.L185:
 1008              		@ sp needed
 1009 0014 2800     		movs	r0, r5
 1010 0016 2100     		movs	r1, r4
 1011 0018 FFF7FEFF 		bl	smtc_secure_element_set_joineui
 1012 001c 431E     		subs	r3, r0, #1
 1013 001e 9841     		sbcs	r0, r0, r3
 1014 0020 4042     		rsbs	r0, r0, #0
 1015 0022 70BD     		pop	{r4, r5, r6, pc}
 1016              	.L190:
ARM GAS  /tmp/ccg54bqa.s 			page 18


 1017              		.align	2
 1018              	.L189:
 1019 0024 00000000 		.word	.LC0
 1020 0028 00000000 		.word	.LANCHOR27
 1022              		.section	.text.lorawan_api_set_appkey,"ax",%progbits
 1023              		.align	1
 1024              		.global	lorawan_api_set_appkey
 1025              		.syntax unified
 1026              		.code	16
 1027              		.thumb_func
 1028              		.fpu softvfp
 1030              	lorawan_api_set_appkey:
 1031              		@ args = 0, pretend = 0, frame = 0
 1032              		@ frame_needed = 0, uses_anonymous_args = 0
 1033 0000 70B5     		push	{r4, r5, r6, lr}
 1034 0002 0500     		movs	r5, r0
 1035 0004 0C1E     		subs	r4, r1, #0
 1036 0006 05D0     		beq	.L192
 1037 0008 B421     		movs	r1, #180
 1038 000a 074A     		ldr	r2, .L196
 1039 000c 0748     		ldr	r0, .L196+4
 1040 000e 4900     		lsls	r1, r1, #1
 1041 0010 FFF7FEFF 		bl	smtc_modem_hal_on_panic
 1042              	.L192:
 1043              		@ sp needed
 1044 0014 2900     		movs	r1, r5
 1045 0016 2200     		movs	r2, r4
 1046 0018 0020     		movs	r0, #0
 1047 001a FFF7FEFF 		bl	smtc_modem_crypto_set_key
 1048 001e 431E     		subs	r3, r0, #1
 1049 0020 9841     		sbcs	r0, r0, r3
 1050 0022 4042     		rsbs	r0, r0, #0
 1051 0024 70BD     		pop	{r4, r5, r6, pc}
 1052              	.L197:
 1053 0026 C046     		.align	2
 1054              	.L196:
 1055 0028 00000000 		.word	.LC0
 1056 002c 00000000 		.word	.LANCHOR28
 1058              		.section	.text.lorawan_api_set_nwkkey,"ax",%progbits
 1059              		.align	1
 1060              		.global	lorawan_api_set_nwkkey
 1061              		.syntax unified
 1062              		.code	16
 1063              		.thumb_func
 1064              		.fpu softvfp
 1066              	lorawan_api_set_nwkkey:
 1067              		@ args = 0, pretend = 0, frame = 0
 1068              		@ frame_needed = 0, uses_anonymous_args = 0
 1069 0000 70B5     		push	{r4, r5, r6, lr}
 1070 0002 0500     		movs	r5, r0
 1071 0004 0C1E     		subs	r4, r1, #0
 1072 0006 05D0     		beq	.L199
 1073 0008 7421     		movs	r1, #116
 1074 000a 074A     		ldr	r2, .L203
 1075 000c 0748     		ldr	r0, .L203+4
 1076 000e FF31     		adds	r1, r1, #255
 1077 0010 FFF7FEFF 		bl	smtc_modem_hal_on_panic
ARM GAS  /tmp/ccg54bqa.s 			page 19


 1078              	.L199:
 1079              		@ sp needed
 1080 0014 2900     		movs	r1, r5
 1081 0016 2200     		movs	r2, r4
 1082 0018 0120     		movs	r0, #1
 1083 001a FFF7FEFF 		bl	smtc_modem_crypto_set_key
 1084 001e 431E     		subs	r3, r0, #1
 1085 0020 9841     		sbcs	r0, r0, r3
 1086 0022 4042     		rsbs	r0, r0, #0
 1087 0024 70BD     		pop	{r4, r5, r6, pc}
 1088              	.L204:
 1089 0026 C046     		.align	2
 1090              	.L203:
 1091 0028 00000000 		.word	.LC0
 1092 002c 00000000 		.word	.LANCHOR29
 1094              		.section	.text.lorawan_api_next_power_get,"ax",%progbits
 1095              		.align	1
 1096              		.global	lorawan_api_next_power_get
 1097              		.syntax unified
 1098              		.code	16
 1099              		.thumb_func
 1100              		.fpu softvfp
 1102              	lorawan_api_next_power_get:
 1103              		@ args = 0, pretend = 0, frame = 0
 1104              		@ frame_needed = 0, uses_anonymous_args = 0
 1105 0000 10B5     		push	{r4, lr}
 1106 0002 041E     		subs	r4, r0, #0
 1107 0004 05D0     		beq	.L206
 1108 0006 BF21     		movs	r1, #191
 1109 0008 064A     		ldr	r2, .L210
 1110 000a 0748     		ldr	r0, .L210+4
 1111 000c 4900     		lsls	r1, r1, #1
 1112 000e FFF7FEFF 		bl	smtc_modem_hal_on_panic
 1113              	.L206:
 1114              		@ sp needed
 1115 0012 A120     		movs	r0, #161
 1116 0014 C000     		lsls	r0, r0, #3
 1117 0016 6043     		muls	r0, r4
 1118 0018 044B     		ldr	r3, .L210+8
 1119 001a C018     		adds	r0, r0, r3
 1120 001c FFF7FEFF 		bl	lr1mac_core_next_power_get
 1121 0020 10BD     		pop	{r4, pc}
 1122              	.L211:
 1123 0022 C046     		.align	2
 1124              	.L210:
 1125 0024 00000000 		.word	.LC0
 1126 0028 00000000 		.word	.LANCHOR30
 1127 002c 00000000 		.word	lr1mac_core_context
 1129              		.section	.text.lorawan_api_next_dr_get,"ax",%progbits
 1130              		.align	1
 1131              		.global	lorawan_api_next_dr_get
 1132              		.syntax unified
 1133              		.code	16
 1134              		.thumb_func
 1135              		.fpu softvfp
 1137              	lorawan_api_next_dr_get:
 1138              		@ args = 0, pretend = 0, frame = 0
ARM GAS  /tmp/ccg54bqa.s 			page 20


 1139              		@ frame_needed = 0, uses_anonymous_args = 0
 1140 0000 10B5     		push	{r4, lr}
 1141 0002 041E     		subs	r4, r0, #0
 1142 0004 05D0     		beq	.L213
 1143 0006 C221     		movs	r1, #194
 1144 0008 064A     		ldr	r2, .L217
 1145 000a 0748     		ldr	r0, .L217+4
 1146 000c 4900     		lsls	r1, r1, #1
 1147 000e FFF7FEFF 		bl	smtc_modem_hal_on_panic
 1148              	.L213:
 1149              		@ sp needed
 1150 0012 A120     		movs	r0, #161
 1151 0014 C000     		lsls	r0, r0, #3
 1152 0016 6043     		muls	r0, r4
 1153 0018 044B     		ldr	r3, .L217+8
 1154 001a C018     		adds	r0, r0, r3
 1155 001c FFF7FEFF 		bl	lr1mac_core_next_dr_get
 1156 0020 10BD     		pop	{r4, pc}
 1157              	.L218:
 1158 0022 C046     		.align	2
 1159              	.L217:
 1160 0024 00000000 		.word	.LC0
 1161 0028 00000000 		.word	.LANCHOR31
 1162 002c 00000000 		.word	lr1mac_core_context
 1164              		.section	.text.lorawan_api_get_modulation_type_from_datarate,"ax",%progbits
 1165              		.align	1
 1166              		.global	lorawan_api_get_modulation_type_from_datarate
 1167              		.syntax unified
 1168              		.code	16
 1169              		.thumb_func
 1170              		.fpu softvfp
 1172              	lorawan_api_get_modulation_type_from_datarate:
 1173              		@ args = 0, pretend = 0, frame = 0
 1174              		@ frame_needed = 0, uses_anonymous_args = 0
 1175 0000 70B5     		push	{r4, r5, r6, lr}
 1176 0002 0400     		movs	r4, r0
 1177 0004 0D00     		movs	r5, r1
 1178 0006 0028     		cmp	r0, #0
 1179 0008 05D0     		beq	.L220
 1180 000a C521     		movs	r1, #197
 1181 000c 064A     		ldr	r2, .L224
 1182 000e 0748     		ldr	r0, .L224+4
 1183 0010 4900     		lsls	r1, r1, #1
 1184 0012 FFF7FEFF 		bl	smtc_modem_hal_on_panic
 1185              	.L220:
 1186              		@ sp needed
 1187 0016 A120     		movs	r0, #161
 1188 0018 C000     		lsls	r0, r0, #3
 1189 001a 4443     		muls	r4, r0
 1190 001c 044B     		ldr	r3, .L224+8
 1191 001e 2900     		movs	r1, r5
 1192 0020 E058     		ldr	r0, [r4, r3]
 1193 0022 FFF7FEFF 		bl	smtc_real_get_modulation_type_from_datarate
 1194 0026 70BD     		pop	{r4, r5, r6, pc}
 1195              	.L225:
 1196              		.align	2
 1197              	.L224:
ARM GAS  /tmp/ccg54bqa.s 			page 21


 1198 0028 00000000 		.word	.LC0
 1199 002c 00000000 		.word	.LANCHOR32
 1200 0030 00000000 		.word	lr1mac_core_context
 1202              		.section	.text.lorawan_api_next_frequency_get,"ax",%progbits
 1203              		.align	1
 1204              		.global	lorawan_api_next_frequency_get
 1205              		.syntax unified
 1206              		.code	16
 1207              		.thumb_func
 1208              		.fpu softvfp
 1210              	lorawan_api_next_frequency_get:
 1211              		@ args = 0, pretend = 0, frame = 0
 1212              		@ frame_needed = 0, uses_anonymous_args = 0
 1213 0000 10B5     		push	{r4, lr}
 1214 0002 041E     		subs	r4, r0, #0
 1215 0004 05D0     		beq	.L227
 1216 0006 C821     		movs	r1, #200
 1217 0008 064A     		ldr	r2, .L231
 1218 000a 0748     		ldr	r0, .L231+4
 1219 000c 4900     		lsls	r1, r1, #1
 1220 000e FFF7FEFF 		bl	smtc_modem_hal_on_panic
 1221              	.L227:
 1222              		@ sp needed
 1223 0012 A120     		movs	r0, #161
 1224 0014 C000     		lsls	r0, r0, #3
 1225 0016 6043     		muls	r0, r4
 1226 0018 044B     		ldr	r3, .L231+8
 1227 001a C018     		adds	r0, r0, r3
 1228 001c FFF7FEFF 		bl	lr1mac_core_next_frequency_get
 1229 0020 10BD     		pop	{r4, pc}
 1230              	.L232:
 1231 0022 C046     		.align	2
 1232              	.L231:
 1233 0024 00000000 		.word	.LC0
 1234 0028 00000000 		.word	.LANCHOR33
 1235 002c 00000000 		.word	lr1mac_core_context
 1237              		.section	.text.lorawan_api_max_tx_dr_get,"ax",%progbits
 1238              		.align	1
 1239              		.global	lorawan_api_max_tx_dr_get
 1240              		.syntax unified
 1241              		.code	16
 1242              		.thumb_func
 1243              		.fpu softvfp
 1245              	lorawan_api_max_tx_dr_get:
 1246              		@ args = 0, pretend = 0, frame = 0
 1247              		@ frame_needed = 0, uses_anonymous_args = 0
 1248 0000 10B5     		push	{r4, lr}
 1249 0002 041E     		subs	r4, r0, #0
 1250 0004 05D0     		beq	.L234
 1251 0006 CB21     		movs	r1, #203
 1252 0008 064A     		ldr	r2, .L238
 1253 000a 0748     		ldr	r0, .L238+4
 1254 000c 4900     		lsls	r1, r1, #1
 1255 000e FFF7FEFF 		bl	smtc_modem_hal_on_panic
 1256              	.L234:
 1257              		@ sp needed
 1258 0012 A120     		movs	r0, #161
ARM GAS  /tmp/ccg54bqa.s 			page 22


 1259 0014 C000     		lsls	r0, r0, #3
 1260 0016 4443     		muls	r4, r0
 1261 0018 044B     		ldr	r3, .L238+8
 1262 001a E058     		ldr	r0, [r4, r3]
 1263 001c FFF7FEFF 		bl	smtc_real_get_max_tx_channel_dr
 1264 0020 10BD     		pop	{r4, pc}
 1265              	.L239:
 1266 0022 C046     		.align	2
 1267              	.L238:
 1268 0024 00000000 		.word	.LC0
 1269 0028 00000000 		.word	.LANCHOR34
 1270 002c 00000000 		.word	lr1mac_core_context
 1272              		.section	.text.lorawan_api_mask_tx_dr_channel_up_dwell_time_check,"ax",%progbits
 1273              		.align	1
 1274              		.global	lorawan_api_mask_tx_dr_channel_up_dwell_time_check
 1275              		.syntax unified
 1276              		.code	16
 1277              		.thumb_func
 1278              		.fpu softvfp
 1280              	lorawan_api_mask_tx_dr_channel_up_dwell_time_check:
 1281              		@ args = 0, pretend = 0, frame = 0
 1282              		@ frame_needed = 0, uses_anonymous_args = 0
 1283 0000 10B5     		push	{r4, lr}
 1284 0002 041E     		subs	r4, r0, #0
 1285 0004 05D0     		beq	.L241
 1286 0006 CE21     		movs	r1, #206
 1287 0008 064A     		ldr	r2, .L245
 1288 000a 0748     		ldr	r0, .L245+4
 1289 000c 4900     		lsls	r1, r1, #1
 1290 000e FFF7FEFF 		bl	smtc_modem_hal_on_panic
 1291              	.L241:
 1292              		@ sp needed
 1293 0012 A120     		movs	r0, #161
 1294 0014 C000     		lsls	r0, r0, #3
 1295 0016 4443     		muls	r4, r0
 1296 0018 044B     		ldr	r3, .L245+8
 1297 001a E058     		ldr	r0, [r4, r3]
 1298 001c FFF7FEFF 		bl	smtc_real_mask_tx_dr_channel_up_dwell_time_check
 1299 0020 10BD     		pop	{r4, pc}
 1300              	.L246:
 1301 0022 C046     		.align	2
 1302              	.L245:
 1303 0024 00000000 		.word	.LC0
 1304 0028 00000000 		.word	.LANCHOR35
 1305 002c 00000000 		.word	lr1mac_core_context
 1307              		.section	.text.lorawan_api_min_tx_dr_get,"ax",%progbits
 1308              		.align	1
 1309              		.global	lorawan_api_min_tx_dr_get
 1310              		.syntax unified
 1311              		.code	16
 1312              		.thumb_func
 1313              		.fpu softvfp
 1315              	lorawan_api_min_tx_dr_get:
 1316              		@ args = 0, pretend = 0, frame = 0
 1317              		@ frame_needed = 0, uses_anonymous_args = 0
 1318 0000 10B5     		push	{r4, lr}
 1319 0002 041E     		subs	r4, r0, #0
ARM GAS  /tmp/ccg54bqa.s 			page 23


 1320 0004 05D0     		beq	.L248
 1321 0006 D121     		movs	r1, #209
 1322 0008 064A     		ldr	r2, .L252
 1323 000a 0748     		ldr	r0, .L252+4
 1324 000c 4900     		lsls	r1, r1, #1
 1325 000e FFF7FEFF 		bl	smtc_modem_hal_on_panic
 1326              	.L248:
 1327              		@ sp needed
 1328 0012 A120     		movs	r0, #161
 1329 0014 C000     		lsls	r0, r0, #3
 1330 0016 4443     		muls	r4, r0
 1331 0018 044B     		ldr	r3, .L252+8
 1332 001a E058     		ldr	r0, [r4, r3]
 1333 001c FFF7FEFF 		bl	smtc_real_get_min_tx_channel_dr
 1334 0020 10BD     		pop	{r4, pc}
 1335              	.L253:
 1336 0022 C046     		.align	2
 1337              	.L252:
 1338 0024 00000000 		.word	.LC0
 1339 0028 00000000 		.word	.LANCHOR36
 1340 002c 00000000 		.word	lr1mac_core_context
 1342              		.section	.text.lorawan_api_state_get,"ax",%progbits
 1343              		.align	1
 1344              		.global	lorawan_api_state_get
 1345              		.syntax unified
 1346              		.code	16
 1347              		.thumb_func
 1348              		.fpu softvfp
 1350              	lorawan_api_state_get:
 1351              		@ args = 0, pretend = 0, frame = 0
 1352              		@ frame_needed = 0, uses_anonymous_args = 0
 1353 0000 10B5     		push	{r4, lr}
 1354 0002 041E     		subs	r4, r0, #0
 1355 0004 05D0     		beq	.L255
 1356 0006 D421     		movs	r1, #212
 1357 0008 064A     		ldr	r2, .L259
 1358 000a 0748     		ldr	r0, .L259+4
 1359 000c 4900     		lsls	r1, r1, #1
 1360 000e FFF7FEFF 		bl	smtc_modem_hal_on_panic
 1361              	.L255:
 1362              		@ sp needed
 1363 0012 A120     		movs	r0, #161
 1364 0014 C000     		lsls	r0, r0, #3
 1365 0016 6043     		muls	r0, r4
 1366 0018 044B     		ldr	r3, .L259+8
 1367 001a C018     		adds	r0, r0, r3
 1368 001c FFF7FEFF 		bl	lr1mac_core_state_get
 1369 0020 10BD     		pop	{r4, pc}
 1370              	.L260:
 1371 0022 C046     		.align	2
 1372              	.L259:
 1373 0024 00000000 		.word	.LC0
 1374 0028 00000000 		.word	.LANCHOR37
 1375 002c 00000000 		.word	lr1mac_core_context
 1377              		.section	.text.lorawan_api_devnonce_get,"ax",%progbits
 1378              		.align	1
 1379              		.global	lorawan_api_devnonce_get
ARM GAS  /tmp/ccg54bqa.s 			page 24


 1380              		.syntax unified
 1381              		.code	16
 1382              		.thumb_func
 1383              		.fpu softvfp
 1385              	lorawan_api_devnonce_get:
 1386              		@ args = 0, pretend = 0, frame = 0
 1387              		@ frame_needed = 0, uses_anonymous_args = 0
 1388 0000 10B5     		push	{r4, lr}
 1389 0002 041E     		subs	r4, r0, #0
 1390 0004 05D0     		beq	.L262
 1391 0006 D721     		movs	r1, #215
 1392 0008 064A     		ldr	r2, .L266
 1393 000a 0748     		ldr	r0, .L266+4
 1394 000c 4900     		lsls	r1, r1, #1
 1395 000e FFF7FEFF 		bl	smtc_modem_hal_on_panic
 1396              	.L262:
 1397              		@ sp needed
 1398 0012 A120     		movs	r0, #161
 1399 0014 C000     		lsls	r0, r0, #3
 1400 0016 6043     		muls	r0, r4
 1401 0018 044B     		ldr	r3, .L266+8
 1402 001a C018     		adds	r0, r0, r3
 1403 001c FFF7FEFF 		bl	lr1mac_core_devnonce_get
 1404 0020 10BD     		pop	{r4, pc}
 1405              	.L267:
 1406 0022 C046     		.align	2
 1407              	.L266:
 1408 0024 00000000 		.word	.LC0
 1409 0028 00000000 		.word	.LANCHOR38
 1410 002c 00000000 		.word	lr1mac_core_context
 1412              		.section	.text.lorawan_api_next_join_time_second_get,"ax",%progbits
 1413              		.align	1
 1414              		.global	lorawan_api_next_join_time_second_get
 1415              		.syntax unified
 1416              		.code	16
 1417              		.thumb_func
 1418              		.fpu softvfp
 1420              	lorawan_api_next_join_time_second_get:
 1421              		@ args = 0, pretend = 0, frame = 0
 1422              		@ frame_needed = 0, uses_anonymous_args = 0
 1423 0000 10B5     		push	{r4, lr}
 1424 0002 041E     		subs	r4, r0, #0
 1425 0004 05D0     		beq	.L269
 1426 0006 DA21     		movs	r1, #218
 1427 0008 064A     		ldr	r2, .L273
 1428 000a 0748     		ldr	r0, .L273+4
 1429 000c 4900     		lsls	r1, r1, #1
 1430 000e FFF7FEFF 		bl	smtc_modem_hal_on_panic
 1431              	.L269:
 1432              		@ sp needed
 1433 0012 A120     		movs	r0, #161
 1434 0014 C000     		lsls	r0, r0, #3
 1435 0016 6043     		muls	r0, r4
 1436 0018 044B     		ldr	r3, .L273+8
 1437 001a C018     		adds	r0, r0, r3
 1438 001c FFF7FEFF 		bl	lr1mac_core_next_join_time_second_get
 1439 0020 10BD     		pop	{r4, pc}
ARM GAS  /tmp/ccg54bqa.s 			page 25


 1440              	.L274:
 1441 0022 C046     		.align	2
 1442              	.L273:
 1443 0024 00000000 		.word	.LC0
 1444 0028 00000000 		.word	.LANCHOR39
 1445 002c 00000000 		.word	lr1mac_core_context
 1447              		.section	.text.lorawan_api_is_dtc_supported,"ax",%progbits
 1448              		.align	1
 1449              		.global	lorawan_api_is_dtc_supported
 1450              		.syntax unified
 1451              		.code	16
 1452              		.thumb_func
 1453              		.fpu softvfp
 1455              	lorawan_api_is_dtc_supported:
 1456              		@ args = 0, pretend = 0, frame = 0
 1457              		@ frame_needed = 0, uses_anonymous_args = 0
 1458 0000 10B5     		push	{r4, lr}
 1459 0002 041E     		subs	r4, r0, #0
 1460 0004 05D0     		beq	.L276
 1461 0006 DD21     		movs	r1, #221
 1462 0008 064A     		ldr	r2, .L280
 1463 000a 0748     		ldr	r0, .L280+4
 1464 000c 4900     		lsls	r1, r1, #1
 1465 000e FFF7FEFF 		bl	smtc_modem_hal_on_panic
 1466              	.L276:
 1467              		@ sp needed
 1468 0012 A120     		movs	r0, #161
 1469 0014 C000     		lsls	r0, r0, #3
 1470 0016 4443     		muls	r4, r0
 1471 0018 044B     		ldr	r3, .L280+8
 1472 001a E058     		ldr	r0, [r4, r3]
 1473 001c FFF7FEFF 		bl	smtc_real_is_dtc_supported
 1474 0020 10BD     		pop	{r4, pc}
 1475              	.L281:
 1476 0022 C046     		.align	2
 1477              	.L280:
 1478 0024 00000000 		.word	.LC0
 1479 0028 00000000 		.word	.LANCHOR40
 1480 002c 00000000 		.word	lr1mac_core_context
 1482              		.section	.text.lorawan_api_next_network_free_duty_cycle_ms_get,"ax",%progbits
 1483              		.align	1
 1484              		.global	lorawan_api_next_network_free_duty_cycle_ms_get
 1485              		.syntax unified
 1486              		.code	16
 1487              		.thumb_func
 1488              		.fpu softvfp
 1490              	lorawan_api_next_network_free_duty_cycle_ms_get:
 1491              		@ args = 0, pretend = 0, frame = 0
 1492              		@ frame_needed = 0, uses_anonymous_args = 0
 1493 0000 10B5     		push	{r4, lr}
 1494 0002 041E     		subs	r4, r0, #0
 1495 0004 05D0     		beq	.L283
 1496 0006 E021     		movs	r1, #224
 1497 0008 064A     		ldr	r2, .L287
 1498 000a 0748     		ldr	r0, .L287+4
 1499 000c 4900     		lsls	r1, r1, #1
 1500 000e FFF7FEFF 		bl	smtc_modem_hal_on_panic
ARM GAS  /tmp/ccg54bqa.s 			page 26


 1501              	.L283:
 1502              		@ sp needed
 1503 0012 A120     		movs	r0, #161
 1504 0014 C000     		lsls	r0, r0, #3
 1505 0016 6043     		muls	r0, r4
 1506 0018 044B     		ldr	r3, .L287+8
 1507 001a C018     		adds	r0, r0, r3
 1508 001c FFF7FEFF 		bl	lr1_stack_network_next_free_duty_cycle_ms_get
 1509 0020 10BD     		pop	{r4, pc}
 1510              	.L288:
 1511 0022 C046     		.align	2
 1512              	.L287:
 1513 0024 00000000 		.word	.LC0
 1514 0028 00000000 		.word	.LANCHOR41
 1515 002c 00000000 		.word	lr1mac_core_context
 1517              		.section	.text.lorawan_api_fcnt_up_get,"ax",%progbits
 1518              		.align	1
 1519              		.global	lorawan_api_fcnt_up_get
 1520              		.syntax unified
 1521              		.code	16
 1522              		.thumb_func
 1523              		.fpu softvfp
 1525              	lorawan_api_fcnt_up_get:
 1526              		@ args = 0, pretend = 0, frame = 0
 1527              		@ frame_needed = 0, uses_anonymous_args = 0
 1528 0000 10B5     		push	{r4, lr}
 1529 0002 041E     		subs	r4, r0, #0
 1530 0004 05D0     		beq	.L290
 1531 0006 E321     		movs	r1, #227
 1532 0008 064A     		ldr	r2, .L294
 1533 000a 0748     		ldr	r0, .L294+4
 1534 000c 4900     		lsls	r1, r1, #1
 1535 000e FFF7FEFF 		bl	smtc_modem_hal_on_panic
 1536              	.L290:
 1537              		@ sp needed
 1538 0012 A120     		movs	r0, #161
 1539 0014 C000     		lsls	r0, r0, #3
 1540 0016 6043     		muls	r0, r4
 1541 0018 044B     		ldr	r3, .L294+8
 1542 001a C018     		adds	r0, r0, r3
 1543 001c FFF7FEFF 		bl	lr1mac_core_fcnt_up_get
 1544 0020 10BD     		pop	{r4, pc}
 1545              	.L295:
 1546 0022 C046     		.align	2
 1547              	.L294:
 1548 0024 00000000 		.word	.LC0
 1549 0028 00000000 		.word	.LANCHOR42
 1550 002c 00000000 		.word	lr1mac_core_context
 1552              		.section	.text.lorawan_api_multicast_set_group_session_keys,"ax",%progbits
 1553              		.align	1
 1554              		.global	lorawan_api_multicast_set_group_session_keys
 1555              		.syntax unified
 1556              		.code	16
 1557              		.thumb_func
 1558              		.fpu softvfp
 1560              	lorawan_api_multicast_set_group_session_keys:
 1561              		@ args = 0, pretend = 0, frame = 0
ARM GAS  /tmp/ccg54bqa.s 			page 27


 1562              		@ frame_needed = 0, uses_anonymous_args = 0
 1563              		@ link register save eliminated.
 1564 0000 0720     		movs	r0, #7
 1565              		@ sp needed
 1566 0002 7047     		bx	lr
 1568              		.section	.text.lorawan_api_multicast_set_group_address,"ax",%progbits
 1569              		.align	1
 1570              		.global	lorawan_api_multicast_set_group_address
 1571              		.syntax unified
 1572              		.code	16
 1573              		.thumb_func
 1574              		.fpu softvfp
 1576              	lorawan_api_multicast_set_group_address:
 1577              		@ args = 0, pretend = 0, frame = 0
 1578              		@ frame_needed = 0, uses_anonymous_args = 0
 1579 0000 10B5     		push	{r4, lr}
 1580 0002 002A     		cmp	r2, #0
 1581 0004 05D0     		beq	.L298
 1582 0006 FA21     		movs	r1, #250
 1583 0008 034A     		ldr	r2, .L302
 1584 000a 0448     		ldr	r0, .L302+4
 1585 000c FF31     		adds	r1, r1, #255
 1586 000e FFF7FEFF 		bl	smtc_modem_hal_on_panic
 1587              	.L298:
 1588              		@ sp needed
 1589 0012 0720     		movs	r0, #7
 1590 0014 10BD     		pop	{r4, pc}
 1591              	.L303:
 1592 0016 C046     		.align	2
 1593              	.L302:
 1594 0018 00000000 		.word	.LC0
 1595 001c 00000000 		.word	.LANCHOR43
 1597              		.section	.text.lorawan_api_multicast_get_group_address,"ax",%progbits
 1598              		.align	1
 1599              		.global	lorawan_api_multicast_get_group_address
 1600              		.syntax unified
 1601              		.code	16
 1602              		.thumb_func
 1603              		.fpu softvfp
 1605              	lorawan_api_multicast_get_group_address:
 1606              		@ args = 0, pretend = 0, frame = 0
 1607              		@ frame_needed = 0, uses_anonymous_args = 0
 1608 0000 10B5     		push	{r4, lr}
 1609 0002 002A     		cmp	r2, #0
 1610 0004 04D0     		beq	.L305
 1611 0006 034A     		ldr	r2, .L309
 1612 0008 0349     		ldr	r1, .L309+4
 1613 000a 0448     		ldr	r0, .L309+8
 1614 000c FFF7FEFF 		bl	smtc_modem_hal_on_panic
 1615              	.L305:
 1616              		@ sp needed
 1617 0010 0720     		movs	r0, #7
 1618 0012 10BD     		pop	{r4, pc}
 1619              	.L310:
 1620              		.align	2
 1621              	.L309:
 1622 0014 00000000 		.word	.LC0
ARM GAS  /tmp/ccg54bqa.s 			page 28


 1623 0018 05020000 		.word	517
 1624 001c 00000000 		.word	.LANCHOR44
 1626              		.section	.text.lorawan_api_multicast_set_fcnt_down_range,"ax",%progbits
 1627              		.align	1
 1628              		.global	lorawan_api_multicast_set_fcnt_down_range
 1629              		.syntax unified
 1630              		.code	16
 1631              		.thumb_func
 1632              		.fpu softvfp
 1634              	lorawan_api_multicast_set_fcnt_down_range:
 1635              		@ args = 0, pretend = 0, frame = 0
 1636              		@ frame_needed = 0, uses_anonymous_args = 0
 1637 0000 10B5     		push	{r4, lr}
 1638 0002 002B     		cmp	r3, #0
 1639 0004 04D0     		beq	.L312
 1640 0006 034A     		ldr	r2, .L316
 1641 0008 0349     		ldr	r1, .L316+4
 1642 000a 0448     		ldr	r0, .L316+8
 1643 000c FFF7FEFF 		bl	smtc_modem_hal_on_panic
 1644              	.L312:
 1645              		@ sp needed
 1646 0010 0720     		movs	r0, #7
 1647 0012 10BD     		pop	{r4, pc}
 1648              	.L317:
 1649              		.align	2
 1650              	.L316:
 1651 0014 00000000 		.word	.LC0
 1652 0018 11020000 		.word	529
 1653 001c 00000000 		.word	.LANCHOR45
 1655              		.section	.text.lorawan_api_multicast_get_fcnt_down_range,"ax",%progbits
 1656              		.align	1
 1657              		.global	lorawan_api_multicast_get_fcnt_down_range
 1658              		.syntax unified
 1659              		.code	16
 1660              		.thumb_func
 1661              		.fpu softvfp
 1663              	lorawan_api_multicast_get_fcnt_down_range:
 1664              		@ args = 0, pretend = 0, frame = 0
 1665              		@ frame_needed = 0, uses_anonymous_args = 0
 1666 0000 10B5     		push	{r4, lr}
 1667 0002 002B     		cmp	r3, #0
 1668 0004 04D0     		beq	.L319
 1669 0006 034A     		ldr	r2, .L323
 1670 0008 0349     		ldr	r1, .L323+4
 1671 000a 0448     		ldr	r0, .L323+8
 1672 000c FFF7FEFF 		bl	smtc_modem_hal_on_panic
 1673              	.L319:
 1674              		@ sp needed
 1675 0010 0720     		movs	r0, #7
 1676 0012 10BD     		pop	{r4, pc}
 1677              	.L324:
 1678              		.align	2
 1679              	.L323:
 1680 0014 00000000 		.word	.LC0
 1681 0018 1D020000 		.word	541
 1682 001c 00000000 		.word	.LANCHOR46
 1684              		.section	.text.lorawan_api_multicast_derive_group_keys,"ax",%progbits
ARM GAS  /tmp/ccg54bqa.s 			page 29


 1685              		.align	1
 1686              		.global	lorawan_api_multicast_derive_group_keys
 1687              		.syntax unified
 1688              		.code	16
 1689              		.thumb_func
 1690              		.fpu softvfp
 1692              	lorawan_api_multicast_derive_group_keys:
 1693              		@ args = 0, pretend = 0, frame = 0
 1694              		@ frame_needed = 0, uses_anonymous_args = 0
 1695 0000 10B5     		push	{r4, lr}
 1696 0002 002A     		cmp	r2, #0
 1697 0004 04D0     		beq	.L326
 1698 0006 034A     		ldr	r2, .L330
 1699 0008 0349     		ldr	r1, .L330+4
 1700 000a 0448     		ldr	r0, .L330+8
 1701 000c FFF7FEFF 		bl	smtc_modem_hal_on_panic
 1702              	.L326:
 1703              		@ sp needed
 1704 0010 0720     		movs	r0, #7
 1705 0012 10BD     		pop	{r4, pc}
 1706              	.L331:
 1707              		.align	2
 1708              	.L330:
 1709 0014 00000000 		.word	.LC0
 1710 0018 2A020000 		.word	554
 1711 001c 00000000 		.word	.LANCHOR47
 1713              		.section	.text.lorawan_api_multicast_get_running_status,"ax",%progbits
 1714              		.align	1
 1715              		.global	lorawan_api_multicast_get_running_status
 1716              		.syntax unified
 1717              		.code	16
 1718              		.thumb_func
 1719              		.fpu softvfp
 1721              	lorawan_api_multicast_get_running_status:
 1722              		@ args = 0, pretend = 0, frame = 0
 1723              		@ frame_needed = 0, uses_anonymous_args = 0
 1724 0000 10B5     		push	{r4, lr}
 1725 0002 002A     		cmp	r2, #0
 1726 0004 04D0     		beq	.L333
 1727 0006 034A     		ldr	r2, .L337
 1728 0008 0349     		ldr	r1, .L337+4
 1729 000a 0448     		ldr	r0, .L337+8
 1730 000c FFF7FEFF 		bl	smtc_modem_hal_on_panic
 1731              	.L333:
 1732              		@ sp needed
 1733 0010 0720     		movs	r0, #7
 1734 0012 10BD     		pop	{r4, pc}
 1735              	.L338:
 1736              		.align	2
 1737              	.L337:
 1738 0014 00000000 		.word	.LC0
 1739 0018 36020000 		.word	566
 1740 001c 00000000 		.word	.LANCHOR48
 1742              		.section	.text.lorawan_api_multicast_c_get_session_status,"ax",%progbits
 1743              		.align	1
 1744              		.global	lorawan_api_multicast_c_get_session_status
 1745              		.syntax unified
ARM GAS  /tmp/ccg54bqa.s 			page 30


 1746              		.code	16
 1747              		.thumb_func
 1748              		.fpu softvfp
 1750              	lorawan_api_multicast_c_get_session_status:
 1751              		@ args = 4, pretend = 0, frame = 0
 1752              		@ frame_needed = 0, uses_anonymous_args = 0
 1753 0000 10B5     		push	{r4, lr}
 1754 0002 02AB     		add	r3, sp, #8
 1755 0004 1B78     		ldrb	r3, [r3]
 1756 0006 002B     		cmp	r3, #0
 1757 0008 04D0     		beq	.L340
 1758 000a 034A     		ldr	r2, .L344
 1759 000c 0349     		ldr	r1, .L344+4
 1760 000e 0448     		ldr	r0, .L344+8
 1761 0010 FFF7FEFF 		bl	smtc_modem_hal_on_panic
 1762              	.L340:
 1763              		@ sp needed
 1764 0014 0720     		movs	r0, #7
 1765 0016 10BD     		pop	{r4, pc}
 1766              	.L345:
 1767              		.align	2
 1768              	.L344:
 1769 0018 00000000 		.word	.LC0
 1770 001c 42020000 		.word	578
 1771 0020 00000000 		.word	.LANCHOR49
 1773              		.section	.text.lorawan_api_multicast_c_start_session,"ax",%progbits
 1774              		.align	1
 1775              		.global	lorawan_api_multicast_c_start_session
 1776              		.syntax unified
 1777              		.code	16
 1778              		.thumb_func
 1779              		.fpu softvfp
 1781              	lorawan_api_multicast_c_start_session:
 1782              		@ args = 0, pretend = 0, frame = 0
 1783              		@ frame_needed = 0, uses_anonymous_args = 0
 1784 0000 10B5     		push	{r4, lr}
 1785 0002 002B     		cmp	r3, #0
 1786 0004 04D0     		beq	.L347
 1787 0006 034A     		ldr	r2, .L351
 1788 0008 0349     		ldr	r1, .L351+4
 1789 000a 0448     		ldr	r0, .L351+8
 1790 000c FFF7FEFF 		bl	smtc_modem_hal_on_panic
 1791              	.L347:
 1792              		@ sp needed
 1793 0010 0720     		movs	r0, #7
 1794 0012 10BD     		pop	{r4, pc}
 1795              	.L352:
 1796              		.align	2
 1797              	.L351:
 1798 0014 00000000 		.word	.LC0
 1799 0018 4F020000 		.word	591
 1800 001c 00000000 		.word	.LANCHOR50
 1802              		.section	.text.lorawan_api_multicast_c_stop_session,"ax",%progbits
 1803              		.align	1
 1804              		.global	lorawan_api_multicast_c_stop_session
 1805              		.syntax unified
 1806              		.code	16
ARM GAS  /tmp/ccg54bqa.s 			page 31


 1807              		.thumb_func
 1808              		.fpu softvfp
 1810              	lorawan_api_multicast_c_stop_session:
 1811              		@ args = 0, pretend = 0, frame = 0
 1812              		@ frame_needed = 0, uses_anonymous_args = 0
 1813 0000 10B5     		push	{r4, lr}
 1814 0002 0029     		cmp	r1, #0
 1815 0004 04D0     		beq	.L354
 1816 0006 034A     		ldr	r2, .L358
 1817 0008 0349     		ldr	r1, .L358+4
 1818 000a 0448     		ldr	r0, .L358+8
 1819 000c FFF7FEFF 		bl	smtc_modem_hal_on_panic
 1820              	.L354:
 1821              		@ sp needed
 1822 0010 0720     		movs	r0, #7
 1823 0012 10BD     		pop	{r4, pc}
 1824              	.L359:
 1825              		.align	2
 1826              	.L358:
 1827 0014 00000000 		.word	.LC0
 1828 0018 5B020000 		.word	603
 1829 001c 00000000 		.word	.LANCHOR51
 1831              		.section	.text.lorawan_api_multicast_c_stop_all_sessions,"ax",%progbits
 1832              		.align	1
 1833              		.global	lorawan_api_multicast_c_stop_all_sessions
 1834              		.syntax unified
 1835              		.code	16
 1836              		.thumb_func
 1837              		.fpu softvfp
 1839              	lorawan_api_multicast_c_stop_all_sessions:
 1840              		@ args = 0, pretend = 0, frame = 0
 1841              		@ frame_needed = 0, uses_anonymous_args = 0
 1842 0000 10B5     		push	{r4, lr}
 1843 0002 0028     		cmp	r0, #0
 1844 0004 04D0     		beq	.L361
 1845 0006 034A     		ldr	r2, .L365
 1846 0008 0349     		ldr	r1, .L365+4
 1847 000a 0448     		ldr	r0, .L365+8
 1848 000c FFF7FEFF 		bl	smtc_modem_hal_on_panic
 1849              	.L361:
 1850              		@ sp needed
 1851 0010 0720     		movs	r0, #7
 1852 0012 10BD     		pop	{r4, pc}
 1853              	.L366:
 1854              		.align	2
 1855              	.L365:
 1856 0014 00000000 		.word	.LC0
 1857 0018 65020000 		.word	613
 1858 001c 00000000 		.word	.LANCHOR52
 1860              		.section	.text.lorawan_api_multicast_b_get_session_status,"ax",%progbits
 1861              		.align	1
 1862              		.global	lorawan_api_multicast_b_get_session_status
 1863              		.syntax unified
 1864              		.code	16
 1865              		.thumb_func
 1866              		.fpu softvfp
 1868              	lorawan_api_multicast_b_get_session_status:
ARM GAS  /tmp/ccg54bqa.s 			page 32


 1869              		@ args = 12, pretend = 0, frame = 0
 1870              		@ frame_needed = 0, uses_anonymous_args = 0
 1871 0000 10B5     		push	{r4, lr}
 1872 0002 04AB     		add	r3, sp, #16
 1873 0004 1B78     		ldrb	r3, [r3]
 1874 0006 002B     		cmp	r3, #0
 1875 0008 04D0     		beq	.L368
 1876 000a 034A     		ldr	r2, .L372
 1877 000c 0349     		ldr	r1, .L372+4
 1878 000e 0448     		ldr	r0, .L372+8
 1879 0010 FFF7FEFF 		bl	smtc_modem_hal_on_panic
 1880              	.L368:
 1881              		@ sp needed
 1882 0014 0720     		movs	r0, #7
 1883 0016 10BD     		pop	{r4, pc}
 1884              	.L373:
 1885              		.align	2
 1886              	.L372:
 1887 0018 00000000 		.word	.LC0
 1888 001c 72020000 		.word	626
 1889 0020 00000000 		.word	.LANCHOR53
 1891              		.section	.text.lorawan_api_multicast_b_start_session,"ax",%progbits
 1892              		.align	1
 1893              		.global	lorawan_api_multicast_b_start_session
 1894              		.syntax unified
 1895              		.code	16
 1896              		.thumb_func
 1897              		.fpu softvfp
 1899              	lorawan_api_multicast_b_start_session:
 1900              		@ args = 4, pretend = 0, frame = 0
 1901              		@ frame_needed = 0, uses_anonymous_args = 0
 1902 0000 10B5     		push	{r4, lr}
 1903 0002 02AB     		add	r3, sp, #8
 1904 0004 1B78     		ldrb	r3, [r3]
 1905 0006 002B     		cmp	r3, #0
 1906 0008 04D0     		beq	.L375
 1907 000a 034A     		ldr	r2, .L379
 1908 000c 0349     		ldr	r1, .L379+4
 1909 000e 0448     		ldr	r0, .L379+8
 1910 0010 FFF7FEFF 		bl	smtc_modem_hal_on_panic
 1911              	.L375:
 1912              		@ sp needed
 1913 0014 0720     		movs	r0, #7
 1914 0016 10BD     		pop	{r4, pc}
 1915              	.L380:
 1916              		.align	2
 1917              	.L379:
 1918 0018 00000000 		.word	.LC0
 1919 001c 7F020000 		.word	639
 1920 0020 00000000 		.word	.LANCHOR54
 1922              		.section	.text.lorawan_api_multicast_b_stop_session,"ax",%progbits
 1923              		.align	1
 1924              		.global	lorawan_api_multicast_b_stop_session
 1925              		.syntax unified
 1926              		.code	16
 1927              		.thumb_func
 1928              		.fpu softvfp
ARM GAS  /tmp/ccg54bqa.s 			page 33


 1930              	lorawan_api_multicast_b_stop_session:
 1931              		@ args = 0, pretend = 0, frame = 0
 1932              		@ frame_needed = 0, uses_anonymous_args = 0
 1933 0000 10B5     		push	{r4, lr}
 1934 0002 0029     		cmp	r1, #0
 1935 0004 04D0     		beq	.L382
 1936 0006 034A     		ldr	r2, .L386
 1937 0008 0349     		ldr	r1, .L386+4
 1938 000a 0448     		ldr	r0, .L386+8
 1939 000c FFF7FEFF 		bl	smtc_modem_hal_on_panic
 1940              	.L382:
 1941              		@ sp needed
 1942 0010 0720     		movs	r0, #7
 1943 0012 10BD     		pop	{r4, pc}
 1944              	.L387:
 1945              		.align	2
 1946              	.L386:
 1947 0014 00000000 		.word	.LC0
 1948 0018 8A020000 		.word	650
 1949 001c 00000000 		.word	.LANCHOR55
 1951              		.section	.text.lorawan_api_multicast_b_stop_all_sessions,"ax",%progbits
 1952              		.align	1
 1953              		.global	lorawan_api_multicast_b_stop_all_sessions
 1954              		.syntax unified
 1955              		.code	16
 1956              		.thumb_func
 1957              		.fpu softvfp
 1959              	lorawan_api_multicast_b_stop_all_sessions:
 1960              		@ args = 0, pretend = 0, frame = 0
 1961              		@ frame_needed = 0, uses_anonymous_args = 0
 1962 0000 10B5     		push	{r4, lr}
 1963 0002 0028     		cmp	r0, #0
 1964 0004 05D0     		beq	.L389
 1965 0006 A521     		movs	r1, #165
 1966 0008 034A     		ldr	r2, .L393
 1967 000a 0448     		ldr	r0, .L393+4
 1968 000c 8900     		lsls	r1, r1, #2
 1969 000e FFF7FEFF 		bl	smtc_modem_hal_on_panic
 1970              	.L389:
 1971              		@ sp needed
 1972 0012 0720     		movs	r0, #7
 1973 0014 10BD     		pop	{r4, pc}
 1974              	.L394:
 1975 0016 C046     		.align	2
 1976              	.L393:
 1977 0018 00000000 		.word	.LC0
 1978 001c 00000000 		.word	.LANCHOR56
 1980              		.section	.text.lorawan_api_set_no_rx_packet_threshold,"ax",%progbits
 1981              		.align	1
 1982              		.global	lorawan_api_set_no_rx_packet_threshold
 1983              		.syntax unified
 1984              		.code	16
 1985              		.thumb_func
 1986              		.fpu softvfp
 1988              	lorawan_api_set_no_rx_packet_threshold:
 1989              		@ args = 0, pretend = 0, frame = 0
 1990              		@ frame_needed = 0, uses_anonymous_args = 0
ARM GAS  /tmp/ccg54bqa.s 			page 34


 1991 0000 70B5     		push	{r4, r5, r6, lr}
 1992 0002 0400     		movs	r4, r0
 1993 0004 0D1E     		subs	r5, r1, #0
 1994 0006 04D0     		beq	.L396
 1995 0008 064A     		ldr	r2, .L400
 1996 000a 0749     		ldr	r1, .L400+4
 1997 000c 0748     		ldr	r0, .L400+8
 1998 000e FFF7FEFF 		bl	smtc_modem_hal_on_panic
 1999              	.L396:
 2000              		@ sp needed
 2001 0012 A120     		movs	r0, #161
 2002 0014 C000     		lsls	r0, r0, #3
 2003 0016 6843     		muls	r0, r5
 2004 0018 0549     		ldr	r1, .L400+12
 2005 001a 4018     		adds	r0, r0, r1
 2006 001c 2100     		movs	r1, r4
 2007 001e FFF7FEFF 		bl	lr1mac_core_set_no_rx_packet_threshold
 2008 0022 70BD     		pop	{r4, r5, r6, pc}
 2009              	.L401:
 2010              		.align	2
 2011              	.L400:
 2012 0024 00000000 		.word	.LC0
 2013 0028 9E020000 		.word	670
 2014 002c 00000000 		.word	.LANCHOR57
 2015 0030 00000000 		.word	lr1mac_core_context
 2017              		.section	.text.lorawan_api_get_no_rx_packet_threshold,"ax",%progbits
 2018              		.align	1
 2019              		.global	lorawan_api_get_no_rx_packet_threshold
 2020              		.syntax unified
 2021              		.code	16
 2022              		.thumb_func
 2023              		.fpu softvfp
 2025              	lorawan_api_get_no_rx_packet_threshold:
 2026              		@ args = 0, pretend = 0, frame = 0
 2027              		@ frame_needed = 0, uses_anonymous_args = 0
 2028 0000 10B5     		push	{r4, lr}
 2029 0002 041E     		subs	r4, r0, #0
 2030 0004 05D0     		beq	.L403
 2031 0006 A921     		movs	r1, #169
 2032 0008 064A     		ldr	r2, .L407
 2033 000a 0748     		ldr	r0, .L407+4
 2034 000c 8900     		lsls	r1, r1, #2
 2035 000e FFF7FEFF 		bl	smtc_modem_hal_on_panic
 2036              	.L403:
 2037              		@ sp needed
 2038 0012 A120     		movs	r0, #161
 2039 0014 C000     		lsls	r0, r0, #3
 2040 0016 6043     		muls	r0, r4
 2041 0018 044B     		ldr	r3, .L407+8
 2042 001a C018     		adds	r0, r0, r3
 2043 001c FFF7FEFF 		bl	lr1mac_core_get_no_rx_packet_threshold
 2044 0020 10BD     		pop	{r4, pc}
 2045              	.L408:
 2046 0022 C046     		.align	2
 2047              	.L407:
 2048 0024 00000000 		.word	.LC0
 2049 0028 00000000 		.word	.LANCHOR58
ARM GAS  /tmp/ccg54bqa.s 			page 35


 2050 002c 00000000 		.word	lr1mac_core_context
 2052              		.section	.text.lorawan_api_get_current_adr_ack_cnt,"ax",%progbits
 2053              		.align	1
 2054              		.global	lorawan_api_get_current_adr_ack_cnt
 2055              		.syntax unified
 2056              		.code	16
 2057              		.thumb_func
 2058              		.fpu softvfp
 2060              	lorawan_api_get_current_adr_ack_cnt:
 2061              		@ args = 0, pretend = 0, frame = 0
 2062              		@ frame_needed = 0, uses_anonymous_args = 0
 2063 0000 10B5     		push	{r4, lr}
 2064 0002 041E     		subs	r4, r0, #0
 2065 0004 04D0     		beq	.L410
 2066 0006 064A     		ldr	r2, .L414
 2067 0008 0649     		ldr	r1, .L414+4
 2068 000a 0748     		ldr	r0, .L414+8
 2069 000c FFF7FEFF 		bl	smtc_modem_hal_on_panic
 2070              	.L410:
 2071              		@ sp needed
 2072 0010 A120     		movs	r0, #161
 2073 0012 C000     		lsls	r0, r0, #3
 2074 0014 6043     		muls	r0, r4
 2075 0016 054B     		ldr	r3, .L414+12
 2076 0018 C018     		adds	r0, r0, r3
 2077 001a FFF7FEFF 		bl	lr1mac_core_get_current_adr_ack_cnt
 2078 001e 10BD     		pop	{r4, pc}
 2079              	.L415:
 2080              		.align	2
 2081              	.L414:
 2082 0020 00000000 		.word	.LC0
 2083 0024 AA020000 		.word	682
 2084 0028 00000000 		.word	.LANCHOR59
 2085 002c 00000000 		.word	lr1mac_core_context
 2087              		.section	.text.lorawan_api_reset_no_rx_packet_in_mobile_mode_cnt,"ax",%progbits
 2088              		.align	1
 2089              		.global	lorawan_api_reset_no_rx_packet_in_mobile_mode_cnt
 2090              		.syntax unified
 2091              		.code	16
 2092              		.thumb_func
 2093              		.fpu softvfp
 2095              	lorawan_api_reset_no_rx_packet_in_mobile_mode_cnt:
 2096              		@ args = 0, pretend = 0, frame = 0
 2097              		@ frame_needed = 0, uses_anonymous_args = 0
 2098 0000 10B5     		push	{r4, lr}
 2099 0002 041E     		subs	r4, r0, #0
 2100 0004 05D0     		beq	.L417
 2101 0006 AC21     		movs	r1, #172
 2102 0008 064A     		ldr	r2, .L421
 2103 000a 0748     		ldr	r0, .L421+4
 2104 000c 8900     		lsls	r1, r1, #2
 2105 000e FFF7FEFF 		bl	smtc_modem_hal_on_panic
 2106              	.L417:
 2107              		@ sp needed
 2108 0012 A120     		movs	r0, #161
 2109 0014 C000     		lsls	r0, r0, #3
 2110 0016 6043     		muls	r0, r4
ARM GAS  /tmp/ccg54bqa.s 			page 36


 2111 0018 044B     		ldr	r3, .L421+8
 2112 001a C018     		adds	r0, r0, r3
 2113 001c FFF7FEFF 		bl	lr1mac_core_reset_no_rx_packet_in_mobile_mode_cnt
 2114 0020 10BD     		pop	{r4, pc}
 2115              	.L422:
 2116 0022 C046     		.align	2
 2117              	.L421:
 2118 0024 00000000 		.word	.LC0
 2119 0028 00000000 		.word	.LANCHOR60
 2120 002c 00000000 		.word	lr1mac_core_context
 2122              		.section	.text.lorawan_api_get_current_no_rx_packet_in_mobile_mode_cnt,"ax",%progbits
 2123              		.align	1
 2124              		.global	lorawan_api_get_current_no_rx_packet_in_mobile_mode_cnt
 2125              		.syntax unified
 2126              		.code	16
 2127              		.thumb_func
 2128              		.fpu softvfp
 2130              	lorawan_api_get_current_no_rx_packet_in_mobile_mode_cnt:
 2131              		@ args = 0, pretend = 0, frame = 0
 2132              		@ frame_needed = 0, uses_anonymous_args = 0
 2133 0000 10B5     		push	{r4, lr}
 2134 0002 041E     		subs	r4, r0, #0
 2135 0004 04D0     		beq	.L424
 2136 0006 064A     		ldr	r2, .L428
 2137 0008 0649     		ldr	r1, .L428+4
 2138 000a 0748     		ldr	r0, .L428+8
 2139 000c FFF7FEFF 		bl	smtc_modem_hal_on_panic
 2140              	.L424:
 2141              		@ sp needed
 2142 0010 A120     		movs	r0, #161
 2143 0012 C000     		lsls	r0, r0, #3
 2144 0014 6043     		muls	r0, r4
 2145 0016 054B     		ldr	r3, .L428+12
 2146 0018 C018     		adds	r0, r0, r3
 2147 001a FFF7FEFF 		bl	lr1mac_core_get_current_no_rx_packet_in_mobile_mode
 2148 001e 10BD     		pop	{r4, pc}
 2149              	.L429:
 2150              		.align	2
 2151              	.L428:
 2152 0020 00000000 		.word	.LC0
 2153 0024 B6020000 		.word	694
 2154 0028 00000000 		.word	.LANCHOR61
 2155 002c 00000000 		.word	lr1mac_core_context
 2157              		.section	.text.lorawan_api_get_current_no_rx_packet_cnt,"ax",%progbits
 2158              		.align	1
 2159              		.global	lorawan_api_get_current_no_rx_packet_cnt
 2160              		.syntax unified
 2161              		.code	16
 2162              		.thumb_func
 2163              		.fpu softvfp
 2165              	lorawan_api_get_current_no_rx_packet_cnt:
 2166              		@ args = 0, pretend = 0, frame = 0
 2167              		@ frame_needed = 0, uses_anonymous_args = 0
 2168 0000 10B5     		push	{r4, lr}
 2169 0002 041E     		subs	r4, r0, #0
 2170 0004 05D0     		beq	.L431
 2171 0006 AF21     		movs	r1, #175
ARM GAS  /tmp/ccg54bqa.s 			page 37


 2172 0008 064A     		ldr	r2, .L435
 2173 000a 0748     		ldr	r0, .L435+4
 2174 000c 8900     		lsls	r1, r1, #2
 2175 000e FFF7FEFF 		bl	smtc_modem_hal_on_panic
 2176              	.L431:
 2177              		@ sp needed
 2178 0012 A120     		movs	r0, #161
 2179 0014 C000     		lsls	r0, r0, #3
 2180 0016 6043     		muls	r0, r4
 2181 0018 044B     		ldr	r3, .L435+8
 2182 001a C018     		adds	r0, r0, r3
 2183 001c FFF7FEFF 		bl	lr1mac_core_get_current_no_rx_packet_cnt
 2184 0020 10BD     		pop	{r4, pc}
 2185              	.L436:
 2186 0022 C046     		.align	2
 2187              	.L435:
 2188 0024 00000000 		.word	.LC0
 2189 0028 00000000 		.word	.LANCHOR62
 2190 002c 00000000 		.word	lr1mac_core_context
 2192              		.section	.text.lorawan_api_get_current_no_rx_packet_cnt_since_s,"ax",%progbits
 2193              		.align	1
 2194              		.global	lorawan_api_get_current_no_rx_packet_cnt_since_s
 2195              		.syntax unified
 2196              		.code	16
 2197              		.thumb_func
 2198              		.fpu softvfp
 2200              	lorawan_api_get_current_no_rx_packet_cnt_since_s:
 2201              		@ args = 0, pretend = 0, frame = 0
 2202              		@ frame_needed = 0, uses_anonymous_args = 0
 2203 0000 10B5     		push	{r4, lr}
 2204 0002 041E     		subs	r4, r0, #0
 2205 0004 04D0     		beq	.L438
 2206 0006 064A     		ldr	r2, .L442
 2207 0008 0649     		ldr	r1, .L442+4
 2208 000a 0748     		ldr	r0, .L442+8
 2209 000c FFF7FEFF 		bl	smtc_modem_hal_on_panic
 2210              	.L438:
 2211              		@ sp needed
 2212 0010 A120     		movs	r0, #161
 2213 0012 C000     		lsls	r0, r0, #3
 2214 0014 6043     		muls	r0, r4
 2215 0016 054B     		ldr	r3, .L442+12
 2216 0018 C018     		adds	r0, r0, r3
 2217 001a FFF7FEFF 		bl	lr1mac_core_get_current_no_rx_packet_cnt_since_s
 2218 001e 10BD     		pop	{r4, pc}
 2219              	.L443:
 2220              		.align	2
 2221              	.L442:
 2222 0020 00000000 		.word	.LC0
 2223 0024 C2020000 		.word	706
 2224 0028 00000000 		.word	.LANCHOR63
 2225 002c 00000000 		.word	lr1mac_core_context
 2227              		.section	.text.lorawan_api_join_duty_cycle_backoff_bypass_get,"ax",%progbits
 2228              		.align	1
 2229              		.global	lorawan_api_join_duty_cycle_backoff_bypass_get
 2230              		.syntax unified
 2231              		.code	16
ARM GAS  /tmp/ccg54bqa.s 			page 38


 2232              		.thumb_func
 2233              		.fpu softvfp
 2235              	lorawan_api_join_duty_cycle_backoff_bypass_get:
 2236              		@ args = 0, pretend = 0, frame = 0
 2237              		@ frame_needed = 0, uses_anonymous_args = 0
 2238 0000 A123     		movs	r3, #161
 2239 0002 DB00     		lsls	r3, r3, #3
 2240 0004 10B5     		push	{r4, lr}
 2241 0006 5843     		muls	r0, r3
 2242              		@ sp needed
 2243 0008 024B     		ldr	r3, .L445
 2244 000a C018     		adds	r0, r0, r3
 2245 000c FFF7FEFF 		bl	lr1mac_core_join_duty_cycle_backoff_bypass_get
 2246 0010 10BD     		pop	{r4, pc}
 2247              	.L446:
 2248 0012 C046     		.align	2
 2249              	.L445:
 2250 0014 00000000 		.word	lr1mac_core_context
 2252              		.section	.text.lorawan_api_join_duty_cycle_backoff_bypass_set,"ax",%progbits
 2253              		.align	1
 2254              		.global	lorawan_api_join_duty_cycle_backoff_bypass_set
 2255              		.syntax unified
 2256              		.code	16
 2257              		.thumb_func
 2258              		.fpu softvfp
 2260              	lorawan_api_join_duty_cycle_backoff_bypass_set:
 2261              		@ args = 0, pretend = 0, frame = 0
 2262              		@ frame_needed = 0, uses_anonymous_args = 0
 2263 0000 A123     		movs	r3, #161
 2264 0002 DB00     		lsls	r3, r3, #3
 2265 0004 10B5     		push	{r4, lr}
 2266 0006 5843     		muls	r0, r3
 2267              		@ sp needed
 2268 0008 024B     		ldr	r3, .L448
 2269 000a C018     		adds	r0, r0, r3
 2270 000c FFF7FEFF 		bl	lr1mac_core_join_duty_cycle_backoff_bypass_set
 2271 0010 10BD     		pop	{r4, pc}
 2272              	.L449:
 2273 0012 C046     		.align	2
 2274              	.L448:
 2275 0014 00000000 		.word	lr1mac_core_context
 2277              		.section	.text.lorawan_api_modem_certification_set,"ax",%progbits
 2278              		.align	1
 2279              		.global	lorawan_api_modem_certification_set
 2280              		.syntax unified
 2281              		.code	16
 2282              		.thumb_func
 2283              		.fpu softvfp
 2285              	lorawan_api_modem_certification_set:
 2286              		@ args = 0, pretend = 0, frame = 0
 2287              		@ frame_needed = 0, uses_anonymous_args = 0
 2288 0000 70B5     		push	{r4, r5, r6, lr}
 2289 0002 0400     		movs	r4, r0
 2290 0004 0D1E     		subs	r5, r1, #0
 2291 0006 04D0     		beq	.L451
 2292 0008 064A     		ldr	r2, .L455
 2293 000a 0749     		ldr	r1, .L455+4
ARM GAS  /tmp/ccg54bqa.s 			page 39


 2294 000c 0748     		ldr	r0, .L455+8
 2295 000e FFF7FEFF 		bl	smtc_modem_hal_on_panic
 2296              	.L451:
 2297              		@ sp needed
 2298 0012 A120     		movs	r0, #161
 2299 0014 C000     		lsls	r0, r0, #3
 2300 0016 6843     		muls	r0, r5
 2301 0018 0549     		ldr	r1, .L455+12
 2302 001a 4018     		adds	r0, r0, r1
 2303 001c 2100     		movs	r1, r4
 2304 001e FFF7FEFF 		bl	lr1mac_core_certification_set
 2305 0022 70BD     		pop	{r4, r5, r6, pc}
 2306              	.L456:
 2307              		.align	2
 2308              	.L455:
 2309 0024 00000000 		.word	.LC0
 2310 0028 D2020000 		.word	722
 2311 002c 00000000 		.word	.LANCHOR64
 2312 0030 00000000 		.word	lr1mac_core_context
 2314              		.section	.text.lorawan_api_modem_certification_is_enabled,"ax",%progbits
 2315              		.align	1
 2316              		.global	lorawan_api_modem_certification_is_enabled
 2317              		.syntax unified
 2318              		.code	16
 2319              		.thumb_func
 2320              		.fpu softvfp
 2322              	lorawan_api_modem_certification_is_enabled:
 2323              		@ args = 0, pretend = 0, frame = 0
 2324              		@ frame_needed = 0, uses_anonymous_args = 0
 2325 0000 10B5     		push	{r4, lr}
 2326 0002 041E     		subs	r4, r0, #0
 2327 0004 05D0     		beq	.L458
 2328 0006 B621     		movs	r1, #182
 2329 0008 064A     		ldr	r2, .L462
 2330 000a 0748     		ldr	r0, .L462+4
 2331 000c 8900     		lsls	r1, r1, #2
 2332 000e FFF7FEFF 		bl	smtc_modem_hal_on_panic
 2333              	.L458:
 2334              		@ sp needed
 2335 0012 A120     		movs	r0, #161
 2336 0014 C000     		lsls	r0, r0, #3
 2337 0016 6043     		muls	r0, r4
 2338 0018 044B     		ldr	r3, .L462+8
 2339 001a C018     		adds	r0, r0, r3
 2340 001c FFF7FEFF 		bl	lr1mac_core_certification_get
 2341 0020 10BD     		pop	{r4, pc}
 2342              	.L463:
 2343 0022 C046     		.align	2
 2344              	.L462:
 2345 0024 00000000 		.word	.LC0
 2346 0028 00000000 		.word	.LANCHOR65
 2347 002c 00000000 		.word	lr1mac_core_context
 2349              		.section	.text.lorawan_api_available_link_adr_get,"ax",%progbits
 2350              		.align	1
 2351              		.global	lorawan_api_available_link_adr_get
 2352              		.syntax unified
 2353              		.code	16
ARM GAS  /tmp/ccg54bqa.s 			page 40


 2354              		.thumb_func
 2355              		.fpu softvfp
 2357              	lorawan_api_available_link_adr_get:
 2358              		@ args = 0, pretend = 0, frame = 0
 2359              		@ frame_needed = 0, uses_anonymous_args = 0
 2360 0000 10B5     		push	{r4, lr}
 2361 0002 041E     		subs	r4, r0, #0
 2362 0004 05D0     		beq	.L465
 2363 0006 B921     		movs	r1, #185
 2364 0008 064A     		ldr	r2, .L469
 2365 000a 0748     		ldr	r0, .L469+4
 2366 000c 8900     		lsls	r1, r1, #2
 2367 000e FFF7FEFF 		bl	smtc_modem_hal_on_panic
 2368              	.L465:
 2369              		@ sp needed
 2370 0012 A120     		movs	r0, #161
 2371 0014 C000     		lsls	r0, r0, #3
 2372 0016 6043     		muls	r0, r4
 2373 0018 044B     		ldr	r3, .L469+8
 2374 001a C018     		adds	r0, r0, r3
 2375 001c FFF7FEFF 		bl	lr1mac_core_available_link_adr_get
 2376 0020 10BD     		pop	{r4, pc}
 2377              	.L470:
 2378 0022 C046     		.align	2
 2379              	.L469:
 2380 0024 00000000 		.word	.LC0
 2381 0028 00000000 		.word	.LANCHOR66
 2382 002c 00000000 		.word	lr1mac_core_context
 2384              		.section	.text.lorawan_api_stack_mac_get,"ax",%progbits
 2385              		.align	1
 2386              		.global	lorawan_api_stack_mac_get
 2387              		.syntax unified
 2388              		.code	16
 2389              		.thumb_func
 2390              		.fpu softvfp
 2392              	lorawan_api_stack_mac_get:
 2393              		@ args = 0, pretend = 0, frame = 0
 2394              		@ frame_needed = 0, uses_anonymous_args = 0
 2395 0000 10B5     		push	{r4, lr}
 2396 0002 041E     		subs	r4, r0, #0
 2397 0004 04D0     		beq	.L472
 2398 0006 054A     		ldr	r2, .L476
 2399 0008 0549     		ldr	r1, .L476+4
 2400 000a 0648     		ldr	r0, .L476+8
 2401 000c FFF7FEFF 		bl	smtc_modem_hal_on_panic
 2402              	.L472:
 2403              		@ sp needed
 2404 0010 A120     		movs	r0, #161
 2405 0012 C000     		lsls	r0, r0, #3
 2406 0014 6043     		muls	r0, r4
 2407 0016 044B     		ldr	r3, .L476+12
 2408 0018 C018     		adds	r0, r0, r3
 2409 001a 10BD     		pop	{r4, pc}
 2410              	.L477:
 2411              		.align	2
 2412              	.L476:
 2413 001c 00000000 		.word	.LC0
ARM GAS  /tmp/ccg54bqa.s 			page 41


 2414 0020 E9020000 		.word	745
 2415 0024 00000000 		.word	.LANCHOR67
 2416 0028 00000000 		.word	lr1mac_core_context
 2418              		.section	.text.lorawan_api_set_network_type,"ax",%progbits
 2419              		.align	1
 2420              		.global	lorawan_api_set_network_type
 2421              		.syntax unified
 2422              		.code	16
 2423              		.thumb_func
 2424              		.fpu softvfp
 2426              	lorawan_api_set_network_type:
 2427              		@ args = 0, pretend = 0, frame = 0
 2428              		@ frame_needed = 0, uses_anonymous_args = 0
 2429 0000 F8B5     		push	{r3, r4, r5, r6, r7, lr}
 2430 0002 0700     		movs	r7, r0
 2431 0004 0C1E     		subs	r4, r1, #0
 2432 0006 04D0     		beq	.L479
 2433 0008 0B4A     		ldr	r2, .L486
 2434 000a 0C49     		ldr	r1, .L486+4
 2435 000c 0C48     		ldr	r0, .L486+8
 2436 000e FFF7FEFF 		bl	smtc_modem_hal_on_panic
 2437              	.L479:
 2438 0012 A125     		movs	r5, #161
 2439 0014 ED00     		lsls	r5, r5, #3
 2440 0016 2B00     		movs	r3, r5
 2441 0018 6343     		muls	r3, r4
 2442 001a 0A4E     		ldr	r6, .L486+12
 2443 001c 9859     		ldr	r0, [r3, r6]
 2444 001e 002F     		cmp	r7, #0
 2445 0020 07D0     		beq	.L480
 2446 0022 FFF7FEFF 		bl	smtc_real_get_public_sync_word
 2447              	.L485:
 2448              		@ sp needed
 2449 0026 6C43     		muls	r4, r5
 2450 0028 0100     		movs	r1, r0
 2451 002a 3059     		ldr	r0, [r6, r4]
 2452 002c FFF7FEFF 		bl	smtc_real_set_sync_word
 2453 0030 F8BD     		pop	{r3, r4, r5, r6, r7, pc}
 2454              	.L480:
 2455 0032 FFF7FEFF 		bl	smtc_real_get_private_sync_word
 2456 0036 F6E7     		b	.L485
 2457              	.L487:
 2458              		.align	2
 2459              	.L486:
 2460 0038 00000000 		.word	.LC0
 2461 003c EF020000 		.word	751
 2462 0040 00000000 		.word	.LANCHOR68
 2463 0044 00000000 		.word	lr1mac_core_context
 2465              		.section	.text.lorawan_api_get_network_type,"ax",%progbits
 2466              		.align	1
 2467              		.global	lorawan_api_get_network_type
 2468              		.syntax unified
 2469              		.code	16
 2470              		.thumb_func
 2471              		.fpu softvfp
 2473              	lorawan_api_get_network_type:
 2474              		@ args = 0, pretend = 0, frame = 0
ARM GAS  /tmp/ccg54bqa.s 			page 42


 2475              		@ frame_needed = 0, uses_anonymous_args = 0
 2476 0000 70B5     		push	{r4, r5, r6, lr}
 2477 0002 051E     		subs	r5, r0, #0
 2478 0004 04D0     		beq	.L489
 2479 0006 0A4A     		ldr	r2, .L493
 2480 0008 0A49     		ldr	r1, .L493+4
 2481 000a 0B48     		ldr	r0, .L493+8
 2482 000c FFF7FEFF 		bl	smtc_modem_hal_on_panic
 2483              	.L489:
 2484              		@ sp needed
 2485 0010 A124     		movs	r4, #161
 2486 0012 E400     		lsls	r4, r4, #3
 2487 0014 6C43     		muls	r4, r5
 2488 0016 094E     		ldr	r6, .L493+12
 2489 0018 A059     		ldr	r0, [r4, r6]
 2490 001a FFF7FEFF 		bl	smtc_real_get_sync_word
 2491 001e 0500     		movs	r5, r0
 2492 0020 A059     		ldr	r0, [r4, r6]
 2493 0022 FFF7FEFF 		bl	smtc_real_get_public_sync_word
 2494 0026 401B     		subs	r0, r0, r5
 2495 0028 4342     		rsbs	r3, r0, #0
 2496 002a 5841     		adcs	r0, r0, r3
 2497 002c C0B2     		uxtb	r0, r0
 2498 002e 70BD     		pop	{r4, r5, r6, pc}
 2499              	.L494:
 2500              		.align	2
 2501              	.L493:
 2502 0030 00000000 		.word	.LC0
 2503 0034 F7020000 		.word	759
 2504 0038 00000000 		.word	.LANCHOR69
 2505 003c 00000000 		.word	lr1mac_core_context
 2507              		.section	.text.lorawan_api_nb_trans_get,"ax",%progbits
 2508              		.align	1
 2509              		.global	lorawan_api_nb_trans_get
 2510              		.syntax unified
 2511              		.code	16
 2512              		.thumb_func
 2513              		.fpu softvfp
 2515              	lorawan_api_nb_trans_get:
 2516              		@ args = 0, pretend = 0, frame = 0
 2517              		@ frame_needed = 0, uses_anonymous_args = 0
 2518 0000 10B5     		push	{r4, lr}
 2519 0002 041E     		subs	r4, r0, #0
 2520 0004 04D0     		beq	.L496
 2521 0006 064A     		ldr	r2, .L500
 2522 0008 0649     		ldr	r1, .L500+4
 2523 000a 0748     		ldr	r0, .L500+8
 2524 000c FFF7FEFF 		bl	smtc_modem_hal_on_panic
 2525              	.L496:
 2526              		@ sp needed
 2527 0010 A120     		movs	r0, #161
 2528 0012 C000     		lsls	r0, r0, #3
 2529 0014 6043     		muls	r0, r4
 2530 0016 054B     		ldr	r3, .L500+12
 2531 0018 C018     		adds	r0, r0, r3
 2532 001a FFF7FEFF 		bl	lr1_stack_nb_trans_get
 2533 001e 10BD     		pop	{r4, pc}
ARM GAS  /tmp/ccg54bqa.s 			page 43


 2534              	.L501:
 2535              		.align	2
 2536              	.L500:
 2537 0020 00000000 		.word	.LC0
 2538 0024 FE020000 		.word	766
 2539 0028 00000000 		.word	.LANCHOR70
 2540 002c 00000000 		.word	lr1mac_core_context
 2542              		.section	.text.lorawan_api_nb_trans_set,"ax",%progbits
 2543              		.align	1
 2544              		.global	lorawan_api_nb_trans_set
 2545              		.syntax unified
 2546              		.code	16
 2547              		.thumb_func
 2548              		.fpu softvfp
 2550              	lorawan_api_nb_trans_set:
 2551              		@ args = 0, pretend = 0, frame = 0
 2552              		@ frame_needed = 0, uses_anonymous_args = 0
 2553 0000 70B5     		push	{r4, r5, r6, lr}
 2554 0002 0400     		movs	r4, r0
 2555 0004 0D1E     		subs	r5, r1, #0
 2556 0006 05D0     		beq	.L503
 2557 0008 C121     		movs	r1, #193
 2558 000a 074A     		ldr	r2, .L507
 2559 000c 0748     		ldr	r0, .L507+4
 2560 000e 8900     		lsls	r1, r1, #2
 2561 0010 FFF7FEFF 		bl	smtc_modem_hal_on_panic
 2562              	.L503:
 2563              		@ sp needed
 2564 0014 A120     		movs	r0, #161
 2565 0016 C000     		lsls	r0, r0, #3
 2566 0018 6843     		muls	r0, r5
 2567 001a 0549     		ldr	r1, .L507+8
 2568 001c 4018     		adds	r0, r0, r1
 2569 001e 2100     		movs	r1, r4
 2570 0020 FFF7FEFF 		bl	lr1_stack_nb_trans_set
 2571 0024 70BD     		pop	{r4, r5, r6, pc}
 2572              	.L508:
 2573 0026 C046     		.align	2
 2574              	.L507:
 2575 0028 00000000 		.word	.LC0
 2576 002c 00000000 		.word	.LANCHOR71
 2577 0030 00000000 		.word	lr1mac_core_context
 2579              		.section	.text.lorawan_api_get_crystal_error,"ax",%progbits
 2580              		.align	1
 2581              		.global	lorawan_api_get_crystal_error
 2582              		.syntax unified
 2583              		.code	16
 2584              		.thumb_func
 2585              		.fpu softvfp
 2587              	lorawan_api_get_crystal_error:
 2588              		@ args = 0, pretend = 0, frame = 0
 2589              		@ frame_needed = 0, uses_anonymous_args = 0
 2590 0000 10B5     		push	{r4, lr}
 2591 0002 041E     		subs	r4, r0, #0
 2592 0004 04D0     		beq	.L510
 2593 0006 064A     		ldr	r2, .L514
 2594 0008 0649     		ldr	r1, .L514+4
ARM GAS  /tmp/ccg54bqa.s 			page 44


 2595 000a 0748     		ldr	r0, .L514+8
 2596 000c FFF7FEFF 		bl	smtc_modem_hal_on_panic
 2597              	.L510:
 2598              		@ sp needed
 2599 0010 A120     		movs	r0, #161
 2600 0012 C000     		lsls	r0, r0, #3
 2601 0014 6043     		muls	r0, r4
 2602 0016 054B     		ldr	r3, .L514+12
 2603 0018 C018     		adds	r0, r0, r3
 2604 001a FFF7FEFF 		bl	lr1_stack_get_crystal_error
 2605 001e 10BD     		pop	{r4, pc}
 2606              	.L515:
 2607              		.align	2
 2608              	.L514:
 2609 0020 00000000 		.word	.LC0
 2610 0024 0A030000 		.word	778
 2611 0028 00000000 		.word	.LANCHOR72
 2612 002c 00000000 		.word	lr1mac_core_context
 2614              		.section	.text.lorawan_api_set_crystal_error,"ax",%progbits
 2615              		.align	1
 2616              		.global	lorawan_api_set_crystal_error
 2617              		.syntax unified
 2618              		.code	16
 2619              		.thumb_func
 2620              		.fpu softvfp
 2622              	lorawan_api_set_crystal_error:
 2623              		@ args = 0, pretend = 0, frame = 0
 2624              		@ frame_needed = 0, uses_anonymous_args = 0
 2625 0000 70B5     		push	{r4, r5, r6, lr}
 2626 0002 0400     		movs	r4, r0
 2627 0004 0D1E     		subs	r5, r1, #0
 2628 0006 05D0     		beq	.L517
 2629 0008 C421     		movs	r1, #196
 2630 000a 074A     		ldr	r2, .L521
 2631 000c 0748     		ldr	r0, .L521+4
 2632 000e 8900     		lsls	r1, r1, #2
 2633 0010 FFF7FEFF 		bl	smtc_modem_hal_on_panic
 2634              	.L517:
 2635              		@ sp needed
 2636 0014 A120     		movs	r0, #161
 2637 0016 C000     		lsls	r0, r0, #3
 2638 0018 6843     		muls	r0, r5
 2639 001a 0549     		ldr	r1, .L521+8
 2640 001c 4018     		adds	r0, r0, r1
 2641 001e 2100     		movs	r1, r4
 2642 0020 FFF7FEFF 		bl	lr1_stack_set_crystal_error
 2643 0024 70BD     		pop	{r4, r5, r6, pc}
 2644              	.L522:
 2645 0026 C046     		.align	2
 2646              	.L521:
 2647 0028 00000000 		.word	.LC0
 2648 002c 00000000 		.word	.LANCHOR73
 2649 0030 00000000 		.word	lr1mac_core_context
 2651              		.section	.text.lorawan_api_get_spec_version,"ax",%progbits
 2652              		.align	1
 2653              		.global	lorawan_api_get_spec_version
 2654              		.syntax unified
ARM GAS  /tmp/ccg54bqa.s 			page 45


 2655              		.code	16
 2656              		.thumb_func
 2657              		.fpu softvfp
 2659              	lorawan_api_get_spec_version:
 2660              		@ args = 0, pretend = 0, frame = 8
 2661              		@ frame_needed = 0, uses_anonymous_args = 0
 2662 0000 13B5     		push	{r0, r1, r4, lr}
 2663 0002 041E     		subs	r4, r0, #0
 2664 0004 04D0     		beq	.L524
 2665 0006 0D4A     		ldr	r2, .L528
 2666 0008 0D49     		ldr	r1, .L528+4
 2667 000a 0E48     		ldr	r0, .L528+8
 2668 000c FFF7FEFF 		bl	smtc_modem_hal_on_panic
 2669              	.L524:
 2670              		@ sp needed
 2671 0010 A120     		movs	r0, #161
 2672 0012 C000     		lsls	r0, r0, #3
 2673 0014 6043     		muls	r0, r4
 2674 0016 0C4B     		ldr	r3, .L528+12
 2675 0018 FF24     		movs	r4, #255
 2676 001a C018     		adds	r0, r0, r3
 2677 001c FFF7FEFF 		bl	lr1mac_core_get_lorawan_version
 2678 0020 0300     		movs	r3, r0
 2679 0022 010A     		lsrs	r1, r0, #8
 2680 0024 020C     		lsrs	r2, r0, #16
 2681 0026 2140     		ands	r1, r4
 2682 0028 2340     		ands	r3, r4
 2683 002a 0902     		lsls	r1, r1, #8
 2684 002c 2240     		ands	r2, r4
 2685 002e 1204     		lsls	r2, r2, #16
 2686 0030 0B43     		orrs	r3, r1
 2687 0032 000E     		lsrs	r0, r0, #24
 2688 0034 1343     		orrs	r3, r2
 2689 0036 0006     		lsls	r0, r0, #24
 2690 0038 1843     		orrs	r0, r3
 2691 003a 16BD     		pop	{r1, r2, r4, pc}
 2692              	.L529:
 2693              		.align	2
 2694              	.L528:
 2695 003c 00000000 		.word	.LC0
 2696 0040 16030000 		.word	790
 2697 0044 00000000 		.word	.LANCHOR74
 2698 0048 00000000 		.word	lr1mac_core_context
 2700              		.section	.text.lorawan_api_get_regional_parameters_version,"ax",%progbits
 2701              		.align	1
 2702              		.global	lorawan_api_get_regional_parameters_version
 2703              		.syntax unified
 2704              		.code	16
 2705              		.thumb_func
 2706              		.fpu softvfp
 2708              	lorawan_api_get_regional_parameters_version:
 2709              		@ args = 0, pretend = 0, frame = 8
 2710              		@ frame_needed = 0, uses_anonymous_args = 0
 2711 0000 13B5     		push	{r0, r1, r4, lr}
 2712 0002 0028     		cmp	r0, #0
 2713 0004 05D0     		beq	.L531
 2714 0006 C721     		movs	r1, #199
ARM GAS  /tmp/ccg54bqa.s 			page 46


 2715 0008 0A4A     		ldr	r2, .L535
 2716 000a 0B48     		ldr	r0, .L535+4
 2717 000c 8900     		lsls	r1, r1, #2
 2718 000e FFF7FEFF 		bl	smtc_modem_hal_on_panic
 2719              	.L531:
 2720              		@ sp needed
 2721 0012 FFF7FEFF 		bl	smtc_real_get_regional_parameters_version
 2722 0016 FF24     		movs	r4, #255
 2723 0018 0300     		movs	r3, r0
 2724 001a 010A     		lsrs	r1, r0, #8
 2725 001c 020C     		lsrs	r2, r0, #16
 2726 001e 2140     		ands	r1, r4
 2727 0020 2340     		ands	r3, r4
 2728 0022 0902     		lsls	r1, r1, #8
 2729 0024 2240     		ands	r2, r4
 2730 0026 1204     		lsls	r2, r2, #16
 2731 0028 0B43     		orrs	r3, r1
 2732 002a 000E     		lsrs	r0, r0, #24
 2733 002c 1343     		orrs	r3, r2
 2734 002e 0006     		lsls	r0, r0, #24
 2735 0030 1843     		orrs	r0, r3
 2736 0032 16BD     		pop	{r1, r2, r4, pc}
 2737              	.L536:
 2738              		.align	2
 2739              	.L535:
 2740 0034 00000000 		.word	.LC0
 2741 0038 00000000 		.word	.LANCHOR75
 2743              		.section	.text.lorawan_api_convert_rtc_to_gps_epoch_time,"ax",%progbits
 2744              		.align	1
 2745              		.global	lorawan_api_convert_rtc_to_gps_epoch_time
 2746              		.syntax unified
 2747              		.code	16
 2748              		.thumb_func
 2749              		.fpu softvfp
 2751              	lorawan_api_convert_rtc_to_gps_epoch_time:
 2752              		@ args = 0, pretend = 0, frame = 0
 2753              		@ frame_needed = 0, uses_anonymous_args = 0
 2754 0000 F8B5     		push	{r3, r4, r5, r6, r7, lr}
 2755 0002 0400     		movs	r4, r0
 2756 0004 0D00     		movs	r5, r1
 2757 0006 1600     		movs	r6, r2
 2758 0008 1F1E     		subs	r7, r3, #0
 2759 000a 04D0     		beq	.L538
 2760 000c 074A     		ldr	r2, .L542
 2761 000e 0849     		ldr	r1, .L542+4
 2762 0010 0848     		ldr	r0, .L542+8
 2763 0012 FFF7FEFF 		bl	smtc_modem_hal_on_panic
 2764              	.L538:
 2765              		@ sp needed
 2766 0016 A120     		movs	r0, #161
 2767 0018 C000     		lsls	r0, r0, #3
 2768 001a 7843     		muls	r0, r7
 2769 001c 064B     		ldr	r3, .L542+12
 2770 001e 2A00     		movs	r2, r5
 2771 0020 2100     		movs	r1, r4
 2772 0022 C018     		adds	r0, r0, r3
 2773 0024 3300     		movs	r3, r6
ARM GAS  /tmp/ccg54bqa.s 			page 47


 2774 0026 FFF7FEFF 		bl	lr1mac_core_convert_rtc_to_gps_epoch_time
 2775 002a F8BD     		pop	{r3, r4, r5, r6, r7, pc}
 2776              	.L543:
 2777              		.align	2
 2778              	.L542:
 2779 002c 00000000 		.word	.LC0
 2780 0030 23030000 		.word	803
 2781 0034 00000000 		.word	.LANCHOR76
 2782 0038 00000000 		.word	lr1mac_core_context
 2784              		.section	.text.lorawan_api_is_time_valid,"ax",%progbits
 2785              		.align	1
 2786              		.global	lorawan_api_is_time_valid
 2787              		.syntax unified
 2788              		.code	16
 2789              		.thumb_func
 2790              		.fpu softvfp
 2792              	lorawan_api_is_time_valid:
 2793              		@ args = 0, pretend = 0, frame = 0
 2794              		@ frame_needed = 0, uses_anonymous_args = 0
 2795 0000 10B5     		push	{r4, lr}
 2796 0002 041E     		subs	r4, r0, #0
 2797 0004 04D0     		beq	.L545
 2798 0006 064A     		ldr	r2, .L549
 2799 0008 0649     		ldr	r1, .L549+4
 2800 000a 0748     		ldr	r0, .L549+8
 2801 000c FFF7FEFF 		bl	smtc_modem_hal_on_panic
 2802              	.L545:
 2803              		@ sp needed
 2804 0010 A120     		movs	r0, #161
 2805 0012 C000     		lsls	r0, r0, #3
 2806 0014 6043     		muls	r0, r4
 2807 0016 054B     		ldr	r3, .L549+12
 2808 0018 C018     		adds	r0, r0, r3
 2809 001a FFF7FEFF 		bl	lr1mac_core_is_time_valid
 2810 001e 10BD     		pop	{r4, pc}
 2811              	.L550:
 2812              		.align	2
 2813              	.L549:
 2814 0020 00000000 		.word	.LC0
 2815 0024 2A030000 		.word	810
 2816 0028 00000000 		.word	.LANCHOR77
 2817 002c 00000000 		.word	lr1mac_core_context
 2819              		.section	.text.lorawan_api_get_timestamp_last_device_time_ans_s,"ax",%progbits
 2820              		.align	1
 2821              		.global	lorawan_api_get_timestamp_last_device_time_ans_s
 2822              		.syntax unified
 2823              		.code	16
 2824              		.thumb_func
 2825              		.fpu softvfp
 2827              	lorawan_api_get_timestamp_last_device_time_ans_s:
 2828              		@ args = 0, pretend = 0, frame = 0
 2829              		@ frame_needed = 0, uses_anonymous_args = 0
 2830 0000 10B5     		push	{r4, lr}
 2831 0002 041E     		subs	r4, r0, #0
 2832 0004 05D0     		beq	.L552
 2833 0006 CC21     		movs	r1, #204
 2834 0008 064A     		ldr	r2, .L556
ARM GAS  /tmp/ccg54bqa.s 			page 48


 2835 000a 0748     		ldr	r0, .L556+4
 2836 000c 8900     		lsls	r1, r1, #2
 2837 000e FFF7FEFF 		bl	smtc_modem_hal_on_panic
 2838              	.L552:
 2839              		@ sp needed
 2840 0012 A120     		movs	r0, #161
 2841 0014 C000     		lsls	r0, r0, #3
 2842 0016 6043     		muls	r0, r4
 2843 0018 044B     		ldr	r3, .L556+8
 2844 001a C018     		adds	r0, r0, r3
 2845 001c FFF7FEFF 		bl	lr1mac_core_get_timestamp_last_device_time_ans_s
 2846 0020 10BD     		pop	{r4, pc}
 2847              	.L557:
 2848 0022 C046     		.align	2
 2849              	.L556:
 2850 0024 00000000 		.word	.LC0
 2851 0028 00000000 		.word	.LANCHOR78
 2852 002c 00000000 		.word	lr1mac_core_context
 2854              		.section	.text.lorawan_api_get_time_left_connection_lost,"ax",%progbits
 2855              		.align	1
 2856              		.global	lorawan_api_get_time_left_connection_lost
 2857              		.syntax unified
 2858              		.code	16
 2859              		.thumb_func
 2860              		.fpu softvfp
 2862              	lorawan_api_get_time_left_connection_lost:
 2863              		@ args = 0, pretend = 0, frame = 0
 2864              		@ frame_needed = 0, uses_anonymous_args = 0
 2865 0000 10B5     		push	{r4, lr}
 2866 0002 041E     		subs	r4, r0, #0
 2867 0004 04D0     		beq	.L559
 2868 0006 064A     		ldr	r2, .L563
 2869 0008 0649     		ldr	r1, .L563+4
 2870 000a 0748     		ldr	r0, .L563+8
 2871 000c FFF7FEFF 		bl	smtc_modem_hal_on_panic
 2872              	.L559:
 2873              		@ sp needed
 2874 0010 A120     		movs	r0, #161
 2875 0012 C000     		lsls	r0, r0, #3
 2876 0014 6043     		muls	r0, r4
 2877 0016 054B     		ldr	r3, .L563+12
 2878 0018 C018     		adds	r0, r0, r3
 2879 001a FFF7FEFF 		bl	lr1mac_core_get_time_left_connection_lost
 2880 001e 10BD     		pop	{r4, pc}
 2881              	.L564:
 2882              		.align	2
 2883              	.L563:
 2884 0020 00000000 		.word	.LC0
 2885 0024 36030000 		.word	822
 2886 0028 00000000 		.word	.LANCHOR79
 2887 002c 00000000 		.word	lr1mac_core_context
 2889              		.section	.text.lorawan_api_set_device_time_invalid_delay_s,"ax",%progbits
 2890              		.align	1
 2891              		.global	lorawan_api_set_device_time_invalid_delay_s
 2892              		.syntax unified
 2893              		.code	16
 2894              		.thumb_func
ARM GAS  /tmp/ccg54bqa.s 			page 49


 2895              		.fpu softvfp
 2897              	lorawan_api_set_device_time_invalid_delay_s:
 2898              		@ args = 0, pretend = 0, frame = 0
 2899              		@ frame_needed = 0, uses_anonymous_args = 0
 2900 0000 70B5     		push	{r4, r5, r6, lr}
 2901 0002 0400     		movs	r4, r0
 2902 0004 0D1E     		subs	r5, r1, #0
 2903 0006 05D0     		beq	.L566
 2904 0008 CF21     		movs	r1, #207
 2905 000a 074A     		ldr	r2, .L570
 2906 000c 0748     		ldr	r0, .L570+4
 2907 000e 8900     		lsls	r1, r1, #2
 2908 0010 FFF7FEFF 		bl	smtc_modem_hal_on_panic
 2909              	.L566:
 2910              		@ sp needed
 2911 0014 A120     		movs	r0, #161
 2912 0016 C000     		lsls	r0, r0, #3
 2913 0018 6843     		muls	r0, r5
 2914 001a 0549     		ldr	r1, .L570+8
 2915 001c 4018     		adds	r0, r0, r1
 2916 001e 2100     		movs	r1, r4
 2917 0020 FFF7FEFF 		bl	lr1_mac_core_set_device_time_invalid_delay_s
 2918 0024 70BD     		pop	{r4, r5, r6, pc}
 2919              	.L571:
 2920 0026 C046     		.align	2
 2921              	.L570:
 2922 0028 00000000 		.word	.LC0
 2923 002c 00000000 		.word	.LANCHOR80
 2924 0030 00000000 		.word	lr1mac_core_context
 2926              		.section	.text.lorawan_api_get_device_time_invalid_delay_s,"ax",%progbits
 2927              		.align	1
 2928              		.global	lorawan_api_get_device_time_invalid_delay_s
 2929              		.syntax unified
 2930              		.code	16
 2931              		.thumb_func
 2932              		.fpu softvfp
 2934              	lorawan_api_get_device_time_invalid_delay_s:
 2935              		@ args = 0, pretend = 0, frame = 0
 2936              		@ frame_needed = 0, uses_anonymous_args = 0
 2937 0000 10B5     		push	{r4, lr}
 2938 0002 041E     		subs	r4, r0, #0
 2939 0004 04D0     		beq	.L573
 2940 0006 064A     		ldr	r2, .L577
 2941 0008 0649     		ldr	r1, .L577+4
 2942 000a 0748     		ldr	r0, .L577+8
 2943 000c FFF7FEFF 		bl	smtc_modem_hal_on_panic
 2944              	.L573:
 2945              		@ sp needed
 2946 0010 A120     		movs	r0, #161
 2947 0012 C000     		lsls	r0, r0, #3
 2948 0014 6043     		muls	r0, r4
 2949 0016 054B     		ldr	r3, .L577+12
 2950 0018 C018     		adds	r0, r0, r3
 2951 001a FFF7FEFF 		bl	lr1_mac_core_get_device_time_invalid_delay_s
 2952 001e 10BD     		pop	{r4, pc}
 2953              	.L578:
 2954              		.align	2
ARM GAS  /tmp/ccg54bqa.s 			page 50


 2955              	.L577:
 2956 0020 00000000 		.word	.LC0
 2957 0024 42030000 		.word	834
 2958 0028 00000000 		.word	.LANCHOR81
 2959 002c 00000000 		.word	lr1mac_core_context
 2961              		.section	.text.lorawan_api_get_link_check_ans,"ax",%progbits
 2962              		.align	1
 2963              		.global	lorawan_api_get_link_check_ans
 2964              		.syntax unified
 2965              		.code	16
 2966              		.thumb_func
 2967              		.fpu softvfp
 2969              	lorawan_api_get_link_check_ans:
 2970              		@ args = 0, pretend = 0, frame = 0
 2971              		@ frame_needed = 0, uses_anonymous_args = 0
 2972 0000 70B5     		push	{r4, r5, r6, lr}
 2973 0002 0400     		movs	r4, r0
 2974 0004 0D00     		movs	r5, r1
 2975 0006 161E     		subs	r6, r2, #0
 2976 0008 05D0     		beq	.L580
 2977 000a D221     		movs	r1, #210
 2978 000c 074A     		ldr	r2, .L584
 2979 000e 0848     		ldr	r0, .L584+4
 2980 0010 8900     		lsls	r1, r1, #2
 2981 0012 FFF7FEFF 		bl	smtc_modem_hal_on_panic
 2982              	.L580:
 2983              		@ sp needed
 2984 0016 A120     		movs	r0, #161
 2985 0018 C000     		lsls	r0, r0, #3
 2986 001a 7043     		muls	r0, r6
 2987 001c 054A     		ldr	r2, .L584+8
 2988 001e 2100     		movs	r1, r4
 2989 0020 8018     		adds	r0, r0, r2
 2990 0022 2A00     		movs	r2, r5
 2991 0024 FFF7FEFF 		bl	lr1_mac_core_get_link_check_ans
 2992 0028 70BD     		pop	{r4, r5, r6, pc}
 2993              	.L585:
 2994 002a C046     		.align	2
 2995              	.L584:
 2996 002c 00000000 		.word	.LC0
 2997 0030 00000000 		.word	.LANCHOR82
 2998 0034 00000000 		.word	lr1mac_core_context
 3000              		.section	.text.lorawan_api_get_device_time_req_status,"ax",%progbits
 3001              		.align	1
 3002              		.global	lorawan_api_get_device_time_req_status
 3003              		.syntax unified
 3004              		.code	16
 3005              		.thumb_func
 3006              		.fpu softvfp
 3008              	lorawan_api_get_device_time_req_status:
 3009              		@ args = 0, pretend = 0, frame = 0
 3010              		@ frame_needed = 0, uses_anonymous_args = 0
 3011 0000 10B5     		push	{r4, lr}
 3012 0002 041E     		subs	r4, r0, #0
 3013 0004 04D0     		beq	.L587
 3014 0006 064A     		ldr	r2, .L591
 3015 0008 0649     		ldr	r1, .L591+4
ARM GAS  /tmp/ccg54bqa.s 			page 51


 3016 000a 0748     		ldr	r0, .L591+8
 3017 000c FFF7FEFF 		bl	smtc_modem_hal_on_panic
 3018              	.L587:
 3019              		@ sp needed
 3020 0010 A120     		movs	r0, #161
 3021 0012 C000     		lsls	r0, r0, #3
 3022 0014 6043     		muls	r0, r4
 3023 0016 054B     		ldr	r3, .L591+12
 3024 0018 C018     		adds	r0, r0, r3
 3025 001a FFF7FEFF 		bl	lr1_mac_core_get_device_time_req_status
 3026 001e 10BD     		pop	{r4, pc}
 3027              	.L592:
 3028              		.align	2
 3029              	.L591:
 3030 0020 00000000 		.word	.LC0
 3031 0024 4E030000 		.word	846
 3032 0028 00000000 		.word	.LANCHOR83
 3033 002c 00000000 		.word	lr1mac_core_context
 3035              		.section	.text.lorawan_api_get_ping_slot_info_req_status,"ax",%progbits
 3036              		.align	1
 3037              		.global	lorawan_api_get_ping_slot_info_req_status
 3038              		.syntax unified
 3039              		.code	16
 3040              		.thumb_func
 3041              		.fpu softvfp
 3043              	lorawan_api_get_ping_slot_info_req_status:
 3044              		@ args = 0, pretend = 0, frame = 0
 3045              		@ frame_needed = 0, uses_anonymous_args = 0
 3046 0000 10B5     		push	{r4, lr}
 3047 0002 041E     		subs	r4, r0, #0
 3048 0004 04D0     		beq	.L594
 3049 0006 064A     		ldr	r2, .L598
 3050 0008 0649     		ldr	r1, .L598+4
 3051 000a 0748     		ldr	r0, .L598+8
 3052 000c FFF7FEFF 		bl	smtc_modem_hal_on_panic
 3053              	.L594:
 3054              		@ sp needed
 3055 0010 A120     		movs	r0, #161
 3056 0012 C000     		lsls	r0, r0, #3
 3057 0014 6043     		muls	r0, r4
 3058 0016 054B     		ldr	r3, .L598+12
 3059 0018 C018     		adds	r0, r0, r3
 3060 001a FFF7FEFF 		bl	lr1_mac_core_get_ping_slot_info_req_status
 3061 001e 10BD     		pop	{r4, pc}
 3062              	.L599:
 3063              		.align	2
 3064              	.L598:
 3065 0020 00000000 		.word	.LC0
 3066 0024 77030000 		.word	887
 3067 0028 00000000 		.word	.LANCHOR84
 3068 002c 00000000 		.word	lr1mac_core_context
 3070              		.section	.text.lorawan_api_set_ping_slot_periodicity,"ax",%progbits
 3071              		.align	1
 3072              		.global	lorawan_api_set_ping_slot_periodicity
 3073              		.syntax unified
 3074              		.code	16
 3075              		.thumb_func
ARM GAS  /tmp/ccg54bqa.s 			page 52


 3076              		.fpu softvfp
 3078              	lorawan_api_set_ping_slot_periodicity:
 3079              		@ args = 0, pretend = 0, frame = 0
 3080              		@ frame_needed = 0, uses_anonymous_args = 0
 3081 0000 70B5     		push	{r4, r5, r6, lr}
 3082 0002 0400     		movs	r4, r0
 3083 0004 0D1E     		subs	r5, r1, #0
 3084 0006 04D0     		beq	.L601
 3085 0008 064A     		ldr	r2, .L605
 3086 000a 0749     		ldr	r1, .L605+4
 3087 000c 0748     		ldr	r0, .L605+8
 3088 000e FFF7FEFF 		bl	smtc_modem_hal_on_panic
 3089              	.L601:
 3090              		@ sp needed
 3091 0012 A120     		movs	r0, #161
 3092 0014 C000     		lsls	r0, r0, #3
 3093 0016 6843     		muls	r0, r5
 3094 0018 0549     		ldr	r1, .L605+12
 3095 001a 4018     		adds	r0, r0, r1
 3096 001c 2100     		movs	r1, r4
 3097 001e FFF7FEFF 		bl	lr1mac_core_set_ping_slot_periodicity
 3098 0022 70BD     		pop	{r4, r5, r6, pc}
 3099              	.L606:
 3100              		.align	2
 3101              	.L605:
 3102 0024 00000000 		.word	.LC0
 3103 0028 7D030000 		.word	893
 3104 002c 00000000 		.word	.LANCHOR85
 3105 0030 00000000 		.word	lr1mac_core_context
 3107              		.section	.text.lorawan_api_get_ping_slot_periodicity,"ax",%progbits
 3108              		.align	1
 3109              		.global	lorawan_api_get_ping_slot_periodicity
 3110              		.syntax unified
 3111              		.code	16
 3112              		.thumb_func
 3113              		.fpu softvfp
 3115              	lorawan_api_get_ping_slot_periodicity:
 3116              		@ args = 0, pretend = 0, frame = 0
 3117              		@ frame_needed = 0, uses_anonymous_args = 0
 3118 0000 10B5     		push	{r4, lr}
 3119 0002 041E     		subs	r4, r0, #0
 3120 0004 04D0     		beq	.L608
 3121 0006 064A     		ldr	r2, .L612
 3122 0008 0649     		ldr	r1, .L612+4
 3123 000a 0748     		ldr	r0, .L612+8
 3124 000c FFF7FEFF 		bl	smtc_modem_hal_on_panic
 3125              	.L608:
 3126              		@ sp needed
 3127 0010 A120     		movs	r0, #161
 3128 0012 C000     		lsls	r0, r0, #3
 3129 0014 6043     		muls	r0, r4
 3130 0016 054B     		ldr	r3, .L612+12
 3131 0018 C018     		adds	r0, r0, r3
 3132 001a FFF7FEFF 		bl	lr1mac_core_get_ping_slot_periodicity
 3133 001e 10BD     		pop	{r4, pc}
 3134              	.L613:
 3135              		.align	2
ARM GAS  /tmp/ccg54bqa.s 			page 53


 3136              	.L612:
 3137 0020 00000000 		.word	.LC0
 3138 0024 83030000 		.word	899
 3139 0028 00000000 		.word	.LANCHOR86
 3140 002c 00000000 		.word	lr1mac_core_context
 3142              		.section	.text.lorawan_api_get_class_b_status,"ax",%progbits
 3143              		.align	1
 3144              		.global	lorawan_api_get_class_b_status
 3145              		.syntax unified
 3146              		.code	16
 3147              		.thumb_func
 3148              		.fpu softvfp
 3150              	lorawan_api_get_class_b_status:
 3151              		@ args = 0, pretend = 0, frame = 0
 3152              		@ frame_needed = 0, uses_anonymous_args = 0
 3153 0000 10B5     		push	{r4, lr}
 3154 0002 041E     		subs	r4, r0, #0
 3155 0004 04D0     		beq	.L615
 3156 0006 064A     		ldr	r2, .L619
 3157 0008 0649     		ldr	r1, .L619+4
 3158 000a 0748     		ldr	r0, .L619+8
 3159 000c FFF7FEFF 		bl	smtc_modem_hal_on_panic
 3160              	.L615:
 3161              		@ sp needed
 3162 0010 A120     		movs	r0, #161
 3163 0012 C000     		lsls	r0, r0, #3
 3164 0014 6043     		muls	r0, r4
 3165 0016 054B     		ldr	r3, .L619+12
 3166 0018 C018     		adds	r0, r0, r3
 3167 001a FFF7FEFF 		bl	lr1mac_core_get_class_b_status
 3168 001e 10BD     		pop	{r4, pc}
 3169              	.L620:
 3170              		.align	2
 3171              	.L619:
 3172 0020 00000000 		.word	.LC0
 3173 0024 89030000 		.word	905
 3174 0028 00000000 		.word	.LANCHOR87
 3175 002c 00000000 		.word	lr1mac_core_context
 3177              		.section	.text.lorawan_api_lora_dr_to_sf_bw,"ax",%progbits
 3178              		.align	1
 3179              		.global	lorawan_api_lora_dr_to_sf_bw
 3180              		.syntax unified
 3181              		.code	16
 3182              		.thumb_func
 3183              		.fpu softvfp
 3185              	lorawan_api_lora_dr_to_sf_bw:
 3186              		@ args = 0, pretend = 0, frame = 0
 3187              		@ frame_needed = 0, uses_anonymous_args = 0
 3188 0000 F8B5     		push	{r3, r4, r5, r6, r7, lr}
 3189 0002 0500     		movs	r5, r0
 3190 0004 0E00     		movs	r6, r1
 3191 0006 1700     		movs	r7, r2
 3192 0008 1C1E     		subs	r4, r3, #0
 3193 000a 04D0     		beq	.L622
 3194 000c 074A     		ldr	r2, .L626
 3195 000e 0849     		ldr	r1, .L626+4
 3196 0010 0848     		ldr	r0, .L626+8
ARM GAS  /tmp/ccg54bqa.s 			page 54


 3197 0012 FFF7FEFF 		bl	smtc_modem_hal_on_panic
 3198              	.L622:
 3199              		@ sp needed
 3200 0016 A123     		movs	r3, #161
 3201 0018 DB00     		lsls	r3, r3, #3
 3202 001a 5C43     		muls	r4, r3
 3203 001c 0648     		ldr	r0, .L626+12
 3204 001e 3B00     		movs	r3, r7
 3205 0020 3200     		movs	r2, r6
 3206 0022 2900     		movs	r1, r5
 3207 0024 2058     		ldr	r0, [r4, r0]
 3208 0026 FFF7FEFF 		bl	smtc_real_lora_dr_to_sf_bw
 3209 002a F8BD     		pop	{r3, r4, r5, r6, r7, pc}
 3210              	.L627:
 3211              		.align	2
 3212              	.L626:
 3213 002c 00000000 		.word	.LC0
 3214 0030 8F030000 		.word	911
 3215 0034 00000000 		.word	.LANCHOR88
 3216 0038 00000000 		.word	lr1mac_core_context
 3218              		.section	.text.lorawan_api_get_frequency_factor,"ax",%progbits
 3219              		.align	1
 3220              		.global	lorawan_api_get_frequency_factor
 3221              		.syntax unified
 3222              		.code	16
 3223              		.thumb_func
 3224              		.fpu softvfp
 3226              	lorawan_api_get_frequency_factor:
 3227              		@ args = 0, pretend = 0, frame = 0
 3228              		@ frame_needed = 0, uses_anonymous_args = 0
 3229 0000 10B5     		push	{r4, lr}
 3230 0002 041E     		subs	r4, r0, #0
 3231 0004 04D0     		beq	.L629
 3232 0006 064A     		ldr	r2, .L633
 3233 0008 0649     		ldr	r1, .L633+4
 3234 000a 0748     		ldr	r0, .L633+8
 3235 000c FFF7FEFF 		bl	smtc_modem_hal_on_panic
 3236              	.L629:
 3237              		@ sp needed
 3238 0010 A120     		movs	r0, #161
 3239 0012 C000     		lsls	r0, r0, #3
 3240 0014 4443     		muls	r4, r0
 3241 0016 054B     		ldr	r3, .L633+12
 3242 0018 E058     		ldr	r0, [r4, r3]
 3243 001a FFF7FEFF 		bl	smtc_real_get_frequency_factor
 3244 001e 10BD     		pop	{r4, pc}
 3245              	.L634:
 3246              		.align	2
 3247              	.L633:
 3248 0020 00000000 		.word	.LC0
 3249 0024 95030000 		.word	917
 3250 0028 00000000 		.word	.LANCHOR89
 3251 002c 00000000 		.word	lr1mac_core_context
 3253              		.section	.text.lorawan_api_set_adr_ack_limit_delay,"ax",%progbits
 3254              		.align	1
 3255              		.global	lorawan_api_set_adr_ack_limit_delay
 3256              		.syntax unified
ARM GAS  /tmp/ccg54bqa.s 			page 55


 3257              		.code	16
 3258              		.thumb_func
 3259              		.fpu softvfp
 3261              	lorawan_api_set_adr_ack_limit_delay:
 3262              		@ args = 0, pretend = 0, frame = 0
 3263              		@ frame_needed = 0, uses_anonymous_args = 0
 3264 0000 70B5     		push	{r4, r5, r6, lr}
 3265 0002 0400     		movs	r4, r0
 3266 0004 0D00     		movs	r5, r1
 3267 0006 161E     		subs	r6, r2, #0
 3268 0008 04D0     		beq	.L636
 3269 000a 074A     		ldr	r2, .L640
 3270 000c 0749     		ldr	r1, .L640+4
 3271 000e 0848     		ldr	r0, .L640+8
 3272 0010 FFF7FEFF 		bl	smtc_modem_hal_on_panic
 3273              	.L636:
 3274              		@ sp needed
 3275 0014 A120     		movs	r0, #161
 3276 0016 C000     		lsls	r0, r0, #3
 3277 0018 7043     		muls	r0, r6
 3278 001a 064A     		ldr	r2, .L640+12
 3279 001c 2100     		movs	r1, r4
 3280 001e 8018     		adds	r0, r0, r2
 3281 0020 2A00     		movs	r2, r5
 3282 0022 FFF7FEFF 		bl	lr1mac_core_set_adr_ack_limit_delay
 3283 0026 70BD     		pop	{r4, r5, r6, pc}
 3284              	.L641:
 3285              		.align	2
 3286              	.L640:
 3287 0028 00000000 		.word	.LC0
 3288 002c 9B030000 		.word	923
 3289 0030 00000000 		.word	.LANCHOR90
 3290 0034 00000000 		.word	lr1mac_core_context
 3292              		.section	.text.lorawan_api_get_adr_ack_limit_delay,"ax",%progbits
 3293              		.align	1
 3294              		.global	lorawan_api_get_adr_ack_limit_delay
 3295              		.syntax unified
 3296              		.code	16
 3297              		.thumb_func
 3298              		.fpu softvfp
 3300              	lorawan_api_get_adr_ack_limit_delay:
 3301              		@ args = 0, pretend = 0, frame = 0
 3302              		@ frame_needed = 0, uses_anonymous_args = 0
 3303 0000 70B5     		push	{r4, r5, r6, lr}
 3304 0002 0400     		movs	r4, r0
 3305 0004 0D00     		movs	r5, r1
 3306 0006 161E     		subs	r6, r2, #0
 3307 0008 04D0     		beq	.L643
 3308 000a 074A     		ldr	r2, .L647
 3309 000c 0749     		ldr	r1, .L647+4
 3310 000e 0848     		ldr	r0, .L647+8
 3311 0010 FFF7FEFF 		bl	smtc_modem_hal_on_panic
 3312              	.L643:
 3313              		@ sp needed
 3314 0014 A120     		movs	r0, #161
 3315 0016 C000     		lsls	r0, r0, #3
 3316 0018 7043     		muls	r0, r6
ARM GAS  /tmp/ccg54bqa.s 			page 56


 3317 001a 064A     		ldr	r2, .L647+12
 3318 001c 2100     		movs	r1, r4
 3319 001e 8018     		adds	r0, r0, r2
 3320 0020 2A00     		movs	r2, r5
 3321 0022 FFF7FEFF 		bl	lr1mac_core_get_adr_ack_limit_delay
 3322 0026 70BD     		pop	{r4, r5, r6, pc}
 3323              	.L648:
 3324              		.align	2
 3325              	.L647:
 3326 0028 00000000 		.word	.LC0
 3327 002c A1030000 		.word	929
 3328 0030 00000000 		.word	.LANCHOR91
 3329 0034 00000000 		.word	lr1mac_core_context
 3331              		.section	.text.lorawan_api_get_current_enabled_frequencies_list,"ax",%progbits
 3332              		.align	1
 3333              		.global	lorawan_api_get_current_enabled_frequencies_list
 3334              		.syntax unified
 3335              		.code	16
 3336              		.thumb_func
 3337              		.fpu softvfp
 3339              	lorawan_api_get_current_enabled_frequencies_list:
 3340              		@ args = 0, pretend = 0, frame = 0
 3341              		@ frame_needed = 0, uses_anonymous_args = 0
 3342 0000 10B5     		push	{r4, lr}
 3343 0002 A124     		movs	r4, #161
 3344              		@ sp needed
 3345 0004 E400     		lsls	r4, r4, #3
 3346 0006 5C43     		muls	r4, r3
 3347 0008 1300     		movs	r3, r2
 3348 000a 0A00     		movs	r2, r1
 3349 000c 0100     		movs	r1, r0
 3350 000e 0248     		ldr	r0, .L650
 3351 0010 2058     		ldr	r0, [r4, r0]
 3352 0012 FFF7FEFF 		bl	smtc_real_get_current_enabled_frequency_list
 3353 0016 10BD     		pop	{r4, pc}
 3354              	.L651:
 3355              		.align	2
 3356              	.L650:
 3357 0018 00000000 		.word	lr1mac_core_context
 3359              		.section	.text.lorawan_api_tx_ack_bit_set,"ax",%progbits
 3360              		.align	1
 3361              		.global	lorawan_api_tx_ack_bit_set
 3362              		.syntax unified
 3363              		.code	16
 3364              		.thumb_func
 3365              		.fpu softvfp
 3367              	lorawan_api_tx_ack_bit_set:
 3368              		@ args = 0, pretend = 0, frame = 0
 3369              		@ frame_needed = 0, uses_anonymous_args = 0
 3370 0000 A123     		movs	r3, #161
 3371 0002 DB00     		lsls	r3, r3, #3
 3372 0004 10B5     		push	{r4, lr}
 3373 0006 5843     		muls	r0, r3
 3374              		@ sp needed
 3375 0008 024B     		ldr	r3, .L653
 3376 000a C018     		adds	r0, r0, r3
 3377 000c FFF7FEFF 		bl	lr1_stack_mac_tx_ack_bit_set
ARM GAS  /tmp/ccg54bqa.s 			page 57


 3378 0010 10BD     		pop	{r4, pc}
 3379              	.L654:
 3380 0012 C046     		.align	2
 3381              	.L653:
 3382 0014 00000000 		.word	lr1mac_core_context
 3384              		.section	.text.lorawan_api_tx_ack_bit_get,"ax",%progbits
 3385              		.align	1
 3386              		.global	lorawan_api_tx_ack_bit_get
 3387              		.syntax unified
 3388              		.code	16
 3389              		.thumb_func
 3390              		.fpu softvfp
 3392              	lorawan_api_tx_ack_bit_get:
 3393              		@ args = 0, pretend = 0, frame = 0
 3394              		@ frame_needed = 0, uses_anonymous_args = 0
 3395 0000 A123     		movs	r3, #161
 3396 0002 DB00     		lsls	r3, r3, #3
 3397 0004 10B5     		push	{r4, lr}
 3398 0006 5843     		muls	r0, r3
 3399              		@ sp needed
 3400 0008 024B     		ldr	r3, .L656
 3401 000a C018     		adds	r0, r0, r3
 3402 000c FFF7FEFF 		bl	lr1_stack_mac_tx_ack_bit_get
 3403 0010 10BD     		pop	{r4, pc}
 3404              	.L657:
 3405 0012 C046     		.align	2
 3406              	.L656:
 3407 0014 00000000 		.word	lr1mac_core_context
 3409              		.section	.text.lorawan_api_set_no_rx_windows,"ax",%progbits
 3410              		.align	1
 3411              		.global	lorawan_api_set_no_rx_windows
 3412              		.syntax unified
 3413              		.code	16
 3414              		.thumb_func
 3415              		.fpu softvfp
 3417              	lorawan_api_set_no_rx_windows:
 3418              		@ args = 0, pretend = 0, frame = 0
 3419              		@ frame_needed = 0, uses_anonymous_args = 0
 3420 0000 A123     		movs	r3, #161
 3421 0002 DB00     		lsls	r3, r3, #3
 3422 0004 10B5     		push	{r4, lr}
 3423 0006 5843     		muls	r0, r3
 3424              		@ sp needed
 3425 0008 024B     		ldr	r3, .L659
 3426 000a C018     		adds	r0, r0, r3
 3427 000c FFF7FEFF 		bl	lr1mac_core_set_no_rx_windows
 3428 0010 10BD     		pop	{r4, pc}
 3429              	.L660:
 3430 0012 C046     		.align	2
 3431              	.L659:
 3432 0014 00000000 		.word	lr1mac_core_context
 3434              		.section	.text.lorawan_api_get_no_rx_windows,"ax",%progbits
 3435              		.align	1
 3436              		.global	lorawan_api_get_no_rx_windows
 3437              		.syntax unified
 3438              		.code	16
 3439              		.thumb_func
ARM GAS  /tmp/ccg54bqa.s 			page 58


 3440              		.fpu softvfp
 3442              	lorawan_api_get_no_rx_windows:
 3443              		@ args = 0, pretend = 0, frame = 0
 3444              		@ frame_needed = 0, uses_anonymous_args = 0
 3445 0000 A123     		movs	r3, #161
 3446 0002 DB00     		lsls	r3, r3, #3
 3447 0004 10B5     		push	{r4, lr}
 3448 0006 5843     		muls	r0, r3
 3449              		@ sp needed
 3450 0008 024B     		ldr	r3, .L662
 3451 000a C018     		adds	r0, r0, r3
 3452 000c FFF7FEFF 		bl	lr1mac_core_get_no_rx_windows
 3453 0010 10BD     		pop	{r4, pc}
 3454              	.L663:
 3455 0012 C046     		.align	2
 3456              	.L662:
 3457 0014 00000000 		.word	lr1mac_core_context
 3459              		.section	.text.lorawan_api_is_frequency_valid,"ax",%progbits
 3460              		.align	1
 3461              		.global	lorawan_api_is_frequency_valid
 3462              		.syntax unified
 3463              		.code	16
 3464              		.thumb_func
 3465              		.fpu softvfp
 3467              	lorawan_api_is_frequency_valid:
 3468              		@ args = 0, pretend = 0, frame = 0
 3469              		@ frame_needed = 0, uses_anonymous_args = 0
 3470 0000 A123     		movs	r3, #161
 3471 0002 DB00     		lsls	r3, r3, #3
 3472 0004 10B5     		push	{r4, lr}
 3473 0006 5843     		muls	r0, r3
 3474              		@ sp needed
 3475 0008 024B     		ldr	r3, .L665
 3476 000a C058     		ldr	r0, [r0, r3]
 3477 000c FFF7FEFF 		bl	smtc_real_is_frequency_valid
 3478 0010 10BD     		pop	{r4, pc}
 3479              	.L666:
 3480 0012 C046     		.align	2
 3481              	.L665:
 3482 0014 00000000 		.word	lr1mac_core_context
 3484              		.section	.text.lorawan_api_is_datarate_valid,"ax",%progbits
 3485              		.align	1
 3486              		.global	lorawan_api_is_datarate_valid
 3487              		.syntax unified
 3488              		.code	16
 3489              		.thumb_func
 3490              		.fpu softvfp
 3492              	lorawan_api_is_datarate_valid:
 3493              		@ args = 0, pretend = 0, frame = 0
 3494              		@ frame_needed = 0, uses_anonymous_args = 0
 3495 0000 A123     		movs	r3, #161
 3496 0002 DB00     		lsls	r3, r3, #3
 3497 0004 10B5     		push	{r4, lr}
 3498 0006 5843     		muls	r0, r3
 3499              		@ sp needed
 3500 0008 024B     		ldr	r3, .L668
 3501 000a C058     		ldr	r0, [r0, r3]
ARM GAS  /tmp/ccg54bqa.s 			page 59


 3502 000c FFF7FEFF 		bl	smtc_real_is_rx_dr_valid
 3503 0010 10BD     		pop	{r4, pc}
 3504              	.L669:
 3505 0012 C046     		.align	2
 3506              	.L668:
 3507 0014 00000000 		.word	lr1mac_core_context
 3509              		.section	.text.lorawan_api_core_abort,"ax",%progbits
 3510              		.align	1
 3511              		.global	lorawan_api_core_abort
 3512              		.syntax unified
 3513              		.code	16
 3514              		.thumb_func
 3515              		.fpu softvfp
 3517              	lorawan_api_core_abort:
 3518              		@ args = 0, pretend = 0, frame = 0
 3519              		@ frame_needed = 0, uses_anonymous_args = 0
 3520 0000 A123     		movs	r3, #161
 3521 0002 DB00     		lsls	r3, r3, #3
 3522 0004 10B5     		push	{r4, lr}
 3523 0006 5843     		muls	r0, r3
 3524              		@ sp needed
 3525 0008 024B     		ldr	r3, .L671
 3526 000a C018     		adds	r0, r0, r3
 3527 000c FFF7FEFF 		bl	lr1mac_core_abort
 3528 0010 10BD     		pop	{r4, pc}
 3529              	.L672:
 3530 0012 C046     		.align	2
 3531              	.L671:
 3532 0014 00000000 		.word	lr1mac_core_context
 3534              		.section	.text.lorawan_api_update_join_channel,"ax",%progbits
 3535              		.align	1
 3536              		.global	lorawan_api_update_join_channel
 3537              		.syntax unified
 3538              		.code	16
 3539              		.thumb_func
 3540              		.fpu softvfp
 3542              	lorawan_api_update_join_channel:
 3543              		@ args = 0, pretend = 0, frame = 0
 3544              		@ frame_needed = 0, uses_anonymous_args = 0
 3545 0000 A123     		movs	r3, #161
 3546 0002 DB00     		lsls	r3, r3, #3
 3547 0004 10B5     		push	{r4, lr}
 3548 0006 5843     		muls	r0, r3
 3549              		@ sp needed
 3550 0008 024B     		ldr	r3, .L674
 3551 000a C018     		adds	r0, r0, r3
 3552 000c FFF7FEFF 		bl	lr1mac_core_update_join_channel
 3553 0010 10BD     		pop	{r4, pc}
 3554              	.L675:
 3555 0012 C046     		.align	2
 3556              	.L674:
 3557 0014 00000000 		.word	lr1mac_core_context
 3559              		.section	.text.lorawan_api_update_next_tx_channel,"ax",%progbits
 3560              		.align	1
 3561              		.global	lorawan_api_update_next_tx_channel
 3562              		.syntax unified
 3563              		.code	16
ARM GAS  /tmp/ccg54bqa.s 			page 60


 3564              		.thumb_func
 3565              		.fpu softvfp
 3567              	lorawan_api_update_next_tx_channel:
 3568              		@ args = 0, pretend = 0, frame = 0
 3569              		@ frame_needed = 0, uses_anonymous_args = 0
 3570 0000 A123     		movs	r3, #161
 3571 0002 DB00     		lsls	r3, r3, #3
 3572 0004 10B5     		push	{r4, lr}
 3573 0006 5843     		muls	r0, r3
 3574              		@ sp needed
 3575 0008 024B     		ldr	r3, .L677
 3576 000a C018     		adds	r0, r0, r3
 3577 000c FFF7FEFF 		bl	lr1mac_core_update_next_tx_channel
 3578 0010 10BD     		pop	{r4, pc}
 3579              	.L678:
 3580 0012 C046     		.align	2
 3581              	.L677:
 3582 0014 00000000 		.word	lr1mac_core_context
 3584              		.section	.text.lorawan_api_get_time_of_nwk_ans,"ax",%progbits
 3585              		.align	1
 3586              		.global	lorawan_api_get_time_of_nwk_ans
 3587              		.syntax unified
 3588              		.code	16
 3589              		.thumb_func
 3590              		.fpu softvfp
 3592              	lorawan_api_get_time_of_nwk_ans:
 3593              		@ args = 0, pretend = 0, frame = 0
 3594              		@ frame_needed = 0, uses_anonymous_args = 0
 3595 0000 A123     		movs	r3, #161
 3596 0002 DB00     		lsls	r3, r3, #3
 3597 0004 10B5     		push	{r4, lr}
 3598 0006 5843     		muls	r0, r3
 3599              		@ sp needed
 3600 0008 024B     		ldr	r3, .L680
 3601 000a C018     		adds	r0, r0, r3
 3602 000c FFF7FEFF 		bl	lr1mac_core_get_time_of_nwk_ans
 3603 0010 10BD     		pop	{r4, pc}
 3604              	.L681:
 3605 0012 C046     		.align	2
 3606              	.L680:
 3607 0014 00000000 		.word	lr1mac_core_context
 3609              		.section	.text.lorawan_api_set_time_of_nwk_ans,"ax",%progbits
 3610              		.align	1
 3611              		.global	lorawan_api_set_time_of_nwk_ans
 3612              		.syntax unified
 3613              		.code	16
 3614              		.thumb_func
 3615              		.fpu softvfp
 3617              	lorawan_api_set_time_of_nwk_ans:
 3618              		@ args = 0, pretend = 0, frame = 0
 3619              		@ frame_needed = 0, uses_anonymous_args = 0
 3620 0000 A123     		movs	r3, #161
 3621 0002 DB00     		lsls	r3, r3, #3
 3622 0004 10B5     		push	{r4, lr}
 3623 0006 5843     		muls	r0, r3
 3624              		@ sp needed
 3625 0008 024B     		ldr	r3, .L683
ARM GAS  /tmp/ccg54bqa.s 			page 61


 3626 000a C018     		adds	r0, r0, r3
 3627 000c FFF7FEFF 		bl	lr1mac_core_set_time_of_nwk_ans
 3628 0010 10BD     		pop	{r4, pc}
 3629              	.L684:
 3630 0012 C046     		.align	2
 3631              	.L683:
 3632 0014 00000000 		.word	lr1mac_core_context
 3634              		.section	.text.lorawan_api_set_next_tx_at_time,"ax",%progbits
 3635              		.align	1
 3636              		.global	lorawan_api_set_next_tx_at_time
 3637              		.syntax unified
 3638              		.code	16
 3639              		.thumb_func
 3640              		.fpu softvfp
 3642              	lorawan_api_set_next_tx_at_time:
 3643              		@ args = 0, pretend = 0, frame = 0
 3644              		@ frame_needed = 0, uses_anonymous_args = 0
 3645 0000 A123     		movs	r3, #161
 3646 0002 DB00     		lsls	r3, r3, #3
 3647 0004 10B5     		push	{r4, lr}
 3648 0006 5843     		muls	r0, r3
 3649              		@ sp needed
 3650 0008 024B     		ldr	r3, .L686
 3651 000a C018     		adds	r0, r0, r3
 3652 000c FFF7FEFF 		bl	lr1mac_core_set_next_tx_at_time
 3653 0010 10BD     		pop	{r4, pc}
 3654              	.L687:
 3655 0012 C046     		.align	2
 3656              	.L686:
 3657 0014 00000000 		.word	lr1mac_core_context
 3659              		.section	.text.lorawan_api_set_join_status,"ax",%progbits
 3660              		.align	1
 3661              		.global	lorawan_api_set_join_status
 3662              		.syntax unified
 3663              		.code	16
 3664              		.thumb_func
 3665              		.fpu softvfp
 3667              	lorawan_api_set_join_status:
 3668              		@ args = 0, pretend = 0, frame = 0
 3669              		@ frame_needed = 0, uses_anonymous_args = 0
 3670 0000 A123     		movs	r3, #161
 3671 0002 DB00     		lsls	r3, r3, #3
 3672 0004 10B5     		push	{r4, lr}
 3673 0006 5843     		muls	r0, r3
 3674              		@ sp needed
 3675 0008 024B     		ldr	r3, .L689
 3676 000a C018     		adds	r0, r0, r3
 3677 000c FFF7FEFF 		bl	lr1mac_core_set_join_status
 3678 0010 10BD     		pop	{r4, pc}
 3679              	.L690:
 3680 0012 C046     		.align	2
 3681              	.L689:
 3682 0014 00000000 		.word	lr1mac_core_context
 3684              		.global	lorawan_down_metadata
 3685              		.section	.bss.lorawan_down_metadata,"aw",%nobits
 3686              		.align	2
 3689              	lorawan_down_metadata:
ARM GAS  /tmp/ccg54bqa.s 			page 62


 3690 0000 00000000 		.space	4
 3691              		.section	.bss.lr1mac_core_context,"aw",%nobits
 3692              		.align	2
 3695              	lr1mac_core_context:
 3696 0000 00000000 		.space	1680
 3696      00000000 
 3696      00000000 
 3696      00000000 
 3696      00000000 
 3697              		.section	.rodata.__func__.0,"a"
 3698              		.set	.LANCHOR91,. + 0
 3701              	__func__.0:
 3702 0000 6C6F7261 		.ascii	"lorawan_api_get_adr_ack_limit_delay\000"
 3702      77616E5F 
 3702      6170695F 
 3702      6765745F 
 3702      6164725F 
 3703              		.section	.rodata.__func__.1,"a"
 3704              		.set	.LANCHOR90,. + 0
 3707              	__func__.1:
 3708 0000 6C6F7261 		.ascii	"lorawan_api_set_adr_ack_limit_delay\000"
 3708      77616E5F 
 3708      6170695F 
 3708      7365745F 
 3708      6164725F 
 3709              		.section	.rodata.__func__.10,"a"
 3710              		.set	.LANCHOR81,. + 0
 3713              	__func__.10:
 3714 0000 6C6F7261 		.ascii	"lorawan_api_get_device_time_invalid_delay_s\000"
 3714      77616E5F 
 3714      6170695F 
 3714      6765745F 
 3714      64657669 
 3715              		.section	.rodata.__func__.11,"a"
 3716              		.set	.LANCHOR80,. + 0
 3719              	__func__.11:
 3720 0000 6C6F7261 		.ascii	"lorawan_api_set_device_time_invalid_delay_s\000"
 3720      77616E5F 
 3720      6170695F 
 3720      7365745F 
 3720      64657669 
 3721              		.section	.rodata.__func__.12,"a"
 3722              		.set	.LANCHOR79,. + 0
 3725              	__func__.12:
 3726 0000 6C6F7261 		.ascii	"lorawan_api_get_time_left_connection_lost\000"
 3726      77616E5F 
 3726      6170695F 
 3726      6765745F 
 3726      74696D65 
 3727              		.section	.rodata.__func__.13,"a"
 3728              		.set	.LANCHOR78,. + 0
 3731              	__func__.13:
 3732 0000 6C6F7261 		.ascii	"lorawan_api_get_timestamp_last_device_time_ans_s\000"
 3732      77616E5F 
 3732      6170695F 
 3732      6765745F 
 3732      74696D65 
ARM GAS  /tmp/ccg54bqa.s 			page 63


 3733              		.section	.rodata.__func__.14,"a"
 3734              		.set	.LANCHOR77,. + 0
 3737              	__func__.14:
 3738 0000 6C6F7261 		.ascii	"lorawan_api_is_time_valid\000"
 3738      77616E5F 
 3738      6170695F 
 3738      69735F74 
 3738      696D655F 
 3739              		.section	.rodata.__func__.15,"a"
 3740              		.set	.LANCHOR76,. + 0
 3743              	__func__.15:
 3744 0000 6C6F7261 		.ascii	"lorawan_api_convert_rtc_to_gps_epoch_time\000"
 3744      77616E5F 
 3744      6170695F 
 3744      636F6E76 
 3744      6572745F 
 3745              		.section	.rodata.__func__.16,"a"
 3746              		.set	.LANCHOR75,. + 0
 3749              	__func__.16:
 3750 0000 6C6F7261 		.ascii	"lorawan_api_get_regional_parameters_version\000"
 3750      77616E5F 
 3750      6170695F 
 3750      6765745F 
 3750      72656769 
 3751              		.section	.rodata.__func__.17,"a"
 3752              		.set	.LANCHOR74,. + 0
 3755              	__func__.17:
 3756 0000 6C6F7261 		.ascii	"lorawan_api_get_spec_version\000"
 3756      77616E5F 
 3756      6170695F 
 3756      6765745F 
 3756      73706563 
 3757              		.section	.rodata.__func__.18,"a"
 3758              		.set	.LANCHOR73,. + 0
 3761              	__func__.18:
 3762 0000 6C6F7261 		.ascii	"lorawan_api_set_crystal_error\000"
 3762      77616E5F 
 3762      6170695F 
 3762      7365745F 
 3762      63727973 
 3763              		.section	.rodata.__func__.19,"a"
 3764              		.set	.LANCHOR72,. + 0
 3767              	__func__.19:
 3768 0000 6C6F7261 		.ascii	"lorawan_api_get_crystal_error\000"
 3768      77616E5F 
 3768      6170695F 
 3768      6765745F 
 3768      63727973 
 3769              		.section	.rodata.__func__.2,"a"
 3770              		.set	.LANCHOR89,. + 0
 3773              	__func__.2:
 3774 0000 6C6F7261 		.ascii	"lorawan_api_get_frequency_factor\000"
 3774      77616E5F 
 3774      6170695F 
 3774      6765745F 
 3774      66726571 
 3775              		.section	.rodata.__func__.20,"a"
ARM GAS  /tmp/ccg54bqa.s 			page 64


 3776              		.set	.LANCHOR71,. + 0
 3779              	__func__.20:
 3780 0000 6C6F7261 		.ascii	"lorawan_api_nb_trans_set\000"
 3780      77616E5F 
 3780      6170695F 
 3780      6E625F74 
 3780      72616E73 
 3781              		.section	.rodata.__func__.21,"a"
 3782              		.set	.LANCHOR70,. + 0
 3785              	__func__.21:
 3786 0000 6C6F7261 		.ascii	"lorawan_api_nb_trans_get\000"
 3786      77616E5F 
 3786      6170695F 
 3786      6E625F74 
 3786      72616E73 
 3787              		.section	.rodata.__func__.22,"a"
 3788              		.set	.LANCHOR69,. + 0
 3791              	__func__.22:
 3792 0000 6C6F7261 		.ascii	"lorawan_api_get_network_type\000"
 3792      77616E5F 
 3792      6170695F 
 3792      6765745F 
 3792      6E657477 
 3793              		.section	.rodata.__func__.23,"a"
 3794              		.set	.LANCHOR68,. + 0
 3797              	__func__.23:
 3798 0000 6C6F7261 		.ascii	"lorawan_api_set_network_type\000"
 3798      77616E5F 
 3798      6170695F 
 3798      7365745F 
 3798      6E657477 
 3799              		.section	.rodata.__func__.24,"a"
 3800              		.set	.LANCHOR67,. + 0
 3803              	__func__.24:
 3804 0000 6C6F7261 		.ascii	"lorawan_api_stack_mac_get\000"
 3804      77616E5F 
 3804      6170695F 
 3804      73746163 
 3804      6B5F6D61 
 3805              		.section	.rodata.__func__.25,"a"
 3806              		.set	.LANCHOR66,. + 0
 3809              	__func__.25:
 3810 0000 6C6F7261 		.ascii	"lorawan_api_available_link_adr_get\000"
 3810      77616E5F 
 3810      6170695F 
 3810      61766169 
 3810      6C61626C 
 3811              		.section	.rodata.__func__.26,"a"
 3812              		.set	.LANCHOR65,. + 0
 3815              	__func__.26:
 3816 0000 6C6F7261 		.ascii	"lorawan_api_modem_certification_is_enabled\000"
 3816      77616E5F 
 3816      6170695F 
 3816      6D6F6465 
 3816      6D5F6365 
 3817              		.section	.rodata.__func__.27,"a"
 3818              		.set	.LANCHOR64,. + 0
ARM GAS  /tmp/ccg54bqa.s 			page 65


 3821              	__func__.27:
 3822 0000 6C6F7261 		.ascii	"lorawan_api_modem_certification_set\000"
 3822      77616E5F 
 3822      6170695F 
 3822      6D6F6465 
 3822      6D5F6365 
 3823              		.section	.rodata.__func__.28,"a"
 3824              		.set	.LANCHOR63,. + 0
 3827              	__func__.28:
 3828 0000 6C6F7261 		.ascii	"lorawan_api_get_current_no_rx_packet_cnt_since_s\000"
 3828      77616E5F 
 3828      6170695F 
 3828      6765745F 
 3828      63757272 
 3829              		.section	.rodata.__func__.29,"a"
 3830              		.set	.LANCHOR62,. + 0
 3833              	__func__.29:
 3834 0000 6C6F7261 		.ascii	"lorawan_api_get_current_no_rx_packet_cnt\000"
 3834      77616E5F 
 3834      6170695F 
 3834      6765745F 
 3834      63757272 
 3835              		.section	.rodata.__func__.3,"a"
 3836              		.set	.LANCHOR88,. + 0
 3839              	__func__.3:
 3840 0000 6C6F7261 		.ascii	"lorawan_api_lora_dr_to_sf_bw\000"
 3840      77616E5F 
 3840      6170695F 
 3840      6C6F7261 
 3840      5F64725F 
 3841              		.section	.rodata.__func__.30,"a"
 3842              		.set	.LANCHOR61,. + 0
 3845              	__func__.30:
 3846 0000 6C6F7261 		.ascii	"lorawan_api_get_current_no_rx_packet_in_mobile_mode"
 3846      77616E5F 
 3846      6170695F 
 3846      6765745F 
 3846      63757272 
 3847 0033 5F636E74 		.ascii	"_cnt\000"
 3847      00
 3848              		.section	.rodata.__func__.31,"a"
 3849              		.set	.LANCHOR60,. + 0
 3852              	__func__.31:
 3853 0000 6C6F7261 		.ascii	"lorawan_api_reset_no_rx_packet_in_mobile_mode_cnt\000"
 3853      77616E5F 
 3853      6170695F 
 3853      72657365 
 3853      745F6E6F 
 3854              		.section	.rodata.__func__.32,"a"
 3855              		.set	.LANCHOR59,. + 0
 3858              	__func__.32:
 3859 0000 6C6F7261 		.ascii	"lorawan_api_get_current_adr_ack_cnt\000"
 3859      77616E5F 
 3859      6170695F 
 3859      6765745F 
 3859      63757272 
 3860              		.section	.rodata.__func__.33,"a"
ARM GAS  /tmp/ccg54bqa.s 			page 66


 3861              		.set	.LANCHOR58,. + 0
 3864              	__func__.33:
 3865 0000 6C6F7261 		.ascii	"lorawan_api_get_no_rx_packet_threshold\000"
 3865      77616E5F 
 3865      6170695F 
 3865      6765745F 
 3865      6E6F5F72 
 3866              		.section	.rodata.__func__.34,"a"
 3867              		.set	.LANCHOR57,. + 0
 3870              	__func__.34:
 3871 0000 6C6F7261 		.ascii	"lorawan_api_set_no_rx_packet_threshold\000"
 3871      77616E5F 
 3871      6170695F 
 3871      7365745F 
 3871      6E6F5F72 
 3872              		.section	.rodata.__func__.35,"a"
 3873              		.set	.LANCHOR56,. + 0
 3876              	__func__.35:
 3877 0000 6C6F7261 		.ascii	"lorawan_api_multicast_b_stop_all_sessions\000"
 3877      77616E5F 
 3877      6170695F 
 3877      6D756C74 
 3877      69636173 
 3878              		.section	.rodata.__func__.36,"a"
 3879              		.set	.LANCHOR55,. + 0
 3882              	__func__.36:
 3883 0000 6C6F7261 		.ascii	"lorawan_api_multicast_b_stop_session\000"
 3883      77616E5F 
 3883      6170695F 
 3883      6D756C74 
 3883      69636173 
 3884              		.section	.rodata.__func__.37,"a"
 3885              		.set	.LANCHOR54,. + 0
 3888              	__func__.37:
 3889 0000 6C6F7261 		.ascii	"lorawan_api_multicast_b_start_session\000"
 3889      77616E5F 
 3889      6170695F 
 3889      6D756C74 
 3889      69636173 
 3890              		.section	.rodata.__func__.38,"a"
 3891              		.set	.LANCHOR53,. + 0
 3894              	__func__.38:
 3895 0000 6C6F7261 		.ascii	"lorawan_api_multicast_b_get_session_status\000"
 3895      77616E5F 
 3895      6170695F 
 3895      6D756C74 
 3895      69636173 
 3896              		.section	.rodata.__func__.39,"a"
 3897              		.set	.LANCHOR52,. + 0
 3900              	__func__.39:
 3901 0000 6C6F7261 		.ascii	"lorawan_api_multicast_c_stop_all_sessions\000"
 3901      77616E5F 
 3901      6170695F 
 3901      6D756C74 
 3901      69636173 
 3902              		.section	.rodata.__func__.4,"a"
 3903              		.set	.LANCHOR87,. + 0
ARM GAS  /tmp/ccg54bqa.s 			page 67


 3906              	__func__.4:
 3907 0000 6C6F7261 		.ascii	"lorawan_api_get_class_b_status\000"
 3907      77616E5F 
 3907      6170695F 
 3907      6765745F 
 3907      636C6173 
 3908              		.section	.rodata.__func__.40,"a"
 3909              		.set	.LANCHOR51,. + 0
 3912              	__func__.40:
 3913 0000 6C6F7261 		.ascii	"lorawan_api_multicast_c_stop_session\000"
 3913      77616E5F 
 3913      6170695F 
 3913      6D756C74 
 3913      69636173 
 3914              		.section	.rodata.__func__.41,"a"
 3915              		.set	.LANCHOR50,. + 0
 3918              	__func__.41:
 3919 0000 6C6F7261 		.ascii	"lorawan_api_multicast_c_start_session\000"
 3919      77616E5F 
 3919      6170695F 
 3919      6D756C74 
 3919      69636173 
 3920              		.section	.rodata.__func__.42,"a"
 3921              		.set	.LANCHOR49,. + 0
 3924              	__func__.42:
 3925 0000 6C6F7261 		.ascii	"lorawan_api_multicast_c_get_session_status\000"
 3925      77616E5F 
 3925      6170695F 
 3925      6D756C74 
 3925      69636173 
 3926              		.section	.rodata.__func__.43,"a"
 3927              		.set	.LANCHOR48,. + 0
 3930              	__func__.43:
 3931 0000 6C6F7261 		.ascii	"lorawan_api_multicast_get_running_status\000"
 3931      77616E5F 
 3931      6170695F 
 3931      6D756C74 
 3931      69636173 
 3932              		.section	.rodata.__func__.44,"a"
 3933              		.set	.LANCHOR47,. + 0
 3936              	__func__.44:
 3937 0000 6C6F7261 		.ascii	"lorawan_api_multicast_derive_group_keys\000"
 3937      77616E5F 
 3937      6170695F 
 3937      6D756C74 
 3937      69636173 
 3938              		.section	.rodata.__func__.45,"a"
 3939              		.set	.LANCHOR46,. + 0
 3942              	__func__.45:
 3943 0000 6C6F7261 		.ascii	"lorawan_api_multicast_get_fcnt_down_range\000"
 3943      77616E5F 
 3943      6170695F 
 3943      6D756C74 
 3943      69636173 
 3944              		.section	.rodata.__func__.46,"a"
 3945              		.set	.LANCHOR45,. + 0
 3948              	__func__.46:
ARM GAS  /tmp/ccg54bqa.s 			page 68


 3949 0000 6C6F7261 		.ascii	"lorawan_api_multicast_set_fcnt_down_range\000"
 3949      77616E5F 
 3949      6170695F 
 3949      6D756C74 
 3949      69636173 
 3950              		.section	.rodata.__func__.47,"a"
 3951              		.set	.LANCHOR44,. + 0
 3954              	__func__.47:
 3955 0000 6C6F7261 		.ascii	"lorawan_api_multicast_get_group_address\000"
 3955      77616E5F 
 3955      6170695F 
 3955      6D756C74 
 3955      69636173 
 3956              		.section	.rodata.__func__.48,"a"
 3957              		.set	.LANCHOR43,. + 0
 3960              	__func__.48:
 3961 0000 6C6F7261 		.ascii	"lorawan_api_multicast_set_group_address\000"
 3961      77616E5F 
 3961      6170695F 
 3961      6D756C74 
 3961      69636173 
 3962              		.section	.rodata.__func__.49,"a"
 3963              		.set	.LANCHOR42,. + 0
 3966              	__func__.49:
 3967 0000 6C6F7261 		.ascii	"lorawan_api_fcnt_up_get\000"
 3967      77616E5F 
 3967      6170695F 
 3967      66636E74 
 3967      5F75705F 
 3968              		.section	.rodata.__func__.5,"a"
 3969              		.set	.LANCHOR86,. + 0
 3972              	__func__.5:
 3973 0000 6C6F7261 		.ascii	"lorawan_api_get_ping_slot_periodicity\000"
 3973      77616E5F 
 3973      6170695F 
 3973      6765745F 
 3973      70696E67 
 3974              		.section	.rodata.__func__.50,"a"
 3975              		.set	.LANCHOR41,. + 0
 3978              	__func__.50:
 3979 0000 6C6F7261 		.ascii	"lorawan_api_next_network_free_duty_cycle_ms_get\000"
 3979      77616E5F 
 3979      6170695F 
 3979      6E657874 
 3979      5F6E6574 
 3980              		.section	.rodata.__func__.51,"a"
 3981              		.set	.LANCHOR40,. + 0
 3984              	__func__.51:
 3985 0000 6C6F7261 		.ascii	"lorawan_api_is_dtc_supported\000"
 3985      77616E5F 
 3985      6170695F 
 3985      69735F64 
 3985      74635F73 
 3986              		.section	.rodata.__func__.52,"a"
 3987              		.set	.LANCHOR39,. + 0
 3990              	__func__.52:
 3991 0000 6C6F7261 		.ascii	"lorawan_api_next_join_time_second_get\000"
ARM GAS  /tmp/ccg54bqa.s 			page 69


 3991      77616E5F 
 3991      6170695F 
 3991      6E657874 
 3991      5F6A6F69 
 3992              		.section	.rodata.__func__.53,"a"
 3993              		.set	.LANCHOR38,. + 0
 3996              	__func__.53:
 3997 0000 6C6F7261 		.ascii	"lorawan_api_devnonce_get\000"
 3997      77616E5F 
 3997      6170695F 
 3997      6465766E 
 3997      6F6E6365 
 3998              		.section	.rodata.__func__.54,"a"
 3999              		.set	.LANCHOR37,. + 0
 4002              	__func__.54:
 4003 0000 6C6F7261 		.ascii	"lorawan_api_state_get\000"
 4003      77616E5F 
 4003      6170695F 
 4003      73746174 
 4003      655F6765 
 4004              		.section	.rodata.__func__.55,"a"
 4005              		.set	.LANCHOR36,. + 0
 4008              	__func__.55:
 4009 0000 6C6F7261 		.ascii	"lorawan_api_min_tx_dr_get\000"
 4009      77616E5F 
 4009      6170695F 
 4009      6D696E5F 
 4009      74785F64 
 4010              		.section	.rodata.__func__.56,"a"
 4011              		.set	.LANCHOR35,. + 0
 4014              	__func__.56:
 4015 0000 6C6F7261 		.ascii	"lorawan_api_mask_tx_dr_channel_up_dwell_time_check\000"
 4015      77616E5F 
 4015      6170695F 
 4015      6D61736B 
 4015      5F74785F 
 4016              		.section	.rodata.__func__.57,"a"
 4017              		.set	.LANCHOR34,. + 0
 4020              	__func__.57:
 4021 0000 6C6F7261 		.ascii	"lorawan_api_max_tx_dr_get\000"
 4021      77616E5F 
 4021      6170695F 
 4021      6D61785F 
 4021      74785F64 
 4022              		.section	.rodata.__func__.58,"a"
 4023              		.set	.LANCHOR33,. + 0
 4026              	__func__.58:
 4027 0000 6C6F7261 		.ascii	"lorawan_api_next_frequency_get\000"
 4027      77616E5F 
 4027      6170695F 
 4027      6E657874 
 4027      5F667265 
 4028              		.section	.rodata.__func__.59,"a"
 4029              		.set	.LANCHOR32,. + 0
 4032              	__func__.59:
 4033 0000 6C6F7261 		.ascii	"lorawan_api_get_modulation_type_from_datarate\000"
 4033      77616E5F 
ARM GAS  /tmp/ccg54bqa.s 			page 70


 4033      6170695F 
 4033      6765745F 
 4033      6D6F6475 
 4034              		.section	.rodata.__func__.6,"a"
 4035              		.set	.LANCHOR85,. + 0
 4038              	__func__.6:
 4039 0000 6C6F7261 		.ascii	"lorawan_api_set_ping_slot_periodicity\000"
 4039      77616E5F 
 4039      6170695F 
 4039      7365745F 
 4039      70696E67 
 4040              		.section	.rodata.__func__.60,"a"
 4041              		.set	.LANCHOR31,. + 0
 4044              	__func__.60:
 4045 0000 6C6F7261 		.ascii	"lorawan_api_next_dr_get\000"
 4045      77616E5F 
 4045      6170695F 
 4045      6E657874 
 4045      5F64725F 
 4046              		.section	.rodata.__func__.61,"a"
 4047              		.set	.LANCHOR30,. + 0
 4050              	__func__.61:
 4051 0000 6C6F7261 		.ascii	"lorawan_api_next_power_get\000"
 4051      77616E5F 
 4051      6170695F 
 4051      6E657874 
 4051      5F706F77 
 4052              		.section	.rodata.__func__.62,"a"
 4053              		.set	.LANCHOR29,. + 0
 4056              	__func__.62:
 4057 0000 6C6F7261 		.ascii	"lorawan_api_set_nwkkey\000"
 4057      77616E5F 
 4057      6170695F 
 4057      7365745F 
 4057      6E776B6B 
 4058              		.section	.rodata.__func__.63,"a"
 4059              		.set	.LANCHOR28,. + 0
 4062              	__func__.63:
 4063 0000 6C6F7261 		.ascii	"lorawan_api_set_appkey\000"
 4063      77616E5F 
 4063      6170695F 
 4063      7365745F 
 4063      6170706B 
 4064              		.section	.rodata.__func__.64,"a"
 4065              		.set	.LANCHOR27,. + 0
 4068              	__func__.64:
 4069 0000 6C6F7261 		.ascii	"lorawan_api_set_joineui\000"
 4069      77616E5F 
 4069      6170695F 
 4069      7365745F 
 4069      6A6F696E 
 4070              		.section	.rodata.__func__.65,"a"
 4071              		.set	.LANCHOR26,. + 0
 4074              	__func__.65:
 4075 0000 6C6F7261 		.ascii	"lorawan_api_get_joineui\000"
 4075      77616E5F 
 4075      6170695F 
ARM GAS  /tmp/ccg54bqa.s 			page 71


 4075      6765745F 
 4075      6A6F696E 
 4076              		.section	.rodata.__func__.66,"a"
 4077              		.set	.LANCHOR25,. + 0
 4080              	__func__.66:
 4081 0000 6C6F7261 		.ascii	"lorawan_api_set_deveui\000"
 4081      77616E5F 
 4081      6170695F 
 4081      7365745F 
 4081      64657665 
 4082              		.section	.rodata.__func__.67,"a"
 4083              		.set	.LANCHOR24,. + 0
 4086              	__func__.67:
 4087 0000 6C6F7261 		.ascii	"lorawan_api_get_deveui\000"
 4087      77616E5F 
 4087      6170695F 
 4087      6765745F 
 4087      64657665 
 4088              		.section	.rodata.__func__.68,"a"
 4089              		.set	.LANCHOR23,. + 0
 4092              	__func__.68:
 4093 0000 6C6F7261 		.ascii	"lorawan_api_devaddr_set\000"
 4093      77616E5F 
 4093      6170695F 
 4093      64657661 
 4093      6464725F 
 4094              		.section	.rodata.__func__.69,"a"
 4095              		.set	.LANCHOR22,. + 0
 4098              	__func__.69:
 4099 0000 6C6F7261 		.ascii	"lorawan_api_devaddr_get\000"
 4099      77616E5F 
 4099      6170695F 
 4099      64657661 
 4099      6464725F 
 4100              		.section	.rodata.__func__.7,"a"
 4101              		.set	.LANCHOR84,. + 0
 4104              	__func__.7:
 4105 0000 6C6F7261 		.ascii	"lorawan_api_get_ping_slot_info_req_status\000"
 4105      77616E5F 
 4105      6170695F 
 4105      6765745F 
 4105      70696E67 
 4106              		.section	.rodata.__func__.70,"a"
 4107              		.set	.LANCHOR21,. + 0
 4110              	__func__.70:
 4111 0000 6C6F7261 		.ascii	"lorawan_api_next_max_payload_length_get\000"
 4111      77616E5F 
 4111      6170695F 
 4111      6E657874 
 4111      5F6D6178 
 4112              		.section	.rodata.__func__.71,"a"
 4113              		.set	.LANCHOR20,. + 0
 4116              	__func__.71:
 4117 0000 6C6F7261 		.ascii	"lorawan_api_set_activation_mode\000"
 4117      77616E5F 
 4117      6170695F 
 4117      7365745F 
ARM GAS  /tmp/ccg54bqa.s 			page 72


 4117      61637469 
 4118              		.section	.rodata.__func__.72,"a"
 4119              		.set	.LANCHOR19,. + 0
 4122              	__func__.72:
 4123 0000 6C6F7261 		.ascii	"lorawan_api_get_activation_mode\000"
 4123      77616E5F 
 4123      6170695F 
 4123      6765745F 
 4123      61637469 
 4124              		.section	.rodata.__func__.73,"a"
 4125              		.set	.LANCHOR18,. + 0
 4128              	__func__.73:
 4129 0000 6C6F7261 		.ascii	"lorawan_api_factory_reset\000"
 4129      77616E5F 
 4129      6170695F 
 4129      66616374 
 4129      6F72795F 
 4130              		.section	.rodata.__func__.74,"a"
 4131              		.set	.LANCHOR17,. + 0
 4134              	__func__.74:
 4135 0000 6C6F7261 		.ascii	"lorawan_api_context_load\000"
 4135      77616E5F 
 4135      6170695F 
 4135      636F6E74 
 4135      6578745F 
 4136              		.section	.rodata.__func__.75,"a"
 4137              		.set	.LANCHOR16,. + 0
 4140              	__func__.75:
 4141 0000 6C6F7261 		.ascii	"lorawan_api_process\000"
 4141      77616E5F 
 4141      6170695F 
 4141      70726F63 
 4141      65737300 
 4142              		.section	.rodata.__func__.76,"a"
 4143              		.set	.LANCHOR15,. + 0
 4146              	__func__.76:
 4147 0000 6C6F7261 		.ascii	"lorawan_api_dr_join_distribution_set\000"
 4147      77616E5F 
 4147      6170695F 
 4147      64725F6A 
 4147      6F696E5F 
 4148              		.section	.rodata.__func__.77,"a"
 4149              		.set	.LANCHOR14,. + 0
 4152              	__func__.77:
 4153 0000 6C6F7261 		.ascii	"lorawan_api_dr_custom_get\000"
 4153      77616E5F 
 4153      6170695F 
 4153      64725F63 
 4153      7573746F 
 4154              		.section	.rodata.__func__.78,"a"
 4155              		.set	.LANCHOR13,. + 0
 4158              	__func__.78:
 4159 0000 6C6F7261 		.ascii	"lorawan_api_dr_custom_set\000"
 4159      77616E5F 
 4159      6170695F 
 4159      64725F63 
 4159      7573746F 
ARM GAS  /tmp/ccg54bqa.s 			page 73


 4160              		.section	.rodata.__func__.79,"a"
 4161              		.set	.LANCHOR12,. + 0
 4164              	__func__.79:
 4165 0000 6C6F7261 		.ascii	"lorawan_api_dr_strategy_get\000"
 4165      77616E5F 
 4165      6170695F 
 4165      64725F73 
 4165      74726174 
 4166              		.section	.rodata.__func__.8,"a"
 4167              		.set	.LANCHOR83,. + 0
 4170              	__func__.8:
 4171 0000 6C6F7261 		.ascii	"lorawan_api_get_device_time_req_status\000"
 4171      77616E5F 
 4171      6170695F 
 4171      6765745F 
 4171      64657669 
 4172              		.section	.rodata.__func__.80,"a"
 4173              		.set	.LANCHOR11,. + 0
 4176              	__func__.80:
 4177 0000 6C6F7261 		.ascii	"lorawan_api_dr_strategy_set\000"
 4177      77616E5F 
 4177      6170695F 
 4177      64725F73 
 4177      74726174 
 4178              		.section	.rodata.__func__.81,"a"
 4179              		.set	.LANCHOR10,. + 0
 4182              	__func__.81:
 4183 0000 6C6F7261 		.ascii	"lorawan_api_join_status_clear\000"
 4183      77616E5F 
 4183      6170695F 
 4183      6A6F696E 
 4183      5F737461 
 4184              		.section	.rodata.__func__.82,"a"
 4185              		.set	.LANCHOR9,. + 0
 4188              	__func__.82:
 4189 0000 6C6F7261 		.ascii	"lorawan_api_isjoined\000"
 4189      77616E5F 
 4189      6170695F 
 4189      69736A6F 
 4189      696E6564 
 4190              		.section	.rodata.__func__.83,"a"
 4191              		.set	.LANCHOR8,. + 0
 4194              	__func__.83:
 4195 0000 6C6F7261 		.ascii	"lorawan_api_join\000"
 4195      77616E5F 
 4195      6170695F 
 4195      6A6F696E 
 4195      00
 4196              		.section	.rodata.__func__.84,"a"
 4197              		.set	.LANCHOR7,. + 0
 4200              	__func__.84:
 4201 0000 6C6F7261 		.ascii	"lorawan_api_send_stack_cid_req\000"
 4201      77616E5F 
 4201      6170695F 
 4201      73656E64 
 4201      5F737461 
 4202              		.section	.rodata.__func__.85,"a"
ARM GAS  /tmp/ccg54bqa.s 			page 74


 4203              		.set	.LANCHOR6,. + 0
 4206              	__func__.85:
 4207 0000 6C6F7261 		.ascii	"lorawan_api_payload_send_at_time\000"
 4207      77616E5F 
 4207      6170695F 
 4207      7061796C 
 4207      6F61645F 
 4208              		.section	.rodata.__func__.86,"a"
 4209              		.set	.LANCHOR5,. + 0
 4212              	__func__.86:
 4213 0000 6C6F7261 		.ascii	"lorawan_api_payload_send\000"
 4213      77616E5F 
 4213      6170695F 
 4213      7061796C 
 4213      6F61645F 
 4214              		.section	.rodata.__func__.87,"a"
 4215              		.set	.LANCHOR2,. + 0
 4218              	__func__.87:
 4219 0000 6C6F7261 		.ascii	"lorawan_api_set_region\000"
 4219      77616E5F 
 4219      6170695F 
 4219      7365745F 
 4219      72656769 
 4220              		.section	.rodata.__func__.88,"a"
 4221              		.set	.LANCHOR1,. + 0
 4224              	__func__.88:
 4225 0000 6C6F7261 		.ascii	"lorawan_api_get_region\000"
 4225      77616E5F 
 4225      6170695F 
 4225      6765745F 
 4225      72656769 
 4226              		.section	.rodata.__func__.89,"a"
 4227              		.set	.LANCHOR0,. + 0
 4230              	__func__.89:
 4231 0000 6C6F7261 		.ascii	"lorawan_api_init\000"
 4231      77616E5F 
 4231      6170695F 
 4231      696E6974 
 4231      00
 4232              		.section	.rodata.__func__.9,"a"
 4233              		.set	.LANCHOR82,. + 0
 4236              	__func__.9:
 4237 0000 6C6F7261 		.ascii	"lorawan_api_get_link_check_ans\000"
 4237      77616E5F 
 4237      6170695F 
 4237      6765745F 
 4237      6C696E6B 
 4238              		.section	.rodata.duty_cycle_by_band_eu_868,"a"
 4239              		.align	2
 4240              		.set	.LANCHOR4,. + 0
 4243              	duty_cycle_by_band_eu_868:
 4244 0000 E803     		.short	1000
 4245 0002 6400     		.short	100
 4246 0004 6400     		.short	100
 4247 0006 E803     		.short	1000
 4248 0008 0A00     		.short	10
 4249 000a 6400     		.short	100
ARM GAS  /tmp/ccg54bqa.s 			page 75


 4250              		.section	.rodata.frequency_range_by_band_eu_868,"a"
 4251              		.align	2
 4252              		.set	.LANCHOR3,. + 0
 4255              	frequency_range_by_band_eu_868:
 4256 0000 C0557033 		.word	863000000
 4257 0004 40DA8E33 		.word	865000000
 4258 0008 40DA8E33 		.word	865000000
 4259 000c 01A1BC33 		.word	868000001
 4260 0010 01A1BC33 		.word	868000001
 4261 0014 C1C8C533 		.word	868600001
 4262 0018 604FC733 		.word	868700000
 4263 001c 81F0CE33 		.word	869200001
 4264 0020 C0FDD133 		.word	869400000
 4265 0024 51CED533 		.word	869650001
 4266 0028 A091D633 		.word	869700000
 4267 002c 8125DB33 		.word	870000001
 4268              		.ident	"GCC: (15:10.3-2021.07-4) 10.3.1 20210621 (release)"
ARM GAS  /tmp/ccg54bqa.s 			page 76

