ARM GAS  /tmp/ccAFBIk9.s 			page 1


   1              		.cpu cortex-m0plus
   2              		.eabi_attribute 23, 1
   3              		.eabi_attribute 24, 1
   4              		.eabi_attribute 25, 1
   5              		.eabi_attribute 26, 1
   6              		.eabi_attribute 30, 4
   7              		.eabi_attribute 34, 0
   8              		.eabi_attribute 18, 4
   9              		.file	"lr1_stack_mac_layer.c"
  10              		.text
  11              		.section	.text.ral_compute_lora_ldro,"ax",%progbits
  12              		.align	1
  13              		.arch armv6s-m
  14              		.syntax unified
  15              		.code	16
  16              		.thumb_func
  17              		.fpu softvfp
  19              	ral_compute_lora_ldro:
  20              		@ args = 0, pretend = 0, frame = 0
  21              		@ frame_needed = 0, uses_anonymous_args = 0
  22 0000 0300     		movs	r3, r0
  23 0002 00B5     		push	{lr}
  24 0004 0800     		movs	r0, r1
  25 0006 0C29     		cmp	r1, #12
  26 0008 21D8     		bhi	.L9
  27 000a FFF7FEFF 		bl	__gnu_thumb1_case_uqi
  28              	.L4:
  29 000e 07       		.byte	(.L8-.L4)/2
  30 000f 07       		.byte	(.L8-.L4)/2
  31 0010 07       		.byte	(.L8-.L4)/2
  32 0011 07       		.byte	(.L8-.L4)/2
  33 0012 07       		.byte	(.L8-.L4)/2
  34 0013 1B       		.byte	(.L7-.L4)/2
  35 0014 16       		.byte	(.L6-.L4)/2
  36 0015 0E       		.byte	(.L3-.L4)/2
  37 0016 0E       		.byte	(.L3-.L4)/2
  38 0017 09       		.byte	(.L5-.L4)/2
  39 0018 0E       		.byte	(.L3-.L4)/2
  40 0019 20       		.byte	(.L9-.L4)/2
  41 001a 0E       		.byte	(.L3-.L4)/2
  42 001b 00       		.p2align 1
  43              	.L8:
  44 001c 0120     		movs	r0, #1
  45              	.L2:
  46              		@ sp needed
  47 001e 00BD     		pop	{pc}
  48              	.L5:
  49 0020 0C3B     		subs	r3, r3, #12
  50 0022 5A42     		rsbs	r2, r3, #0
  51 0024 5341     		adcs	r3, r3, r2
  52 0026 D8B2     		uxtb	r0, r3
  53 0028 F9E7     		b	.L2
  54              	.L3:
  55 002a 0020     		movs	r0, #0
  56 002c 0122     		movs	r2, #1
  57 002e 0B3B     		subs	r3, r3, #11
  58 0030 DBB2     		uxtb	r3, r3
ARM GAS  /tmp/ccAFBIk9.s 			page 2


  59              	.L10:
  60 0032 9A42     		cmp	r2, r3
  61 0034 4041     		adcs	r0, r0, r0
  62 0036 C0B2     		uxtb	r0, r0
  63 0038 F1E7     		b	.L2
  64              	.L6:
  65 003a 0A3B     		subs	r3, r3, #10
  66 003c 0020     		movs	r0, #0
  67 003e 0222     		movs	r2, #2
  68 0040 DBB2     		uxtb	r3, r3
  69 0042 F6E7     		b	.L10
  70              	.L7:
  71 0044 093B     		subs	r3, r3, #9
  72 0046 0020     		movs	r0, #0
  73 0048 0322     		movs	r2, #3
  74 004a DBB2     		uxtb	r3, r3
  75 004c F1E7     		b	.L10
  76              	.L9:
  77 004e 0020     		movs	r0, #0
  78 0050 E5E7     		b	.L2
  80              		.section	.text.ral_set_dio_irq_params,"ax",%progbits
  81              		.align	1
  82              		.syntax unified
  83              		.code	16
  84              		.thumb_func
  85              		.fpu softvfp
  87              	ral_set_dio_irq_params:
  88              		@ args = 0, pretend = 0, frame = 0
  89              		@ frame_needed = 0, uses_anonymous_args = 0
  90 0000 10B5     		push	{r4, lr}
  91 0002 036E     		ldr	r3, [r0, #96]
  92 0004 0068     		ldr	r0, [r0]
  93 0006 9847     		blx	r3
  94              		@ sp needed
  95 0008 10BD     		pop	{r4, pc}
  97              		.section	.rodata.lr1_stack_mac_tx_lora_launch_callback_for_rp.str1.1,"aMS",%progbits,1
  98              	.LC0:
  99 0000 72616C66 		.ascii	"ralf_setup_lora( rp->radio, &rp->radio_params[id].t"
  99      5F736574 
  99      75705F6C 
  99      6F726128 
  99      2072702D 
 100 0033 782E6C6F 		.ascii	"x.lora ) == RAL_STATUS_OK\000"
 100      72612029 
 100      203D3D20 
 100      52414C5F 
 100      53544154 
 101              	.LC3:
 102 004d 72616C5F 		.ascii	"ral_set_dio_irq_params( &( rp->radio->ral ), RAL_IR"
 102      7365745F 
 102      64696F5F 
 102      6972715F 
 102      70617261 
 103 0080 515F5458 		.ascii	"Q_TX_DONE ) == RAL_STATUS_OK\000"
 103      5F444F4E 
 103      45202920 
 103      3D3D2052 
ARM GAS  /tmp/ccAFBIk9.s 			page 3


 103      414C5F53 
 104              	.LC5:
 105 009d 72616C5F 		.ascii	"ral_set_pkt_payload( &( rp->radio->ral ), rp->paylo"
 105      7365745F 
 105      706B745F 
 105      7061796C 
 105      6F616428 
 106 00d0 61645B69 		.ascii	"ad[id], rp->payload_buffer_size[id] ) == RAL_STATUS"
 106      645D2C20 
 106      72702D3E 
 106      7061796C 
 106      6F61645F 
 107 0103 5F4F4B00 		.ascii	"_OK\000"
 108              	.LC7:
 109 0107 72616C5F 		.ascii	"ral_set_tx( &( rp->radio->ral ) ) == RAL_STATUS_OK\000"
 109      7365745F 
 109      74782820 
 109      26282072 
 109      702D3E72 
 110              		.section	.text.lr1_stack_mac_tx_lora_launch_callback_for_rp,"ax",%progbits
 111              		.align	1
 112              		.global	lr1_stack_mac_tx_lora_launch_callback_for_rp
 113              		.syntax unified
 114              		.code	16
 115              		.thumb_func
 116              		.fpu softvfp
 118              	lr1_stack_mac_tx_lora_launch_callback_for_rp:
 119              		@ args = 0, pretend = 0, frame = 0
 120              		@ frame_needed = 0, uses_anonymous_args = 0
 121 0000 9323     		movs	r3, #147
 122 0002 8C21     		movs	r1, #140
 123 0004 70B5     		push	{r4, r5, r6, lr}
 124 0006 9825     		movs	r5, #152
 125 0008 DB00     		lsls	r3, r3, #3
 126 000a C65C     		ldrb	r6, [r0, r3]
 127 000c ED00     		lsls	r5, r5, #3
 128 000e 7143     		muls	r1, r6
 129 0010 4359     		ldr	r3, [r0, r5]
 130 0012 1C31     		adds	r1, r1, #28
 131 0014 FC33     		adds	r3, r3, #252
 132 0016 0400     		movs	r4, r0
 133 0018 4118     		adds	r1, r0, r1
 134 001a 9B68     		ldr	r3, [r3, #8]
 135 001c 4059     		ldr	r0, [r0, r5]
 136 001e 9847     		blx	r3
 137 0020 0028     		cmp	r0, #0
 138 0022 04D0     		beq	.L13
 139 0024 FB21     		movs	r1, #251
 140 0026 264A     		ldr	r2, .L31
 141 0028 2648     		ldr	r0, .L31+4
 142 002a FFF7FEFF 		bl	smtc_modem_hal_on_panic
 143              	.L13:
 144 002e 0221     		movs	r1, #2
 145 0030 6059     		ldr	r0, [r4, r5]
 146 0032 FFF7FEFF 		bl	ral_set_dio_irq_params
 147 0036 0028     		cmp	r0, #0
 148 0038 04D0     		beq	.L14
ARM GAS  /tmp/ccAFBIk9.s 			page 4


 149 003a FC21     		movs	r1, #252
 150 003c 224A     		ldr	r2, .L31+8
 151 003e 2148     		ldr	r0, .L31+4
 152 0040 FFF7FEFF 		bl	smtc_modem_hal_on_panic
 153              	.L14:
 154 0044 9823     		movs	r3, #152
 155 0046 DB00     		lsls	r3, r3, #3
 156 0048 E058     		ldr	r0, [r4, r3]
 157 004a 3300     		movs	r3, r6
 158 004c B533     		adds	r3, r3, #181
 159 004e FF33     		adds	r3, r3, #255
 160 0050 5B00     		lsls	r3, r3, #1
 161 0052 E318     		adds	r3, r4, r3
 162 0054 5A88     		ldrh	r2, [r3, #2]
 163 0056 3300     		movs	r3, r6
 164 0058 D233     		adds	r3, r3, #210
 165 005a 9B00     		lsls	r3, r3, #2
 166 005c E318     		adds	r3, r4, r3
 167 005e C56C     		ldr	r5, [r0, #76]
 168 0060 5968     		ldr	r1, [r3, #4]
 169 0062 0068     		ldr	r0, [r0]
 170 0064 A847     		blx	r5
 171 0066 0028     		cmp	r0, #0
 172 0068 04D0     		beq	.L15
 173 006a FD21     		movs	r1, #253
 174 006c 174A     		ldr	r2, .L31+12
 175 006e 1548     		ldr	r0, .L31+4
 176 0070 FFF7FEFF 		bl	smtc_modem_hal_on_panic
 177              	.L15:
 178 0074 1825     		movs	r5, #24
 179 0076 B823     		movs	r3, #184
 180 0078 6E43     		muls	r6, r5
 181 007a 9B00     		lsls	r3, r3, #2
 182 007c A619     		adds	r6, r4, r6
 183 007e F518     		adds	r5, r6, r3
 184              	.L16:
 185 0080 2E68     		ldr	r6, [r5]
 186 0082 FFF7FEFF 		bl	smtc_modem_hal_get_time_in_ms
 187 0086 361A     		subs	r6, r6, r0
 188 0088 002E     		cmp	r6, #0
 189 008a F9DC     		bgt	.L16
 190 008c FFF7FEFF 		bl	smtc_modem_hal_start_radio_tcxo
 191 0090 0120     		movs	r0, #1
 192 0092 FFF7FEFF 		bl	smtc_modem_hal_set_ant_switch
 193 0096 9823     		movs	r3, #152
 194 0098 DB00     		lsls	r3, r3, #3
 195 009a E358     		ldr	r3, [r4, r3]
 196 009c 1A6A     		ldr	r2, [r3, #32]
 197 009e 1868     		ldr	r0, [r3]
 198 00a0 9047     		blx	r2
 199 00a2 0028     		cmp	r0, #0
 200 00a4 05D0     		beq	.L17
 201 00a6 0821     		movs	r1, #8
 202 00a8 094A     		ldr	r2, .L31+16
 203 00aa 0648     		ldr	r0, .L31+4
 204 00ac FF31     		adds	r1, r1, #255
 205 00ae FFF7FEFF 		bl	smtc_modem_hal_on_panic
ARM GAS  /tmp/ccAFBIk9.s 			page 5


 206              	.L17:
 207              		@ sp needed
 208 00b2 FFF7FEFF 		bl	smtc_modem_hal_get_time_in_ms
 209 00b6 074B     		ldr	r3, .L31+20
 210 00b8 E418     		adds	r4, r4, r3
 211 00ba 2060     		str	r0, [r4]
 212 00bc 70BD     		pop	{r4, r5, r6, pc}
 213              	.L32:
 214 00be C046     		.align	2
 215              	.L31:
 216 00c0 00000000 		.word	.LC0
 217 00c4 00000000 		.word	.LANCHOR0
 218 00c8 4D000000 		.word	.LC3
 219 00cc 9D000000 		.word	.LC5
 220 00d0 07010000 		.word	.LC7
 221 00d4 6C040000 		.word	1132
 223              		.section	.rodata.lr1_stack_mac_rx_lora_launch_callback_for_rp.str1.1,"aMS",%progbits,1
 224              	.LC9:
 225 0000 72616C66 		.ascii	"ralf_setup_lora( rp->radio, &rp->radio_params[id].r"
 225      5F736574 
 225      75705F6C 
 225      6F726128 
 225      2072702D 
 226 0033 782E6C6F 		.ascii	"x.lora ) == RAL_STATUS_OK\000"
 226      72612029 
 226      203D3D20 
 226      52414C5F 
 226      53544154 
 227              	.LC12:
 228 004d 72616C5F 		.ascii	"ral_set_dio_irq_params( &( rp->radio->ral ), RAL_IR"
 228      7365745F 
 228      64696F5F 
 228      6972715F 
 228      70617261 
 229 0080 515F5258 		.ascii	"Q_RX_DONE | RAL_IRQ_RX_TIMEOUT | RAL_IRQ_RX_HDR_ERR"
 229      5F444F4E 
 229      45207C20 
 229      52414C5F 
 229      4952515F 
 230 00b3 4F52207C 		.ascii	"OR | RAL_IRQ_RX_CRC_ERROR ) == RAL_STATUS_OK\000"
 230      2052414C 
 230      5F495251 
 230      5F52585F 
 230      4352435F 
 231              	.LC14:
 232 00e0 72616C5F 		.ascii	"ral_set_rx( &( rp->radio->ral ), rp->radio_params[i"
 232      7365745F 
 232      72782820 
 232      26282072 
 232      702D3E72 
 233 0113 645D2E72 		.ascii	"d].rx.timeout_in_ms ) == RAL_STATUS_OK\000"
 233      782E7469 
 233      6D656F75 
 233      745F696E 
 233      5F6D7320 
 234              		.section	.text.lr1_stack_mac_rx_lora_launch_callback_for_rp,"ax",%progbits
 235              		.align	1
ARM GAS  /tmp/ccAFBIk9.s 			page 6


 236              		.global	lr1_stack_mac_rx_lora_launch_callback_for_rp
 237              		.syntax unified
 238              		.code	16
 239              		.thumb_func
 240              		.fpu softvfp
 242              	lr1_stack_mac_rx_lora_launch_callback_for_rp:
 243              		@ args = 0, pretend = 0, frame = 0
 244              		@ frame_needed = 0, uses_anonymous_args = 0
 245 0000 F8B5     		push	{r3, r4, r5, r6, r7, lr}
 246 0002 9323     		movs	r3, #147
 247 0004 8C21     		movs	r1, #140
 248 0006 9825     		movs	r5, #152
 249 0008 DB00     		lsls	r3, r3, #3
 250 000a C65C     		ldrb	r6, [r0, r3]
 251 000c ED00     		lsls	r5, r5, #3
 252 000e 7143     		muls	r1, r6
 253 0010 4359     		ldr	r3, [r0, r5]
 254 0012 4831     		adds	r1, r1, #72
 255 0014 FC33     		adds	r3, r3, #252
 256 0016 0400     		movs	r4, r0
 257 0018 4118     		adds	r1, r0, r1
 258 001a 9B68     		ldr	r3, [r3, #8]
 259 001c 4059     		ldr	r0, [r0, r5]
 260 001e 9847     		blx	r3
 261 0020 0028     		cmp	r0, #0
 262 0022 05D0     		beq	.L34
 263 0024 A121     		movs	r1, #161
 264 0026 1D4A     		ldr	r2, .L48
 265 0028 1D48     		ldr	r0, .L48+4
 266 002a 4900     		lsls	r1, r1, #1
 267 002c FFF7FEFF 		bl	smtc_modem_hal_on_panic
 268              	.L34:
 269 0030 CC21     		movs	r1, #204
 270 0032 6059     		ldr	r0, [r4, r5]
 271 0034 FFF7FEFF 		bl	ral_set_dio_irq_params
 272 0038 0028     		cmp	r0, #0
 273 003a 05D0     		beq	.L35
 274 003c 4421     		movs	r1, #68
 275 003e 194A     		ldr	r2, .L48+8
 276 0040 1748     		ldr	r0, .L48+4
 277 0042 FF31     		adds	r1, r1, #255
 278 0044 FFF7FEFF 		bl	smtc_modem_hal_on_panic
 279              	.L35:
 280 0048 1825     		movs	r5, #24
 281 004a B823     		movs	r3, #184
 282 004c 7543     		muls	r5, r6
 283 004e 9B00     		lsls	r3, r3, #2
 284 0050 6519     		adds	r5, r4, r5
 285 0052 ED18     		adds	r5, r5, r3
 286              	.L36:
 287 0054 2F68     		ldr	r7, [r5]
 288 0056 FFF7FEFF 		bl	smtc_modem_hal_get_time_in_ms
 289 005a 3F1A     		subs	r7, r7, r0
 290 005c 002F     		cmp	r7, #0
 291 005e F9DC     		bgt	.L36
 292 0060 FFF7FEFF 		bl	smtc_modem_hal_start_radio_tcxo
 293 0064 0020     		movs	r0, #0
ARM GAS  /tmp/ccAFBIk9.s 			page 7


 294 0066 FFF7FEFF 		bl	smtc_modem_hal_set_ant_switch
 295 006a 9823     		movs	r3, #152
 296 006c DB00     		lsls	r3, r3, #3
 297 006e E258     		ldr	r2, [r4, r3]
 298 0070 8C23     		movs	r3, #140
 299 0072 5E43     		muls	r6, r3
 300 0074 A619     		adds	r6, r4, r6
 301 0076 536A     		ldr	r3, [r2, #36]
 302 0078 716F     		ldr	r1, [r6, #116]
 303 007a 1068     		ldr	r0, [r2]
 304 007c 9847     		blx	r3
 305 007e 0028     		cmp	r0, #0
 306 0080 05D0     		beq	.L37
 307 0082 4E21     		movs	r1, #78
 308 0084 084A     		ldr	r2, .L48+12
 309 0086 0648     		ldr	r0, .L48+4
 310 0088 FF31     		adds	r1, r1, #255
 311 008a FFF7FEFF 		bl	smtc_modem_hal_on_panic
 312              	.L37:
 313              		@ sp needed
 314 008e FFF7FEFF 		bl	smtc_modem_hal_get_time_in_ms
 315 0092 8E23     		movs	r3, #142
 316 0094 DB00     		lsls	r3, r3, #3
 317 0096 E418     		adds	r4, r4, r3
 318 0098 2060     		str	r0, [r4]
 319 009a F8BD     		pop	{r3, r4, r5, r6, r7, pc}
 320              	.L49:
 321              		.align	2
 322              	.L48:
 323 009c 00000000 		.word	.LC9
 324 00a0 00000000 		.word	.LANCHOR1
 325 00a4 4D000000 		.word	.LC12
 326 00a8 E0000000 		.word	.LC14
 328              		.section	.rodata.lr1_stack_mac_rx_gfsk_launch_callback_for_rp.str1.1,"aMS",%progbits,1
 329              	.LC16:
 330 0000 72616C66 		.ascii	"ralf_setup_gfsk( rp->radio, &rp->radio_params[id].r"
 330      5F736574 
 330      75705F67 
 330      66736B28 
 330      2072702D 
 331 0033 782E6766 		.ascii	"x.gfsk ) == RAL_STATUS_OK\000"
 331      736B2029 
 331      203D3D20 
 331      52414C5F 
 331      53544154 
 332              	.LC19:
 333 004d 72616C5F 		.ascii	"ral_set_dio_irq_params( &( rp->radio->ral ), RAL_IR"
 333      7365745F 
 333      64696F5F 
 333      6972715F 
 333      70617261 
 334 0080 515F5258 		.ascii	"Q_RX_DONE | RAL_IRQ_RX_TIMEOUT | RAL_IRQ_RX_CRC_ERR"
 334      5F444F4E 
 334      45207C20 
 334      52414C5F 
 334      4952515F 
 335 00b3 4F522029 		.ascii	"OR ) == RAL_STATUS_OK\000"
ARM GAS  /tmp/ccAFBIk9.s 			page 8


 335      203D3D20 
 335      52414C5F 
 335      53544154 
 335      55535F4F 
 336              		.section	.text.lr1_stack_mac_rx_gfsk_launch_callback_for_rp,"ax",%progbits
 337              		.align	1
 338              		.global	lr1_stack_mac_rx_gfsk_launch_callback_for_rp
 339              		.syntax unified
 340              		.code	16
 341              		.thumb_func
 342              		.fpu softvfp
 344              	lr1_stack_mac_rx_gfsk_launch_callback_for_rp:
 345              		@ args = 0, pretend = 0, frame = 0
 346              		@ frame_needed = 0, uses_anonymous_args = 0
 347 0000 F8B5     		push	{r3, r4, r5, r6, r7, lr}
 348 0002 9323     		movs	r3, #147
 349 0004 8C21     		movs	r1, #140
 350 0006 9825     		movs	r5, #152
 351 0008 DB00     		lsls	r3, r3, #3
 352 000a C65C     		ldrb	r6, [r0, r3]
 353 000c ED00     		lsls	r5, r5, #3
 354 000e 7143     		muls	r1, r6
 355 0010 4359     		ldr	r3, [r0, r5]
 356 0012 4831     		adds	r1, r1, #72
 357 0014 FC33     		adds	r3, r3, #252
 358 0016 0400     		movs	r4, r0
 359 0018 4118     		adds	r1, r0, r1
 360 001a 5B68     		ldr	r3, [r3, #4]
 361 001c 4059     		ldr	r0, [r0, r5]
 362 001e 9847     		blx	r3
 363 0020 0028     		cmp	r0, #0
 364 0022 05D0     		beq	.L51
 365 0024 5821     		movs	r1, #88
 366 0026 1D4A     		ldr	r2, .L65
 367 0028 1D48     		ldr	r0, .L65+4
 368 002a FF31     		adds	r1, r1, #255
 369 002c FFF7FEFF 		bl	smtc_modem_hal_on_panic
 370              	.L51:
 371 0030 8C21     		movs	r1, #140
 372 0032 6059     		ldr	r0, [r4, r5]
 373 0034 FFF7FEFF 		bl	ral_set_dio_irq_params
 374 0038 0028     		cmp	r0, #0
 375 003a 05D0     		beq	.L52
 376 003c AC21     		movs	r1, #172
 377 003e 194A     		ldr	r2, .L65+8
 378 0040 1748     		ldr	r0, .L65+4
 379 0042 4900     		lsls	r1, r1, #1
 380 0044 FFF7FEFF 		bl	smtc_modem_hal_on_panic
 381              	.L52:
 382 0048 1825     		movs	r5, #24
 383 004a B823     		movs	r3, #184
 384 004c 7543     		muls	r5, r6
 385 004e 9B00     		lsls	r3, r3, #2
 386 0050 6519     		adds	r5, r4, r5
 387 0052 ED18     		adds	r5, r5, r3
 388              	.L53:
 389 0054 2F68     		ldr	r7, [r5]
ARM GAS  /tmp/ccAFBIk9.s 			page 9


 390 0056 FFF7FEFF 		bl	smtc_modem_hal_get_time_in_ms
 391 005a 3F1A     		subs	r7, r7, r0
 392 005c 002F     		cmp	r7, #0
 393 005e F9DC     		bgt	.L53
 394 0060 FFF7FEFF 		bl	smtc_modem_hal_start_radio_tcxo
 395 0064 0020     		movs	r0, #0
 396 0066 FFF7FEFF 		bl	smtc_modem_hal_set_ant_switch
 397 006a 9823     		movs	r3, #152
 398 006c DB00     		lsls	r3, r3, #3
 399 006e E258     		ldr	r2, [r4, r3]
 400 0070 8C23     		movs	r3, #140
 401 0072 5E43     		muls	r6, r3
 402 0074 A619     		adds	r6, r4, r6
 403 0076 536A     		ldr	r3, [r2, #36]
 404 0078 716F     		ldr	r1, [r6, #116]
 405 007a 1068     		ldr	r0, [r2]
 406 007c 9847     		blx	r3
 407 007e 0028     		cmp	r0, #0
 408 0080 05D0     		beq	.L54
 409 0082 B121     		movs	r1, #177
 410 0084 084A     		ldr	r2, .L65+12
 411 0086 0648     		ldr	r0, .L65+4
 412 0088 4900     		lsls	r1, r1, #1
 413 008a FFF7FEFF 		bl	smtc_modem_hal_on_panic
 414              	.L54:
 415              		@ sp needed
 416 008e FFF7FEFF 		bl	smtc_modem_hal_get_time_in_ms
 417 0092 8E23     		movs	r3, #142
 418 0094 DB00     		lsls	r3, r3, #3
 419 0096 E418     		adds	r4, r4, r3
 420 0098 2060     		str	r0, [r4]
 421 009a F8BD     		pop	{r3, r4, r5, r6, r7, pc}
 422              	.L66:
 423              		.align	2
 424              	.L65:
 425 009c 00000000 		.word	.LC16
 426 00a0 00000000 		.word	.LANCHOR2
 427 00a4 4D000000 		.word	.LC19
 428 00a8 E0000000 		.word	.LC14
 430              		.section	.rodata.lr1_stack_mac_tx_lr_fhss_launch_callback_for_rp.str1.1,"aMS",%progbits,1
 431              	.LC22:
 432 0000 72616C5F 		.ascii	"ral_lr_fhss_init( &( rp->radio->ral ), &rp->radio_p"
 432      6C725F66 
 432      6873735F 
 432      696E6974 
 432      28202628 
 433 0033 6172616D 		.ascii	"arams[id].tx.lr_fhss.ral_lr_fhss_params ) == RAL_ST"
 433      735B6964 
 433      5D2E7478 
 433      2E6C725F 
 433      66687373 
 434 0066 41545553 		.ascii	"ATUS_OK\000"
 434      5F4F4B00 
 435              	.LC25:
 436 006e 72616C5F 		.ascii	"ral_set_tx_cfg( &( rp->radio->ral ), rp->radio_para"
 436      7365745F 
 436      74785F63 
ARM GAS  /tmp/ccAFBIk9.s 			page 10


 436      66672820 
 436      26282072 
 437 00a1 6D735B69 		.ascii	"ms[id].tx.lr_fhss.output_pwr_in_dbm, rp->radio_para"
 437      645D2E74 
 437      782E6C72 
 437      5F666873 
 437      732E6F75 
 438 00d4 6D735B69 		.ascii	"ms[id].tx.lr_fhss.ral_lr_fhss_params.center_frequen"
 438      645D2E74 
 438      782E6C72 
 438      5F666873 
 438      732E7261 
 439 0107 63795F69 		.ascii	"cy_in_hz ) == RAL_STATUS_OK\000"
 439      6E5F687A 
 439      2029203D 
 439      3D205241 
 439      4C5F5354 
 440              	.LC27:
 441 0123 72616C5F 		.ascii	"ral_set_dio_irq_params( &( rp->radio->ral ), RAL_IR"
 441      7365745F 
 441      64696F5F 
 441      6972715F 
 441      70617261 
 442 0156 515F5458 		.ascii	"Q_TX_DONE | RAL_IRQ_LR_FHSS_HOP ) == RAL_STATUS_OK\000"
 442      5F444F4E 
 442      45207C20 
 442      52414C5F 
 442      4952515F 
 443              	.LC29:
 444 0189 72616C5F 		.ascii	"ral_lr_fhss_build_frame( &( rp->radio->ral ), &rp->"
 444      6C725F66 
 444      6873735F 
 444      6275696C 
 444      645F6672 
 445 01bc 72616469 		.ascii	"radio_params[id].tx.lr_fhss.ral_lr_fhss_params, ( r"
 445      6F5F7061 
 445      72616D73 
 445      5B69645D 
 445      2E74782E 
 446 01ef 616C5F6C 		.ascii	"al_lr_fhss_memory_state_t ) rp->radio_params[id].lr"
 446      725F6668 
 446      73735F6D 
 446      656D6F72 
 446      795F7374 
 447 0222 5F666873 		.ascii	"_fhss_state, rp->radio_params[id].tx.lr_fhss.hop_se"
 447      735F7374 
 447      6174652C 
 447      2072702D 
 447      3E726164 
 448 0255 7175656E 		.ascii	"quence_id, rp->payload[id], rp->payload_buffer_size"
 448      63655F69 
 448      642C2072 
 448      702D3E70 
 448      61796C6F 
 449 0288 5B69645D 		.ascii	"[id] ) == RAL_STATUS_OK\000"
 449      2029203D 
 449      3D205241 
ARM GAS  /tmp/ccAFBIk9.s 			page 11


 449      4C5F5354 
 449      41545553 
 450              		.section	.text.lr1_stack_mac_tx_lr_fhss_launch_callback_for_rp,"ax",%progbits
 451              		.align	1
 452              		.global	lr1_stack_mac_tx_lr_fhss_launch_callback_for_rp
 453              		.syntax unified
 454              		.code	16
 455              		.thumb_func
 456              		.fpu softvfp
 458              	lr1_stack_mac_tx_lr_fhss_launch_callback_for_rp:
 459              		@ args = 0, pretend = 0, frame = 8
 460              		@ frame_needed = 0, uses_anonymous_args = 0
 461 0000 9323     		movs	r3, #147
 462 0002 8C22     		movs	r2, #140
 463 0004 F0B5     		push	{r4, r5, r6, r7, lr}
 464 0006 9827     		movs	r7, #152
 465 0008 DB00     		lsls	r3, r3, #3
 466 000a C55C     		ldrb	r5, [r0, r3]
 467 000c FF00     		lsls	r7, r7, #3
 468 000e 6A43     		muls	r2, r5
 469 0010 C359     		ldr	r3, [r0, r7]
 470 0012 1600     		movs	r6, r2
 471 0014 85B0     		sub	sp, sp, #20
 472 0016 0392     		str	r2, [sp, #12]
 473 0018 1A00     		movs	r2, r3
 474 001a 1C36     		adds	r6, r6, #28
 475 001c 8619     		adds	r6, r0, r6
 476 001e C432     		adds	r2, r2, #196
 477 0020 0400     		movs	r4, r0
 478 0022 3100     		movs	r1, r6
 479 0024 1268     		ldr	r2, [r2]
 480 0026 1868     		ldr	r0, [r3]
 481 0028 9047     		blx	r2
 482 002a 0028     		cmp	r0, #0
 483 002c 05D0     		beq	.L68
 484 002e 2621     		movs	r1, #38
 485 0030 364A     		ldr	r2, .L90
 486 0032 3748     		ldr	r0, .L90+4
 487 0034 FF31     		adds	r1, r1, #255
 488 0036 FFF7FEFF 		bl	smtc_modem_hal_on_panic
 489              	.L68:
 490 003a 8C22     		movs	r2, #140
 491 003c 3021     		movs	r1, #48
 492 003e 6A43     		muls	r2, r5
 493 0040 E059     		ldr	r0, [r4, r7]
 494 0042 A218     		adds	r2, r4, r2
 495 0044 5156     		ldrsb	r1, [r2, r1]
 496 0046 836C     		ldr	r3, [r0, #72]
 497 0048 926A     		ldr	r2, [r2, #40]
 498 004a 0068     		ldr	r0, [r0]
 499 004c 9847     		blx	r3
 500 004e 0028     		cmp	r0, #0
 501 0050 05D0     		beq	.L69
 502 0052 2821     		movs	r1, #40
 503 0054 2F4A     		ldr	r2, .L90+8
 504 0056 2E48     		ldr	r0, .L90+4
 505 0058 FF31     		adds	r1, r1, #255
ARM GAS  /tmp/ccAFBIk9.s 			page 12


 506 005a FFF7FEFF 		bl	smtc_modem_hal_on_panic
 507              	.L69:
 508 005e 9827     		movs	r7, #152
 509 0060 FF00     		lsls	r7, r7, #3
 510 0062 2D49     		ldr	r1, .L90+12
 511 0064 E059     		ldr	r0, [r4, r7]
 512 0066 FFF7FEFF 		bl	ral_set_dio_irq_params
 513 006a 0028     		cmp	r0, #0
 514 006c 05D0     		beq	.L70
 515 006e 9521     		movs	r1, #149
 516 0070 2A4A     		ldr	r2, .L90+16
 517 0072 2748     		ldr	r0, .L90+4
 518 0074 4900     		lsls	r1, r1, #1
 519 0076 FFF7FEFF 		bl	smtc_modem_hal_on_panic
 520              	.L70:
 521 007a 2900     		movs	r1, r5
 522 007c 8C23     		movs	r3, #140
 523 007e B531     		adds	r1, r1, #181
 524 0080 6B43     		muls	r3, r5
 525 0082 FF31     		adds	r1, r1, #255
 526 0084 4900     		lsls	r1, r1, #1
 527 0086 6118     		adds	r1, r4, r1
 528 0088 4988     		ldrh	r1, [r1, #2]
 529 008a E318     		adds	r3, r4, r3
 530 008c E059     		ldr	r0, [r4, r7]
 531 008e 5B8E     		ldrh	r3, [r3, #50]
 532 0090 0191     		str	r1, [sp, #4]
 533 0092 2900     		movs	r1, r5
 534 0094 0700     		movs	r7, r0
 535 0096 D231     		adds	r1, r1, #210
 536 0098 8900     		lsls	r1, r1, #2
 537 009a 6118     		adds	r1, r4, r1
 538 009c 4968     		ldr	r1, [r1, #4]
 539 009e 039A     		ldr	r2, [sp, #12]
 540 00a0 0091     		str	r1, [sp]
 541 00a2 8A32     		adds	r2, r2, #138
 542 00a4 C837     		adds	r7, r7, #200
 543 00a6 3100     		movs	r1, r6
 544 00a8 3F68     		ldr	r7, [r7]
 545 00aa 0068     		ldr	r0, [r0]
 546 00ac A218     		adds	r2, r4, r2
 547 00ae B847     		blx	r7
 548 00b0 0028     		cmp	r0, #0
 549 00b2 05D0     		beq	.L71
 550 00b4 9621     		movs	r1, #150
 551 00b6 1A4A     		ldr	r2, .L90+20
 552 00b8 1548     		ldr	r0, .L90+4
 553 00ba 4900     		lsls	r1, r1, #1
 554 00bc FFF7FEFF 		bl	smtc_modem_hal_on_panic
 555              	.L71:
 556 00c0 1823     		movs	r3, #24
 557 00c2 5D43     		muls	r5, r3
 558 00c4 B823     		movs	r3, #184
 559 00c6 6519     		adds	r5, r4, r5
 560 00c8 9B00     		lsls	r3, r3, #2
 561 00ca ED18     		adds	r5, r5, r3
 562              	.L72:
ARM GAS  /tmp/ccAFBIk9.s 			page 13


 563 00cc 2E68     		ldr	r6, [r5]
 564 00ce FFF7FEFF 		bl	smtc_modem_hal_get_time_in_ms
 565 00d2 361A     		subs	r6, r6, r0
 566 00d4 002E     		cmp	r6, #0
 567 00d6 F9DC     		bgt	.L72
 568 00d8 FFF7FEFF 		bl	smtc_modem_hal_start_radio_tcxo
 569 00dc 0120     		movs	r0, #1
 570 00de FFF7FEFF 		bl	smtc_modem_hal_set_ant_switch
 571 00e2 9823     		movs	r3, #152
 572 00e4 DB00     		lsls	r3, r3, #3
 573 00e6 E358     		ldr	r3, [r4, r3]
 574 00e8 1A6A     		ldr	r2, [r3, #32]
 575 00ea 1868     		ldr	r0, [r3]
 576 00ec 9047     		blx	r2
 577 00ee 0028     		cmp	r0, #0
 578 00f0 05D0     		beq	.L73
 579 00f2 3A21     		movs	r1, #58
 580 00f4 0B4A     		ldr	r2, .L90+24
 581 00f6 0648     		ldr	r0, .L90+4
 582 00f8 FF31     		adds	r1, r1, #255
 583 00fa FFF7FEFF 		bl	smtc_modem_hal_on_panic
 584              	.L73:
 585 00fe FFF7FEFF 		bl	smtc_modem_hal_get_time_in_ms
 586 0102 094B     		ldr	r3, .L90+28
 587 0104 E418     		adds	r4, r4, r3
 588 0106 2060     		str	r0, [r4]
 589 0108 05B0     		add	sp, sp, #20
 590              		@ sp needed
 591 010a F0BD     		pop	{r4, r5, r6, r7, pc}
 592              	.L91:
 593              		.align	2
 594              	.L90:
 595 010c 00000000 		.word	.LC22
 596 0110 00000000 		.word	.LANCHOR3
 597 0114 6E000000 		.word	.LC25
 598 0118 02040000 		.word	1026
 599 011c 23010000 		.word	.LC27
 600 0120 89010000 		.word	.LC29
 601 0124 07010000 		.word	.LC7
 602 0128 6C040000 		.word	1132
 604              		.section	.rodata.lr1_stack_mac_tx_gfsk_launch_callback_for_rp.str1.1,"aMS",%progbits,1
 605              	.LC32:
 606 0000 72616C66 		.ascii	"ralf_setup_gfsk( rp->radio, &rp->radio_params[id].t"
 606      5F736574 
 606      75705F67 
 606      66736B28 
 606      2072702D 
 607 0033 782E6766 		.ascii	"x.gfsk ) == RAL_STATUS_OK\000"
 607      736B2029 
 607      203D3D20 
 607      52414C5F 
 607      53544154 
 608              		.section	.text.lr1_stack_mac_tx_gfsk_launch_callback_for_rp,"ax",%progbits
 609              		.align	1
 610              		.global	lr1_stack_mac_tx_gfsk_launch_callback_for_rp
 611              		.syntax unified
 612              		.code	16
ARM GAS  /tmp/ccAFBIk9.s 			page 14


 613              		.thumb_func
 614              		.fpu softvfp
 616              	lr1_stack_mac_tx_gfsk_launch_callback_for_rp:
 617              		@ args = 0, pretend = 0, frame = 0
 618              		@ frame_needed = 0, uses_anonymous_args = 0
 619 0000 9323     		movs	r3, #147
 620 0002 8C21     		movs	r1, #140
 621 0004 70B5     		push	{r4, r5, r6, lr}
 622 0006 9825     		movs	r5, #152
 623 0008 DB00     		lsls	r3, r3, #3
 624 000a C65C     		ldrb	r6, [r0, r3]
 625 000c ED00     		lsls	r5, r5, #3
 626 000e 7143     		muls	r1, r6
 627 0010 4359     		ldr	r3, [r0, r5]
 628 0012 1C31     		adds	r1, r1, #28
 629 0014 FC33     		adds	r3, r3, #252
 630 0016 0400     		movs	r4, r0
 631 0018 4118     		adds	r1, r0, r1
 632 001a 5B68     		ldr	r3, [r3, #4]
 633 001c 4059     		ldr	r0, [r0, r5]
 634 001e 9847     		blx	r3
 635 0020 0028     		cmp	r0, #0
 636 0022 05D0     		beq	.L93
 637 0024 8821     		movs	r1, #136
 638 0026 274A     		ldr	r2, .L111
 639 0028 2748     		ldr	r0, .L111+4
 640 002a 4900     		lsls	r1, r1, #1
 641 002c FFF7FEFF 		bl	smtc_modem_hal_on_panic
 642              	.L93:
 643 0030 0221     		movs	r1, #2
 644 0032 6059     		ldr	r0, [r4, r5]
 645 0034 FFF7FEFF 		bl	ral_set_dio_irq_params
 646 0038 0028     		cmp	r0, #0
 647 003a 05D0     		beq	.L94
 648 003c 1221     		movs	r1, #18
 649 003e 234A     		ldr	r2, .L111+8
 650 0040 2148     		ldr	r0, .L111+4
 651 0042 FF31     		adds	r1, r1, #255
 652 0044 FFF7FEFF 		bl	smtc_modem_hal_on_panic
 653              	.L94:
 654 0048 9823     		movs	r3, #152
 655 004a DB00     		lsls	r3, r3, #3
 656 004c E058     		ldr	r0, [r4, r3]
 657 004e 3300     		movs	r3, r6
 658 0050 B533     		adds	r3, r3, #181
 659 0052 FF33     		adds	r3, r3, #255
 660 0054 5B00     		lsls	r3, r3, #1
 661 0056 E318     		adds	r3, r4, r3
 662 0058 5A88     		ldrh	r2, [r3, #2]
 663 005a 3300     		movs	r3, r6
 664 005c D233     		adds	r3, r3, #210
 665 005e 9B00     		lsls	r3, r3, #2
 666 0060 E318     		adds	r3, r4, r3
 667 0062 C56C     		ldr	r5, [r0, #76]
 668 0064 5968     		ldr	r1, [r3, #4]
 669 0066 0068     		ldr	r0, [r0]
 670 0068 A847     		blx	r5
ARM GAS  /tmp/ccAFBIk9.s 			page 15


 671 006a 0028     		cmp	r0, #0
 672 006c 05D0     		beq	.L95
 673 006e 8921     		movs	r1, #137
 674 0070 174A     		ldr	r2, .L111+12
 675 0072 1548     		ldr	r0, .L111+4
 676 0074 4900     		lsls	r1, r1, #1
 677 0076 FFF7FEFF 		bl	smtc_modem_hal_on_panic
 678              	.L95:
 679 007a 1825     		movs	r5, #24
 680 007c B823     		movs	r3, #184
 681 007e 6E43     		muls	r6, r5
 682 0080 9B00     		lsls	r3, r3, #2
 683 0082 A619     		adds	r6, r4, r6
 684 0084 F518     		adds	r5, r6, r3
 685              	.L96:
 686 0086 2E68     		ldr	r6, [r5]
 687 0088 FFF7FEFF 		bl	smtc_modem_hal_get_time_in_ms
 688 008c 361A     		subs	r6, r6, r0
 689 008e 002E     		cmp	r6, #0
 690 0090 F9DC     		bgt	.L96
 691 0092 FFF7FEFF 		bl	smtc_modem_hal_start_radio_tcxo
 692 0096 0120     		movs	r0, #1
 693 0098 FFF7FEFF 		bl	smtc_modem_hal_set_ant_switch
 694 009c 9823     		movs	r3, #152
 695 009e DB00     		lsls	r3, r3, #3
 696 00a0 E358     		ldr	r3, [r4, r3]
 697 00a2 1A6A     		ldr	r2, [r3, #32]
 698 00a4 1868     		ldr	r0, [r3]
 699 00a6 9047     		blx	r2
 700 00a8 0028     		cmp	r0, #0
 701 00aa 05D0     		beq	.L97
 702 00ac 1C21     		movs	r1, #28
 703 00ae 094A     		ldr	r2, .L111+16
 704 00b0 0548     		ldr	r0, .L111+4
 705 00b2 FF31     		adds	r1, r1, #255
 706 00b4 FFF7FEFF 		bl	smtc_modem_hal_on_panic
 707              	.L97:
 708              		@ sp needed
 709 00b8 FFF7FEFF 		bl	smtc_modem_hal_get_time_in_ms
 710 00bc 064B     		ldr	r3, .L111+20
 711 00be E418     		adds	r4, r4, r3
 712 00c0 2060     		str	r0, [r4]
 713 00c2 70BD     		pop	{r4, r5, r6, pc}
 714              	.L112:
 715              		.align	2
 716              	.L111:
 717 00c4 00000000 		.word	.LC32
 718 00c8 00000000 		.word	.LANCHOR4
 719 00cc 4D000000 		.word	.LC3
 720 00d0 9D000000 		.word	.LC5
 721 00d4 07010000 		.word	.LC7
 722 00d8 6C040000 		.word	1132
 724              		.section	.text.lr1_stack_mac_session_init,"ax",%progbits
 725              		.align	1
 726              		.global	lr1_stack_mac_session_init
 727              		.syntax unified
 728              		.code	16
ARM GAS  /tmp/ccAFBIk9.s 			page 16


 729              		.thumb_func
 730              		.fpu softvfp
 732              	lr1_stack_mac_session_init:
 733              		@ args = 0, pretend = 0, frame = 0
 734              		@ frame_needed = 0, uses_anonymous_args = 0
 735 0000 0123     		movs	r3, #1
 736 0002 5B42     		rsbs	r3, r3, #0
 737 0004 70B5     		push	{r4, r5, r6, lr}
 738 0006 4362     		str	r3, [r0, #36]
 739 0008 D723     		movs	r3, #215
 740              		@ sp needed
 741 000a 0025     		movs	r5, #0
 742 000c 9B00     		lsls	r3, r3, #2
 743 000e 0562     		str	r5, [r0, #32]
 744 0010 C550     		str	r5, [r0, r3]
 745 0012 184B     		ldr	r3, .L114
 746 0014 0400     		movs	r4, r0
 747 0016 C552     		strh	r5, [r0, r3]
 748 0018 FFF7FEFF 		bl	smtc_modem_hal_get_time_in_s
 749 001c D423     		movs	r3, #212
 750 001e 9B00     		lsls	r3, r3, #2
 751 0020 E050     		str	r0, [r4, r3]
 752 0022 0433     		adds	r3, r3, #4
 753 0024 E552     		strh	r5, [r4, r3]
 754 0026 143B     		subs	r3, r3, #20
 755 0028 E550     		str	r5, [r4, r3]
 756 002a A623     		movs	r3, #166
 757 002c FF33     		adds	r3, r3, #255
 758 002e E554     		strb	r5, [r4, r3]
 759 0030 713B     		subs	r3, r3, #113
 760 0032 E554     		strb	r5, [r4, r3]
 761 0034 9623     		movs	r3, #150
 762 0036 FF33     		adds	r3, r3, #255
 763 0038 E554     		strb	r5, [r4, r3]
 764 003a 0F4B     		ldr	r3, .L114+4
 765 003c E554     		strb	r5, [r4, r3]
 766 003e 0F4B     		ldr	r3, .L114+8
 767 0040 E554     		strb	r5, [r4, r3]
 768 0042 0F4B     		ldr	r3, .L114+12
 769 0044 E554     		strb	r5, [r4, r3]
 770 0046 E63B     		subs	r3, r3, #230
 771 0048 FF3B     		subs	r3, r3, #255
 772 004a E561     		str	r5, [r4, #28]
 773 004c E550     		str	r5, [r4, r3]
 774 004e FFF7FEFF 		bl	smtc_modem_hal_get_time_in_ms
 775 0052 E823     		movs	r3, #232
 776 0054 5B00     		lsls	r3, r3, #1
 777 0056 E050     		str	r0, [r4, r3]
 778 0058 0A4B     		ldr	r3, .L114+16
 779 005a E554     		strb	r5, [r4, r3]
 780 005c 2333     		adds	r3, r3, #35
 781 005e E552     		strh	r5, [r4, r3]
 782 0060 094B     		ldr	r3, .L114+20
 783 0062 E554     		strb	r5, [r4, r3]
 784 0064 1E3B     		subs	r3, r3, #30
 785 0066 E552     		strh	r5, [r4, r3]
 786 0068 084B     		ldr	r3, .L114+24
ARM GAS  /tmp/ccAFBIk9.s 			page 17


 787 006a E554     		strb	r5, [r4, r3]
 788 006c 3234     		adds	r4, r4, #50
 789 006e 2570     		strb	r5, [r4]
 790 0070 70BD     		pop	{r4, r5, r6, pc}
 791              	.L115:
 792 0072 C046     		.align	2
 793              	.L114:
 794 0074 56030000 		.word	854
 795 0078 3F030000 		.word	831
 796 007c DE020000 		.word	734
 797 0080 B1030000 		.word	945
 798 0084 B9030000 		.word	953
 799 0088 DE030000 		.word	990
 800 008c FE040000 		.word	1278
 802              		.section	.text.lr1_stack_mac_init,"ax",%progbits
 803              		.align	1
 804              		.global	lr1_stack_mac_init
 805              		.syntax unified
 806              		.code	16
 807              		.thumb_func
 808              		.fpu softvfp
 810              	lr1_stack_mac_init:
 811              		@ args = 0, pretend = 0, frame = 0
 812              		@ frame_needed = 0, uses_anonymous_args = 0
 813 0000 0200     		movs	r2, r0
 814 0002 0023     		movs	r3, #0
 815 0004 3032     		adds	r2, r2, #48
 816 0006 10B5     		push	{r4, lr}
 817 0008 1370     		strb	r3, [r2]
 818 000a 1A4A     		ldr	r2, .L117
 819 000c 0400     		movs	r4, r0
 820              		@ sp needed
 821 000e 8354     		strb	r3, [r0, r2]
 822 0010 163A     		subs	r2, r2, #22
 823 0012 8350     		str	r3, [r0, r2]
 824 0014 184A     		ldr	r2, .L117+4
 825 0016 8354     		strb	r3, [r0, r2]
 826 0018 2E32     		adds	r2, r2, #46
 827 001a 8354     		strb	r3, [r0, r2]
 828 001c 0200     		movs	r2, r0
 829 001e 2C32     		adds	r2, r2, #44
 830 0020 1170     		strb	r1, [r2]
 831 0022 0122     		movs	r2, #1
 832 0024 C273     		strb	r2, [r0, #15]
 833 0026 154A     		ldr	r2, .L117+8
 834 0028 1900     		movs	r1, r3
 835 002a 8354     		strb	r3, [r0, r2]
 836 002c 373A     		subs	r2, r2, #55
 837 002e 8350     		str	r3, [r0, r2]
 838 0030 B13A     		subs	r2, r2, #177
 839 0032 FF3A     		subs	r2, r2, #255
 840 0034 8352     		strh	r3, [r0, r2]
 841 0036 124A     		ldr	r2, .L117+12
 842 0038 8352     		strh	r3, [r0, r2]
 843 003a 124A     		ldr	r2, .L117+16
 844 003c 8354     		strb	r3, [r0, r2]
 845 003e 5732     		adds	r2, r2, #87
ARM GAS  /tmp/ccAFBIk9.s 			page 18


 846 0040 8350     		str	r3, [r0, r2]
 847 0042 0432     		adds	r2, r2, #4
 848 0044 8350     		str	r3, [r0, r2]
 849 0046 0C32     		adds	r2, r2, #12
 850 0048 8350     		str	r3, [r0, r2]
 851 004a 083A     		subs	r2, r2, #8
 852 004c 8350     		str	r3, [r0, r2]
 853 004e 0432     		adds	r2, r2, #4
 854 0050 8350     		str	r3, [r0, r2]
 855 0052 483A     		subs	r2, r2, #72
 856 0054 8018     		adds	r0, r0, r2
 857 0056 2022     		movs	r2, #32
 858 0058 FFF7FEFF 		bl	memset
 859 005c 2000     		movs	r0, r4
 860 005e D730     		adds	r0, r0, #215
 861 0060 0622     		movs	r2, #6
 862 0062 FF21     		movs	r1, #255
 863 0064 FF30     		adds	r0, r0, #255
 864 0066 FFF7FEFF 		bl	memset
 865 006a 2000     		movs	r0, r4
 866 006c FFF7FEFF 		bl	lr1_stack_mac_session_init
 867 0070 10BD     		pop	{r4, pc}
 868              	.L118:
 869 0072 C046     		.align	2
 870              	.L117:
 871 0074 6E030000 		.word	878
 872 0078 82030000 		.word	898
 873 007c BB030000 		.word	955
 874 0080 4A030000 		.word	842
 875 0084 6D030000 		.word	877
 877              		.section	.text.lr1_stack_mac_region_init,"ax",%progbits
 878              		.align	1
 879              		.global	lr1_stack_mac_region_init
 880              		.syntax unified
 881              		.code	16
 882              		.thumb_func
 883              		.fpu softvfp
 885              	lr1_stack_mac_region_init:
 886              		@ args = 0, pretend = 0, frame = 0
 887              		@ frame_needed = 0, uses_anonymous_args = 0
 888 0000 10B5     		push	{r4, lr}
 889 0002 0068     		ldr	r0, [r0]
 890 0004 FFF7FEFF 		bl	smtc_real_init
 891              		@ sp needed
 892 0008 10BD     		pop	{r4, pc}
 894              		.section	.text.lr1_stack_mac_region_config,"ax",%progbits
 895              		.align	1
 896              		.global	lr1_stack_mac_region_config
 897              		.syntax unified
 898              		.code	16
 899              		.thumb_func
 900              		.fpu softvfp
 902              	lr1_stack_mac_region_config:
 903              		@ args = 0, pretend = 0, frame = 0
 904              		@ frame_needed = 0, uses_anonymous_args = 0
 905 0000 10B5     		push	{r4, lr}
 906 0002 0400     		movs	r4, r0
ARM GAS  /tmp/ccAFBIk9.s 			page 19


 907              		@ sp needed
 908 0004 0068     		ldr	r0, [r0]
 909 0006 FFF7FEFF 		bl	smtc_real_config
 910 000a 2368     		ldr	r3, [r4]
 911 000c 5A6A     		ldr	r2, [r3, #36]
 912 000e 1900     		movs	r1, r3
 913 0010 6261     		str	r2, [r4, #20]
 914 0012 9A7A     		ldrb	r2, [r3, #10]
 915 0014 3031     		adds	r1, r1, #48
 916 0016 A273     		strb	r2, [r4, #14]
 917 0018 A276     		strb	r2, [r4, #26]
 918 001a 0022     		movs	r2, #0
 919 001c 2276     		strb	r2, [r4, #24]
 920 001e 0978     		ldrb	r1, [r1]
 921 0020 A174     		strb	r1, [r4, #18]
 922 0022 597A     		ldrb	r1, [r3, #9]
 923 0024 6176     		strb	r1, [r4, #25]
 924 0026 1900     		movs	r1, r3
 925 0028 3D31     		adds	r1, r1, #61
 926 002a 0978     		ldrb	r1, [r1]
 927 002c 7533     		adds	r3, r3, #117
 928 002e 6173     		strb	r1, [r4, #13]
 929 0030 F821     		movs	r1, #248
 930 0032 8900     		lsls	r1, r1, #2
 931 0034 6250     		str	r2, [r4, r1]
 932 0036 1A78     		ldrb	r2, [r3]
 933 0038 FA23     		movs	r3, #250
 934 003a 9B00     		lsls	r3, r3, #2
 935 003c E254     		strb	r2, [r4, r3]
 936 003e 0722     		movs	r2, #7
 937 0040 014B     		ldr	r3, .L121
 938 0042 E254     		strb	r2, [r4, r3]
 939 0044 10BD     		pop	{r4, pc}
 940              	.L122:
 941 0046 C046     		.align	2
 942              	.L121:
 943 0048 E9030000 		.word	1001
 945              		.section	.text.lr1_stack_mac_tx_frame_build,"ax",%progbits
 946              		.align	1
 947              		.global	lr1_stack_mac_tx_frame_build
 948              		.syntax unified
 949              		.code	16
 950              		.thumb_func
 951              		.fpu softvfp
 953              	lr1_stack_mac_tx_frame_build:
 954              		@ args = 0, pretend = 0, frame = 0
 955              		@ frame_needed = 0, uses_anonymous_args = 0
 956 0000 0300     		movs	r3, r0
 957 0002 0022     		movs	r2, #0
 958 0004 F0B5     		push	{r4, r5, r6, r7, lr}
 959 0006 2D33     		adds	r3, r3, #45
 960 0008 1978     		ldrb	r1, [r3]
 961 000a 9142     		cmp	r1, r2
 962 000c 02D0     		beq	.L124
 963 000e A623     		movs	r3, #166
 964 0010 FF33     		adds	r3, r3, #255
 965 0012 C25C     		ldrb	r2, [r0, r3]
ARM GAS  /tmp/ccAFBIk9.s 			page 20


 966              	.L124:
 967 0014 D223     		movs	r3, #210
 968 0016 0400     		movs	r4, r0
 969 0018 9B00     		lsls	r3, r3, #2
 970 001a 3234     		adds	r4, r4, #50
 971 001c C35C     		ldrb	r3, [r0, r3]
 972 001e 2478     		ldrb	r4, [r4]
 973 0020 9B01     		lsls	r3, r3, #6
 974 0022 2401     		lsls	r4, r4, #4
 975 0024 1B19     		adds	r3, r3, r4
 976 0026 2B4C     		ldr	r4, .L134
 977 0028 2B4D     		ldr	r5, .L134+4
 978 002a 045D     		ldrb	r4, [r0, r4]
 979 002c 0600     		movs	r6, r0
 980 002e E401     		lsls	r4, r4, #7
 981 0030 1B19     		adds	r3, r3, r4
 982 0032 445D     		ldrb	r4, [r0, r5]
 983 0034 0327     		movs	r7, #3
 984 0036 6401     		lsls	r4, r4, #5
 985 0038 1B19     		adds	r3, r3, r4
 986 003a 0F24     		movs	r4, #15
 987 003c 1440     		ands	r4, r2
 988 003e 1B19     		adds	r3, r3, r4
 989 0040 0400     		movs	r4, r0
 990 0042 DBB2     		uxtb	r3, r3
 991 0044 3134     		adds	r4, r4, #49
 992 0046 2370     		strb	r3, [r4]
 993 0048 0024     		movs	r4, #0
 994 004a 4455     		strb	r4, [r0, r5]
 995 004c 0500     		movs	r5, r0
 996 004e 3036     		adds	r6, r6, #48
 997 0050 2F35     		adds	r5, r5, #47
 998 0052 3678     		ldrb	r6, [r6]
 999 0054 2D78     		ldrb	r5, [r5]
 1000 0056 3E40     		ands	r6, r7
 1001 0058 6D01     		lsls	r5, r5, #5
 1002 005a AD19     		adds	r5, r5, r6
 1003 005c 0600     		movs	r6, r0
 1004 005e 3536     		adds	r6, r6, #53
 1005 0060 3570     		strb	r5, [r6]
 1006 0062 068D     		ldrh	r6, [r0, #40]
 1007 0064 856A     		ldr	r5, [r0, #40]
 1008 0066 C686     		strh	r6, [r0, #54]
 1009 0068 0600     		movs	r6, r0
 1010 006a 2F0C     		lsrs	r7, r5, #16
 1011 006c 3836     		adds	r6, r6, #56
 1012 006e 2D0E     		lsrs	r5, r5, #24
 1013 0070 7570     		strb	r5, [r6, #1]
 1014 0072 0500     		movs	r5, r0
 1015 0074 3A35     		adds	r5, r5, #58
 1016 0076 3770     		strb	r7, [r6]
 1017 0078 2B70     		strb	r3, [r5]
 1018 007a 036A     		ldr	r3, [r0, #32]
 1019 007c 0136     		adds	r6, r6, #1
 1020 007e 6B70     		strb	r3, [r5, #1]
 1021 0080 1B0A     		lsrs	r3, r3, #8
 1022 0082 AB70     		strb	r3, [r5, #2]
ARM GAS  /tmp/ccAFBIk9.s 			page 21


 1023 0084 A142     		cmp	r1, r4
 1024 0086 12D0     		beq	.L125
 1025 0088 A623     		movs	r3, #166
 1026 008a FF33     		adds	r3, r3, #255
 1027 008c C55C     		ldrb	r5, [r0, r3]
 1028 008e 2300     		movs	r3, r4
 1029 0090 0400     		movs	r4, r0
 1030 0092 A734     		adds	r4, r4, #167
 1031 0094 FF34     		adds	r4, r4, #255
 1032 0096 0436     		adds	r6, r6, #4
 1033              	.L126:
 1034 0098 AB42     		cmp	r3, r5
 1035 009a 17DB     		blt	.L128
 1036 009c 0300     		movs	r3, r0
 1037 009e 2E33     		adds	r3, r3, #46
 1038 00a0 1B78     		ldrb	r3, [r3]
 1039 00a2 002B     		cmp	r3, #0
 1040 00a4 06D0     		beq	.L127
 1041 00a6 4519     		adds	r5, r0, r5
 1042 00a8 3D35     		adds	r5, r5, #61
 1043 00aa 2970     		strb	r1, [r5]
 1044 00ac 02E0     		b	.L127
 1045              	.L125:
 1046 00ae 0300     		movs	r3, r0
 1047 00b0 3D33     		adds	r3, r3, #61
 1048 00b2 1970     		strb	r1, [r3]
 1049              	.L127:
 1050 00b4 0300     		movs	r3, r0
 1051              		@ sp needed
 1052 00b6 0100     		movs	r1, r0
 1053 00b8 3333     		adds	r3, r3, #51
 1054 00ba 1B78     		ldrb	r3, [r3]
 1055 00bc 2E31     		adds	r1, r1, #46
 1056 00be 0978     		ldrb	r1, [r1]
 1057 00c0 0833     		adds	r3, r3, #8
 1058 00c2 5B18     		adds	r3, r3, r1
 1059 00c4 D218     		adds	r2, r2, r3
 1060 00c6 3430     		adds	r0, r0, #52
 1061 00c8 0270     		strb	r2, [r0]
 1062 00ca F0BD     		pop	{r4, r5, r6, r7, pc}
 1063              	.L128:
 1064 00cc E75C     		ldrb	r7, [r4, r3]
 1065 00ce F754     		strb	r7, [r6, r3]
 1066 00d0 0133     		adds	r3, r3, #1
 1067 00d2 E1E7     		b	.L126
 1068              	.L135:
 1069              		.align	2
 1070              	.L134:
 1071 00d4 49030000 		.word	841
 1072 00d8 FE040000 		.word	1278
 1074              		.section	.rodata.lr1_stack_mac_tx_frame_encrypt.str1.1,"aMS",%progbits,1
 1075              	.LC38:
 1076 0000 43727970 		.ascii	"Crypto error during payload encryption\012\000"
 1076      746F2065 
 1076      72726F72 
 1076      20647572 
 1076      696E6720 
ARM GAS  /tmp/ccAFBIk9.s 			page 22


 1077              	.LC41:
 1078 0028 43727970 		.ascii	"Crypto error during mic computation\012\000"
 1078      746F2065 
 1078      72726F72 
 1078      20647572 
 1078      696E6720 
 1079              		.section	.text.lr1_stack_mac_tx_frame_encrypt,"ax",%progbits
 1080              		.align	1
 1081              		.global	lr1_stack_mac_tx_frame_encrypt
 1082              		.syntax unified
 1083              		.code	16
 1084              		.thumb_func
 1085              		.fpu softvfp
 1087              	lr1_stack_mac_tx_frame_encrypt:
 1088              		@ args = 0, pretend = 0, frame = 0
 1089              		@ frame_needed = 0, uses_anonymous_args = 0
 1090 0000 7FB5     		push	{r0, r1, r2, r3, r4, r5, r6, lr}
 1091 0002 0300     		movs	r3, r0
 1092 0004 0400     		movs	r4, r0
 1093 0006 0020     		movs	r0, #0
 1094 0008 2D33     		adds	r3, r3, #45
 1095 000a 1A78     		ldrb	r2, [r3]
 1096 000c 8242     		cmp	r2, r0
 1097 000e 02D0     		beq	.L137
 1098 0010 A623     		movs	r3, #166
 1099 0012 FF33     		adds	r3, r3, #255
 1100 0014 E05C     		ldrb	r0, [r4, r3]
 1101              	.L137:
 1102 0016 2300     		movs	r3, r4
 1103 0018 2E33     		adds	r3, r3, #46
 1104 001a 1B78     		ldrb	r3, [r3]
 1105 001c 1A4D     		ldr	r5, .L150
 1106 001e C018     		adds	r0, r0, r3
 1107 0020 2300     		movs	r3, r4
 1108 0022 3333     		adds	r3, r3, #51
 1109 0024 1978     		ldrb	r1, [r3]
 1110 0026 531E     		subs	r3, r2, #1
 1111 0028 9A41     		sbcs	r2, r2, r3
 1112 002a 635D     		ldrb	r3, [r4, r5]
 1113 002c 3D30     		adds	r0, r0, #61
 1114 002e 0393     		str	r3, [sp, #12]
 1115 0030 236A     		ldr	r3, [r4, #32]
 1116 0032 2018     		adds	r0, r4, r0
 1117 0034 0193     		str	r3, [sp, #4]
 1118 0036 0023     		movs	r3, #0
 1119 0038 0632     		adds	r2, r2, #6
 1120 003a 0093     		str	r3, [sp]
 1121 003c 0290     		str	r0, [sp, #8]
 1122 003e A36A     		ldr	r3, [r4, #40]
 1123 0040 FFF7FEFF 		bl	smtc_modem_crypto_payload_encrypt
 1124 0044 0028     		cmp	r0, #0
 1125 0046 04D0     		beq	.L139
 1126 0048 EA21     		movs	r1, #234
 1127 004a 104A     		ldr	r2, .L150+4
 1128 004c 1048     		ldr	r0, .L150+8
 1129 004e FFF7FEFF 		bl	smtc_modem_hal_on_panic
 1130              	.L139:
ARM GAS  /tmp/ccAFBIk9.s 			page 23


 1131 0052 2600     		movs	r6, r4
 1132 0054 635D     		ldrb	r3, [r4, r5]
 1133 0056 3436     		adds	r6, r6, #52
 1134 0058 3178     		ldrb	r1, [r6]
 1135 005a 0293     		str	r3, [sp, #8]
 1136 005c 236A     		ldr	r3, [r4, #32]
 1137 005e 2000     		movs	r0, r4
 1138 0060 0193     		str	r3, [sp, #4]
 1139 0062 0023     		movs	r3, #0
 1140 0064 0622     		movs	r2, #6
 1141 0066 0093     		str	r3, [sp]
 1142 0068 3530     		adds	r0, r0, #53
 1143 006a A36A     		ldr	r3, [r4, #40]
 1144 006c FFF7FEFF 		bl	smtc_modem_crypto_compute_and_add_mic
 1145 0070 0028     		cmp	r0, #0
 1146 0072 04D0     		beq	.L140
 1147 0074 F121     		movs	r1, #241
 1148 0076 074A     		ldr	r2, .L150+12
 1149 0078 0548     		ldr	r0, .L150+8
 1150 007a FFF7FEFF 		bl	smtc_modem_hal_on_panic
 1151              	.L140:
 1152              		@ sp needed
 1153 007e 3378     		ldrb	r3, [r6]
 1154 0080 0433     		adds	r3, r3, #4
 1155 0082 3370     		strb	r3, [r6]
 1156 0084 7FBD     		pop	{r0, r1, r2, r3, r4, r5, r6, pc}
 1157              	.L151:
 1158 0086 C046     		.align	2
 1159              	.L150:
 1160 0088 04050000 		.word	1284
 1161 008c 00000000 		.word	.LC38
 1162 0090 00000000 		.word	.LANCHOR5
 1163 0094 28000000 		.word	.LC41
 1165              		.section	.rodata.lr1_stack_mac_tx_radio_start.str1.1,"aMS",%progbits,1
 1166              	.LC45:
 1167 0000 72616C5F 		.ascii	"ral_lr_fhss_get_hop_sequence_count( &lr1_mac->rp->r"
 1167      6C725F66 
 1167      6873735F 
 1167      6765745F 
 1167      686F705F 
 1168 0033 6164696F 		.ascii	"adio->ral, &lr_fhss_param.ral_lr_fhss_params, &nb_m"
 1168      2D3E7261 
 1168      6C2C2026 
 1168      6C725F66 
 1168      6873735F 
 1169 0066 61785F68 		.ascii	"ax_hop_sequence ) == RAL_STATUS_OK\000"
 1169      6F705F73 
 1169      65717565 
 1169      6E636520 
 1169      29203D3D 
 1170              	.LC49:
 1171 0089 5458204D 		.ascii	"TX MODULATION NOT SUPPORTED\012\000"
 1171      4F44554C 
 1171      4154494F 
 1171      4E204E4F 
 1171      54205355 
 1172              	.LC51:
ARM GAS  /tmp/ccAFBIk9.s 			page 24


 1173 00a6 00       		.ascii	"\000"
 1174              		.section	.text.lr1_stack_mac_tx_radio_start,"ax",%progbits
 1175              		.align	1
 1176              		.global	lr1_stack_mac_tx_radio_start
 1177              		.syntax unified
 1178              		.code	16
 1179              		.thumb_func
 1180              		.fpu softvfp
 1182              	lr1_stack_mac_tx_radio_start:
 1183              		@ args = 0, pretend = 0, frame = 232
 1184              		@ frame_needed = 0, uses_anonymous_args = 0
 1185 0000 F0B5     		push	{r4, r5, r6, r7, lr}
 1186 0002 0400     		movs	r4, r0
 1187 0004 0026     		movs	r6, #0
 1188 0006 BDB0     		sub	sp, sp, #244
 1189 0008 8C22     		movs	r2, #140
 1190 000a 0021     		movs	r1, #0
 1191 000c 19A8     		add	r0, sp, #100
 1192 000e 08AF     		add	r7, sp, #32
 1193 0010 FFF7FEFF 		bl	memset
 1194 0014 1822     		movs	r2, #24
 1195 0016 0021     		movs	r1, #0
 1196 0018 3800     		movs	r0, r7
 1197 001a FFF7FEFF 		bl	memset
 1198 001e 217B     		ldrb	r1, [r4, #12]
 1199 0020 2068     		ldr	r0, [r4]
 1200 0022 0696     		str	r6, [sp, #24]
 1201 0024 FFF7FEFF 		bl	smtc_real_get_modulation_type_from_datarate
 1202 0028 0390     		str	r0, [sp, #12]
 1203 002a B042     		cmp	r0, r6
 1204 002c 00D0     		beq	.LCB1184
 1205 002e 91E0     		b	.L153	@long jump
 1206              	.LCB1184:
 1207 0030 0F22     		movs	r2, #15
 1208 0032 D926     		movs	r6, #217
 1209 0034 02A8     		add	r0, sp, #8
 1210 0036 0EAD     		add	r5, sp, #56
 1211 0038 07AB     		add	r3, sp, #28
 1212 003a 1218     		adds	r2, r2, r0
 1213 003c 217B     		ldrb	r1, [r4, #12]
 1214 003e 2068     		ldr	r0, [r4]
 1215 0040 FFF7FEFF 		bl	smtc_real_lora_dr_to_sf_bw
 1216 0044 B600     		lsls	r6, r6, #2
 1217 0046 1422     		movs	r2, #20
 1218 0048 0399     		ldr	r1, [sp, #12]
 1219 004a 2800     		movs	r0, r5
 1220 004c FFF7FEFF 		bl	memset
 1221 0050 A359     		ldr	r3, [r4, r6]
 1222 0052 2068     		ldr	r0, [r4]
 1223 0054 1193     		str	r3, [sp, #68]
 1224 0056 FFF7FEFF 		bl	smtc_real_get_sync_word
 1225 005a 0E21     		movs	r1, #14
 1226 005c A259     		ldr	r2, [r4, r6]
 1227 005e 6156     		ldrsb	r1, [r4, r1]
 1228 0060 237B     		ldrb	r3, [r4, #12]
 1229 0062 6874     		strb	r0, [r5, #17]
 1230 0064 2068     		ldr	r0, [r4]
ARM GAS  /tmp/ccAFBIk9.s 			page 25


 1231 0066 FFF7FEFF 		bl	smtc_real_clamp_output_power_eirp_vs_freq_and_dr
 1232 006a 02AB     		add	r3, sp, #8
 1233 006c DB7B     		ldrb	r3, [r3, #15]
 1234 006e 2874     		strb	r0, [r5, #16]
 1235 0070 2B70     		strb	r3, [r5]
 1236 0072 02AB     		add	r3, sp, #8
 1237 0074 1B7D     		ldrb	r3, [r3, #20]
 1238 0076 2068     		ldr	r0, [r4]
 1239 0078 6B70     		strb	r3, [r5, #1]
 1240 007a FFF7FEFF 		bl	smtc_real_get_coding_rate
 1241 007e 2E78     		ldrb	r6, [r5]
 1242 0080 6978     		ldrb	r1, [r5, #1]
 1243 0082 A870     		strb	r0, [r5, #2]
 1244 0084 3000     		movs	r0, r6
 1245 0086 FFF7FEFF 		bl	ral_compute_lora_ldro
 1246 008a 3100     		movs	r1, r6
 1247 008c E870     		strb	r0, [r5, #3]
 1248 008e 2068     		ldr	r0, [r4]
 1249 0090 FFF7FEFF 		bl	smtc_real_get_preamble_len
 1250 0094 039B     		ldr	r3, [sp, #12]
 1251 0096 A880     		strh	r0, [r5, #4]
 1252 0098 AB71     		strb	r3, [r5, #6]
 1253 009a 2300     		movs	r3, r4
 1254 009c 3433     		adds	r3, r3, #52
 1255 009e 1B78     		ldrb	r3, [r3]
 1256 00a0 5C21     		movs	r1, #92
 1257 00a2 EB71     		strb	r3, [r5, #7]
 1258 00a4 0123     		movs	r3, #1
 1259 00a6 02AA     		add	r2, sp, #8
 1260 00a8 5218     		adds	r2, r2, r1
 1261 00aa 1370     		strb	r3, [r2]
 1262 00ac 2A00     		movs	r2, r5
 1263 00ae 2B81     		strh	r3, [r5, #8]
 1264 00b0 1AAB     		add	r3, sp, #104
 1265 00b2 43CA     		ldmia	r2!, {r0, r1, r6}
 1266 00b4 43C3     		stmia	r3!, {r0, r1, r6}
 1267 00b6 03CA     		ldmia	r2!, {r0, r1}
 1268 00b8 03C3     		stmia	r3!, {r0, r1}
 1269 00ba DC23     		movs	r3, #220
 1270 00bc 9B00     		lsls	r3, r3, #2
 1271 00be E258     		ldr	r2, [r4, r3]
 1272 00c0 5133     		adds	r3, r3, #81
 1273 00c2 FF33     		adds	r3, r3, #255
 1274 00c4 D358     		ldr	r3, [r2, r3]
 1275 00c6 2900     		movs	r1, r5
 1276 00c8 A033     		adds	r3, r3, #160
 1277 00ca 1B68     		ldr	r3, [r3]
 1278 00cc 0FA8     		add	r0, sp, #60
 1279 00ce 9847     		blx	r3
 1280 00d0 0223     		movs	r3, #2
 1281 00d2 7B70     		strb	r3, [r7, #1]
 1282 00d4 884B     		ldr	r3, .L173
 1283 00d6 0690     		str	r0, [sp, #24]
 1284              	.L171:
 1285 00d8 7B60     		str	r3, [r7, #4]
 1286              	.L154:
 1287 00da DC23     		movs	r3, #220
ARM GAS  /tmp/ccAFBIk9.s 			page 26


 1288 00dc 0EAE     		add	r6, sp, #56
 1289 00de 9B00     		lsls	r3, r3, #2
 1290 00e0 3200     		movs	r2, r6
 1291 00e2 2100     		movs	r1, r4
 1292 00e4 E058     		ldr	r0, [r4, r3]
 1293 00e6 FFF7FEFF 		bl	rp_hook_get_id
 1294 00ea 0028     		cmp	r0, #0
 1295 00ec 05D0     		beq	.L158
 1296 00ee E821     		movs	r1, #232
 1297 00f0 824A     		ldr	r2, .L173+4
 1298 00f2 8348     		ldr	r0, .L173+8
 1299 00f4 FF31     		adds	r1, r1, #255
 1300 00f6 FFF7FEFF 		bl	smtc_modem_hal_on_panic
 1301              	.L158:
 1302 00fa 3378     		ldrb	r3, [r6]
 1303 00fc 08AD     		add	r5, sp, #32
 1304 00fe 2B70     		strb	r3, [r5]
 1305 0100 069B     		ldr	r3, [sp, #24]
 1306 0102 EE26     		movs	r6, #238
 1307 0104 6B61     		str	r3, [r5, #20]
 1308 0106 ED23     		movs	r3, #237
 1309 0108 9B00     		lsls	r3, r3, #2
 1310 010a E358     		ldr	r3, [r4, r3]
 1311 010c B600     		lsls	r6, r6, #2
 1312 010e EB60     		str	r3, [r5, #12]
 1313 0110 A35D     		ldrb	r3, [r4, r6]
 1314 0112 002B     		cmp	r3, #0
 1315 0114 00D1     		bne	.LCB1306
 1316 0116 ECE0     		b	.L159	@long jump
 1317              	.LCB1306:
 1318 0118 FFF7FEFF 		bl	smtc_modem_hal_get_radio_tcxo_startup_delay_ms
 1319 011c EB68     		ldr	r3, [r5, #12]
 1320 011e 181A     		subs	r0, r3, r0
 1321 0120 0023     		movs	r3, #0
 1322 0122 E860     		str	r0, [r5, #12]
 1323 0124 A355     		strb	r3, [r4, r6]
 1324              	.L172:
 1325 0126 AB72     		strb	r3, [r5, #10]
 1326 0128 0223     		movs	r3, #2
 1327 012a 764E     		ldr	r6, .L173+12
 1328 012c 19AA     		add	r2, sp, #100
 1329 012e A355     		strb	r3, [r4, r6]
 1330 0130 2300     		movs	r3, r4
 1331 0132 DC20     		movs	r0, #220
 1332 0134 3433     		adds	r3, r3, #52
 1333 0136 1B78     		ldrb	r3, [r3]
 1334 0138 0092     		str	r2, [sp]
 1335 013a 2200     		movs	r2, r4
 1336 013c 8000     		lsls	r0, r0, #2
 1337 013e 2900     		movs	r1, r5
 1338 0140 2058     		ldr	r0, [r4, r0]
 1339 0142 3532     		adds	r2, r2, #53
 1340 0144 FFF7FEFF 		bl	rp_task_enqueue
 1341 0148 0028     		cmp	r0, #0
 1342 014a 01D0     		beq	.L152
 1343 014c 0623     		movs	r3, #6
 1344 014e A355     		strb	r3, [r4, r6]
ARM GAS  /tmp/ccAFBIk9.s 			page 27


 1345              	.L152:
 1346 0150 3DB0     		add	sp, sp, #244
 1347              		@ sp needed
 1348 0152 F0BD     		pop	{r4, r5, r6, r7, pc}
 1349              	.L153:
 1350 0154 039B     		ldr	r3, [sp, #12]
 1351 0156 012B     		cmp	r3, #1
 1352 0158 55D1     		bne	.L155
 1353 015a 0EAD     		add	r5, sp, #56
 1354 015c 217B     		ldrb	r1, [r4, #12]
 1355 015e 2068     		ldr	r0, [r4]
 1356 0160 07AA     		add	r2, sp, #28
 1357 0162 FFF7FEFF 		bl	smtc_real_fsk_dr_to_bitrate
 1358 0166 3100     		movs	r1, r6
 1359 0168 2C22     		movs	r2, #44
 1360 016a 2800     		movs	r0, r5
 1361 016c FFF7FEFF 		bl	memset
 1362 0170 D923     		movs	r3, #217
 1363 0172 0E21     		movs	r1, #14
 1364 0174 9B00     		lsls	r3, r3, #2
 1365 0176 E258     		ldr	r2, [r4, r3]
 1366 0178 6156     		ldrsb	r1, [r4, r1]
 1367 017a 237B     		ldrb	r3, [r4, #12]
 1368 017c 2068     		ldr	r0, [r4]
 1369 017e 1692     		str	r2, [sp, #88]
 1370 0180 FFF7FEFF 		bl	smtc_real_clamp_output_power_eirp_vs_freq_and_dr
 1371 0184 5A23     		movs	r3, #90
 1372 0186 02AA     		add	r2, sp, #8
 1373 0188 9B18     		adds	r3, r3, r2
 1374 018a 1870     		strb	r0, [r3]
 1375 018c 2068     		ldr	r0, [r4]
 1376 018e FFF7FEFF 		bl	smtc_real_get_gfsk_sync_word
 1377 0192 5D4B     		ldr	r3, .L173+16
 1378 0194 1590     		str	r0, [sp, #84]
 1379 0196 2B85     		strh	r3, [r5, #40]
 1380 0198 5C4B     		ldr	r3, .L173+20
 1381 019a 1793     		str	r3, [sp, #92]
 1382 019c 039B     		ldr	r3, [sp, #12]
 1383 019e 6B75     		strb	r3, [r5, #21]
 1384 01a0 2300     		movs	r3, r4
 1385 01a2 3433     		adds	r3, r3, #52
 1386 01a4 1B78     		ldrb	r3, [r3]
 1387 01a6 EB82     		strh	r3, [r5, #22]
 1388 01a8 594B     		ldr	r3, .L173+24
 1389 01aa 1293     		str	r3, [sp, #72]
 1390 01ac 8223     		movs	r3, #130
 1391 01ae 5B00     		lsls	r3, r3, #1
 1392 01b0 2B83     		strh	r3, [r5, #24]
 1393 01b2 02AB     		add	r3, sp, #8
 1394 01b4 1A7D     		ldrb	r2, [r3, #20]
 1395 01b6 FA23     		movs	r3, #250
 1396 01b8 9B00     		lsls	r3, r3, #2
 1397 01ba 5343     		muls	r3, r2
 1398 01bc 0E93     		str	r3, [sp, #56]
 1399 01be 554B     		ldr	r3, .L173+28
 1400 01c0 5C22     		movs	r2, #92
 1401 01c2 0F93     		str	r3, [sp, #60]
ARM GAS  /tmp/ccAFBIk9.s 			page 28


 1402 01c4 544B     		ldr	r3, .L173+32
 1403 01c6 1093     		str	r3, [sp, #64]
 1404 01c8 0423     		movs	r3, #4
 1405 01ca 2B73     		strb	r3, [r5, #12]
 1406 01cc 02AB     		add	r3, sp, #8
 1407 01ce 9B18     		adds	r3, r3, r2
 1408 01d0 2A00     		movs	r2, r5
 1409 01d2 1E70     		strb	r6, [r3]
 1410 01d4 1AAB     		add	r3, sp, #104
 1411 01d6 43CA     		ldmia	r2!, {r0, r1, r6}
 1412 01d8 43C3     		stmia	r3!, {r0, r1, r6}
 1413 01da 43CA     		ldmia	r2!, {r0, r1, r6}
 1414 01dc 43C3     		stmia	r3!, {r0, r1, r6}
 1415 01de 43CA     		ldmia	r2!, {r0, r1, r6}
 1416 01e0 43C3     		stmia	r3!, {r0, r1, r6}
 1417 01e2 03CA     		ldmia	r2!, {r0, r1}
 1418 01e4 03C3     		stmia	r3!, {r0, r1}
 1419 01e6 DC23     		movs	r3, #220
 1420 01e8 9B00     		lsls	r3, r3, #2
 1421 01ea E258     		ldr	r2, [r4, r3]
 1422 01ec 5133     		adds	r3, r3, #81
 1423 01ee FF33     		adds	r3, r3, #255
 1424 01f0 D358     		ldr	r3, [r2, r3]
 1425 01f2 2900     		movs	r1, r5
 1426 01f4 A433     		adds	r3, r3, #164
 1427 01f6 1B68     		ldr	r3, [r3]
 1428 01f8 12A8     		add	r0, sp, #72
 1429 01fa 9847     		blx	r3
 1430 01fc 0323     		movs	r3, #3
 1431 01fe 0690     		str	r0, [sp, #24]
 1432 0200 7B70     		strb	r3, [r7, #1]
 1433 0202 464B     		ldr	r3, .L173+36
 1434 0204 68E7     		b	.L171
 1435              	.L155:
 1436 0206 039B     		ldr	r3, [sp, #12]
 1437 0208 022B     		cmp	r3, #2
 1438 020a 6BD1     		bne	.L156
 1439 020c 02AA     		add	r2, sp, #8
 1440 020e 0D33     		adds	r3, r3, #13
 1441 0210 9B18     		adds	r3, r3, r2
 1442 0212 0E22     		movs	r2, #14
 1443 0214 02A8     		add	r0, sp, #8
 1444 0216 1218     		adds	r2, r2, r0
 1445 0218 0EAD     		add	r5, sp, #56
 1446 021a 217B     		ldrb	r1, [r4, #12]
 1447 021c 2068     		ldr	r0, [r4]
 1448 021e FFF7FEFF 		bl	smtc_real_lr_fhss_dr_to_cr_bw
 1449 0222 1822     		movs	r2, #24
 1450 0224 3100     		movs	r1, r6
 1451 0226 2800     		movs	r0, r5
 1452 0228 FFF7FEFF 		bl	memset
 1453 022c D922     		movs	r2, #217
 1454 022e 0E21     		movs	r1, #14
 1455 0230 9200     		lsls	r2, r2, #2
 1456 0232 237B     		ldrb	r3, [r4, #12]
 1457 0234 6156     		ldrsb	r1, [r4, r1]
 1458 0236 A258     		ldr	r2, [r4, r2]
ARM GAS  /tmp/ccAFBIk9.s 			page 29


 1459 0238 2068     		ldr	r0, [r4]
 1460 023a FFF7FEFF 		bl	smtc_real_clamp_output_power_eirp_vs_freq_and_dr
 1461 023e DC23     		movs	r3, #220
 1462 0240 9B00     		lsls	r3, r3, #2
 1463 0242 E258     		ldr	r2, [r4, r3]
 1464 0244 5133     		adds	r3, r3, #81
 1465 0246 2875     		strb	r0, [r5, #20]
 1466 0248 FF33     		adds	r3, r3, #255
 1467 024a D058     		ldr	r0, [r2, r3]
 1468 024c 2900     		movs	r1, r5
 1469 024e 0300     		movs	r3, r0
 1470 0250 D833     		adds	r3, r3, #216
 1471 0252 1B68     		ldr	r3, [r3]
 1472 0254 0068     		ldr	r0, [r0]
 1473 0256 0796     		str	r6, [sp, #28]
 1474 0258 07AA     		add	r2, sp, #28
 1475 025a 9847     		blx	r3
 1476 025c 0028     		cmp	r0, #0
 1477 025e 05D0     		beq	.L157
 1478 0260 E321     		movs	r1, #227
 1479 0262 2F4A     		ldr	r2, .L173+40
 1480 0264 2648     		ldr	r0, .L173+8
 1481 0266 4900     		lsls	r1, r1, #1
 1482 0268 FFF7FEFF 		bl	smtc_modem_hal_on_panic
 1483              	.L157:
 1484 026c 079B     		ldr	r3, [sp, #28]
 1485 026e 0020     		movs	r0, #0
 1486 0270 591E     		subs	r1, r3, #1
 1487 0272 FFF7FEFF 		bl	smtc_modem_hal_get_random_nb_in_range
 1488 0276 0026     		movs	r6, #0
 1489 0278 02AB     		add	r3, sp, #8
 1490 027a 9B7B     		ldrb	r3, [r3, #14]
 1491 027c E882     		strh	r0, [r5, #22]
 1492 027e 2068     		ldr	r0, [r4]
 1493 0280 2E71     		strb	r6, [r5, #4]
 1494 0282 6B71     		strb	r3, [r5, #5]
 1495 0284 FFF7FEFF 		bl	smtc_real_lr_fhss_get_grid
 1496 0288 0123     		movs	r3, #1
 1497 028a 2B72     		strb	r3, [r5, #8]
 1498 028c 02AB     		add	r3, sp, #8
 1499 028e DB7B     		ldrb	r3, [r3, #15]
 1500 0290 A871     		strb	r0, [r5, #6]
 1501 0292 EB71     		strb	r3, [r5, #7]
 1502 0294 02AB     		add	r3, sp, #8
 1503 0296 987B     		ldrb	r0, [r3, #14]
 1504 0298 FFF7FEFF 		bl	smtc_real_lr_fhss_get_header_count
 1505 029c 6872     		strb	r0, [r5, #9]
 1506 029e 2068     		ldr	r0, [r4]
 1507 02a0 FFF7FEFF 		bl	smtc_real_get_lr_fhss_sync_word
 1508 02a4 D923     		movs	r3, #217
 1509 02a6 2A00     		movs	r2, r5
 1510 02a8 9B00     		lsls	r3, r3, #2
 1511 02aa E358     		ldr	r3, [r4, r3]
 1512 02ac 0E90     		str	r0, [sp, #56]
 1513 02ae 2E74     		strb	r6, [r5, #16]
 1514 02b0 EB60     		str	r3, [r5, #12]
 1515 02b2 1AAB     		add	r3, sp, #104
ARM GAS  /tmp/ccAFBIk9.s 			page 30


 1516 02b4 43CA     		ldmia	r2!, {r0, r1, r6}
 1517 02b6 43C3     		stmia	r3!, {r0, r1, r6}
 1518 02b8 43CA     		ldmia	r2!, {r0, r1, r6}
 1519 02ba 43C3     		stmia	r3!, {r0, r1, r6}
 1520 02bc DC23     		movs	r3, #220
 1521 02be 9B00     		lsls	r3, r3, #2
 1522 02c0 E258     		ldr	r2, [r4, r3]
 1523 02c2 5133     		adds	r3, r3, #81
 1524 02c4 FF33     		adds	r3, r3, #255
 1525 02c6 D058     		ldr	r0, [r2, r3]
 1526 02c8 2300     		movs	r3, r4
 1527 02ca 3433     		adds	r3, r3, #52
 1528 02cc 1A78     		ldrb	r2, [r3]
 1529 02ce 0300     		movs	r3, r0
 1530 02d0 D433     		adds	r3, r3, #212
 1531 02d2 1E68     		ldr	r6, [r3]
 1532 02d4 2900     		movs	r1, r5
 1533 02d6 06AB     		add	r3, sp, #24
 1534 02d8 0068     		ldr	r0, [r0]
 1535 02da B047     		blx	r6
 1536 02dc 0423     		movs	r3, #4
 1537 02de 7B70     		strb	r3, [r7, #1]
 1538 02e0 104B     		ldr	r3, .L173+44
 1539 02e2 F9E6     		b	.L171
 1540              	.L156:
 1541 02e4 E221     		movs	r1, #226
 1542 02e6 104A     		ldr	r2, .L173+48
 1543 02e8 0548     		ldr	r0, .L173+8
 1544 02ea FF31     		adds	r1, r1, #255
 1545 02ec FFF7FEFF 		bl	smtc_modem_hal_on_panic
 1546 02f0 F3E6     		b	.L154
 1547              	.L159:
 1548 02f2 0123     		movs	r3, #1
 1549 02f4 17E7     		b	.L172
 1550              	.L174:
 1551 02f6 C046     		.align	2
 1552              	.L173:
 1553 02f8 00000000 		.word	lr1_stack_mac_tx_lora_launch_callback_for_rp
 1554 02fc A6000000 		.word	.LC51
 1555 0300 00000000 		.word	.LANCHOR6
 1556 0304 6E030000 		.word	878
 1557 0308 FF010000 		.word	511
 1558 030c 0F1D2110 		.word	270605583
 1559 0310 28000218 		.word	402784296
 1560 0314 A8610000 		.word	25000
 1561 0318 A0860100 		.word	100000
 1562 031c 00000000 		.word	lr1_stack_mac_tx_gfsk_launch_callback_for_rp
 1563 0320 00000000 		.word	.LC45
 1564 0324 00000000 		.word	lr1_stack_mac_tx_lr_fhss_launch_callback_for_rp
 1565 0328 89000000 		.word	.LC49
 1567              		.section	.rodata.lr1_stack_mac_rx_radio_start.str1.1,"aMS",%progbits,1
 1568              	.LC55:
 1569 0000 52582077 		.ascii	"RX windows unknow\012\000"
 1569      696E646F 
 1569      77732075 
 1569      6E6B6E6F 
 1569      770A00
ARM GAS  /tmp/ccAFBIk9.s 			page 31


 1570              	.LC58:
 1571 0013 4D4F4455 		.ascii	"MODULATION NOT SUPPORTED\012\000"
 1571      4C415449 
 1571      4F4E204E 
 1571      4F542053 
 1571      5550504F 
 1572              		.section	.text.lr1_stack_mac_rx_radio_start,"ax",%progbits
 1573              		.align	1
 1574              		.global	lr1_stack_mac_rx_radio_start
 1575              		.syntax unified
 1576              		.code	16
 1577              		.thumb_func
 1578              		.fpu softvfp
 1580              	lr1_stack_mac_rx_radio_start:
 1581              		@ args = 0, pretend = 0, frame = 200
 1582              		@ frame_needed = 0, uses_anonymous_args = 0
 1583 0000 DB23     		movs	r3, #219
 1584 0002 F0B5     		push	{r4, r5, r6, r7, lr}
 1585 0004 B5B0     		sub	sp, sp, #212
 1586 0006 9B00     		lsls	r3, r3, #2
 1587 0008 0392     		str	r2, [sp, #12]
 1588 000a C75C     		ldrb	r7, [r0, r3]
 1589 000c 0400     		movs	r4, r0
 1590 000e 0D00     		movs	r5, r1
 1591 0010 0068     		ldr	r0, [r0]
 1592 0012 3900     		movs	r1, r7
 1593 0014 FFF7FEFF 		bl	smtc_real_get_modulation_type_from_datarate
 1594 0018 8C22     		movs	r2, #140
 1595 001a 0600     		movs	r6, r0
 1596 001c 0021     		movs	r1, #0
 1597 001e 11A8     		add	r0, sp, #68
 1598 0020 FFF7FEFF 		bl	memset
 1599 0024 6C4B     		ldr	r3, .L195
 1600 0026 E554     		strb	r5, [r4, r3]
 1601 0028 002D     		cmp	r5, #0
 1602 002a 09D0     		beq	.L176
 1603 002c 012D     		cmp	r5, #1
 1604 002e 00D1     		bne	.LCB1614
 1605 0030 8DE0     		b	.L177	@long jump
 1606              	.LCB1614:
 1607 0032 6A4A     		ldr	r2, .L195+4
 1608 0034 6A49     		ldr	r1, .L195+8
 1609 0036 6B48     		ldr	r0, .L195+12
 1610 0038 FFF7FEFF 		bl	smtc_modem_hal_on_panic
 1611 003c 0023     		movs	r3, #0
 1612 003e 02E0     		b	.L193
 1613              	.L176:
 1614 0040 DA23     		movs	r3, #218
 1615 0042 9B00     		lsls	r3, r3, #2
 1616 0044 E358     		ldr	r3, [r4, r3]
 1617              	.L193:
 1618 0046 0293     		str	r3, [sp, #8]
 1619 0048 002E     		cmp	r6, #0
 1620 004a 00D0     		beq	.LCB1632
 1621 004c 81E0     		b	.L180	@long jump
 1622              	.LCB1632:
 1623 004e 0F23     		movs	r3, #15
ARM GAS  /tmp/ccAFBIk9.s 			page 32


 1624 0050 02AA     		add	r2, sp, #8
 1625 0052 9B18     		adds	r3, r3, r2
 1626 0054 0E22     		movs	r2, #14
 1627 0056 02A9     		add	r1, sp, #8
 1628 0058 06AD     		add	r5, sp, #24
 1629 005a 5218     		adds	r2, r2, r1
 1630 005c 2068     		ldr	r0, [r4]
 1631 005e 3900     		movs	r1, r7
 1632 0060 FFF7FEFF 		bl	smtc_real_lora_dr_to_sf_bw
 1633 0064 1422     		movs	r2, #20
 1634 0066 3100     		movs	r1, r6
 1635 0068 2800     		movs	r0, r5
 1636 006a FFF7FEFF 		bl	memset
 1637 006e 2068     		ldr	r0, [r4]
 1638 0070 FFF7FEFF 		bl	smtc_real_get_sync_word
 1639 0074 E023     		movs	r3, #224
 1640 0076 6874     		strb	r0, [r5, #17]
 1641 0078 9B00     		lsls	r3, r3, #2
 1642 007a E35A     		ldrh	r3, [r4, r3]
 1643 007c 2068     		ldr	r0, [r4]
 1644 007e AB74     		strb	r3, [r5, #18]
 1645 0080 029B     		ldr	r3, [sp, #8]
 1646 0082 EB60     		str	r3, [r5, #12]
 1647 0084 FFF7FEFF 		bl	smtc_real_get_coding_rate
 1648 0088 02AB     		add	r3, sp, #8
 1649 008a D97B     		ldrb	r1, [r3, #15]
 1650 008c A870     		strb	r0, [r5, #2]
 1651 008e 987B     		ldrb	r0, [r3, #14]
 1652 0090 6970     		strb	r1, [r5, #1]
 1653 0092 2870     		strb	r0, [r5]
 1654 0094 FFF7FEFF 		bl	ral_compute_lora_ldro
 1655 0098 0122     		movs	r2, #1
 1656 009a E870     		strb	r0, [r5, #3]
 1657 009c 3900     		movs	r1, r7
 1658 009e AE71     		strb	r6, [r5, #6]
 1659 00a0 2068     		ldr	r0, [r4]
 1660 00a2 FFF7FEFF 		bl	smtc_real_get_max_payload_size
 1661 00a6 8023     		movs	r3, #128
 1662 00a8 0530     		adds	r0, r0, #5
 1663 00aa 5B00     		lsls	r3, r3, #1
 1664 00ac 2978     		ldrb	r1, [r5]
 1665 00ae E871     		strb	r0, [r5, #7]
 1666 00b0 2B81     		strh	r3, [r5, #8]
 1667 00b2 2068     		ldr	r0, [r4]
 1668 00b4 FFF7FEFF 		bl	smtc_real_get_preamble_len
 1669 00b8 0123     		movs	r3, #1
 1670 00ba 11AA     		add	r2, sp, #68
 1671 00bc 1370     		strb	r3, [r2]
 1672 00be A880     		strh	r0, [r5, #4]
 1673 00c0 1DAB     		add	r3, sp, #116
 1674 00c2 43CD     		ldmia	r5!, {r0, r1, r6}
 1675 00c4 43C3     		stmia	r3!, {r0, r1, r6}
 1676 00c6 03CD     		ldmia	r5!, {r0, r1}
 1677 00c8 03C3     		stmia	r3!, {r0, r1}
 1678 00ca DE23     		movs	r3, #222
 1679              	.L194:
 1680 00cc 9B00     		lsls	r3, r3, #2
ARM GAS  /tmp/ccAFBIk9.s 			page 33


 1681 00ce E358     		ldr	r3, [r4, r3]
 1682 00d0 2893     		str	r3, [sp, #160]
 1683              	.L181:
 1684 00d2 0F25     		movs	r5, #15
 1685 00d4 02AB     		add	r3, sp, #8
 1686 00d6 ED18     		adds	r5, r5, r3
 1687 00d8 DC23     		movs	r3, #220
 1688 00da 9B00     		lsls	r3, r3, #2
 1689 00dc 2A00     		movs	r2, r5
 1690 00de 2100     		movs	r1, r4
 1691 00e0 E058     		ldr	r0, [r4, r3]
 1692 00e2 FFF7FEFF 		bl	rp_hook_get_id
 1693 00e6 0028     		cmp	r0, #0
 1694 00e8 04D0     		beq	.L183
 1695 00ea 3F4A     		ldr	r2, .L195+16
 1696 00ec 3F49     		ldr	r1, .L195+20
 1697 00ee 3D48     		ldr	r0, .L195+12
 1698 00f0 FFF7FEFF 		bl	smtc_modem_hal_on_panic
 1699              	.L183:
 1700 00f4 1422     		movs	r2, #20
 1701 00f6 0021     		movs	r1, #0
 1702 00f8 06A8     		add	r0, sp, #24
 1703 00fa FFF7FEFF 		bl	memset
 1704 00fe 2B78     		ldrb	r3, [r5]
 1705 0100 02AA     		add	r2, sp, #8
 1706 0102 1374     		strb	r3, [r2, #16]
 1707 0104 11AA     		add	r2, sp, #68
 1708 0106 1178     		ldrb	r1, [r2]
 1709 0108 4B1E     		subs	r3, r1, #1
 1710 010a 581E     		subs	r0, r3, #1
 1711 010c 8341     		sbcs	r3, r3, r0
 1712 010e 02A8     		add	r0, sp, #8
 1713 0110 4374     		strb	r3, [r0, #17]
 1714 0112 374B     		ldr	r3, .L195+24
 1715 0114 0129     		cmp	r1, #1
 1716 0116 00D0     		beq	.L184
 1717 0118 364B     		ldr	r3, .L195+28
 1718              	.L184:
 1719 011a 0793     		str	r3, [sp, #28]
 1720 011c 039B     		ldr	r3, [sp, #12]
 1721 011e DC20     		movs	r0, #220
 1722 0120 0993     		str	r3, [sp, #36]
 1723 0122 DF23     		movs	r3, #223
 1724 0124 9B00     		lsls	r3, r3, #2
 1725 0126 E358     		ldr	r3, [r4, r3]
 1726 0128 0092     		str	r2, [sp]
 1727 012a 334A     		ldr	r2, .L195+32
 1728 012c 8000     		lsls	r0, r0, #2
 1729 012e 0293     		str	r3, [sp, #8]
 1730 0130 0B93     		str	r3, [sp, #44]
 1731 0132 2058     		ldr	r0, [r4, r0]
 1732 0134 FF23     		movs	r3, #255
 1733 0136 A218     		adds	r2, r4, r2
 1734 0138 06A9     		add	r1, sp, #24
 1735 013a FFF7FEFF 		bl	rp_task_enqueue
 1736 013e 0423     		movs	r3, #4
 1737 0140 0028     		cmp	r0, #0
ARM GAS  /tmp/ccAFBIk9.s 			page 34


 1738 0142 00D0     		beq	.L185
 1739 0144 0233     		adds	r3, r3, #2
 1740              	.L185:
 1741 0146 2D4A     		ldr	r2, .L195+36
 1742 0148 A354     		strb	r3, [r4, r2]
 1743 014a 35B0     		add	sp, sp, #212
 1744              		@ sp needed
 1745 014c F0BD     		pop	{r4, r5, r6, r7, pc}
 1746              	.L177:
 1747 014e 6369     		ldr	r3, [r4, #20]
 1748 0150 79E7     		b	.L193
 1749              	.L180:
 1750 0152 012E     		cmp	r6, #1
 1751 0154 39D1     		bne	.L182
 1752 0156 0F23     		movs	r3, #15
 1753 0158 02AA     		add	r2, sp, #8
 1754 015a 9B18     		adds	r3, r3, r2
 1755 015c 06AD     		add	r5, sp, #24
 1756 015e 1A00     		movs	r2, r3
 1757 0160 3900     		movs	r1, r7
 1758 0162 2068     		ldr	r0, [r4]
 1759 0164 FFF7FEFF 		bl	smtc_real_fsk_dr_to_bitrate
 1760 0168 0021     		movs	r1, #0
 1761 016a 2C22     		movs	r2, #44
 1762 016c 2800     		movs	r0, r5
 1763 016e FFF7FEFF 		bl	memset
 1764 0172 029B     		ldr	r3, [sp, #8]
 1765 0174 2068     		ldr	r0, [r4]
 1766 0176 0E93     		str	r3, [sp, #56]
 1767 0178 FFF7FEFF 		bl	smtc_real_get_gfsk_sync_word
 1768 017c 204B     		ldr	r3, .L195+40
 1769 017e 0D90     		str	r0, [sp, #52]
 1770 0180 2B85     		strh	r3, [r5, #40]
 1771 0182 204B     		ldr	r3, .L195+44
 1772 0184 0F93     		str	r3, [sp, #60]
 1773 0186 FF23     		movs	r3, #255
 1774 0188 EB82     		strh	r3, [r5, #22]
 1775 018a 1F4B     		ldr	r3, .L195+48
 1776 018c 6E75     		strb	r6, [r5, #21]
 1777 018e 0A93     		str	r3, [sp, #40]
 1778 0190 8223     		movs	r3, #130
 1779 0192 5B00     		lsls	r3, r3, #1
 1780 0194 2B83     		strh	r3, [r5, #24]
 1781 0196 02AB     		add	r3, sp, #8
 1782 0198 DA7B     		ldrb	r2, [r3, #15]
 1783 019a FA23     		movs	r3, #250
 1784 019c 9B00     		lsls	r3, r3, #2
 1785 019e 5343     		muls	r3, r2
 1786 01a0 0693     		str	r3, [sp, #24]
 1787 01a2 1A4B     		ldr	r3, .L195+52
 1788 01a4 11AA     		add	r2, sp, #68
 1789 01a6 0793     		str	r3, [sp, #28]
 1790 01a8 194B     		ldr	r3, .L195+56
 1791 01aa 0893     		str	r3, [sp, #32]
 1792 01ac 0423     		movs	r3, #4
 1793 01ae 2B73     		strb	r3, [r5, #12]
 1794 01b0 0023     		movs	r3, #0
ARM GAS  /tmp/ccAFBIk9.s 			page 35


 1795 01b2 1370     		strb	r3, [r2]
 1796 01b4 1DAB     		add	r3, sp, #116
 1797 01b6 43CD     		ldmia	r5!, {r0, r1, r6}
 1798 01b8 43C3     		stmia	r3!, {r0, r1, r6}
 1799 01ba 43CD     		ldmia	r5!, {r0, r1, r6}
 1800 01bc 43C3     		stmia	r3!, {r0, r1, r6}
 1801 01be 43CD     		ldmia	r5!, {r0, r1, r6}
 1802 01c0 43C3     		stmia	r3!, {r0, r1, r6}
 1803 01c2 03CD     		ldmia	r5!, {r0, r1}
 1804 01c4 03C3     		stmia	r3!, {r0, r1}
 1805 01c6 DF23     		movs	r3, #223
 1806 01c8 80E7     		b	.L194
 1807              	.L182:
 1808 01ca 9721     		movs	r1, #151
 1809 01cc 114A     		ldr	r2, .L195+60
 1810 01ce 0548     		ldr	r0, .L195+12
 1811 01d0 8900     		lsls	r1, r1, #2
 1812 01d2 FFF7FEFF 		bl	smtc_modem_hal_on_panic
 1813 01d6 7CE7     		b	.L181
 1814              	.L196:
 1815              		.align	2
 1816              	.L195:
 1817 01d8 6D030000 		.word	877
 1818 01dc 00000000 		.word	.LC55
 1819 01e0 16020000 		.word	534
 1820 01e4 00000000 		.word	.LANCHOR7
 1821 01e8 A6000000 		.word	.LC51
 1822 01ec 62020000 		.word	610
 1823 01f0 00000000 		.word	lr1_stack_mac_rx_lora_launch_callback_for_rp
 1824 01f4 00000000 		.word	lr1_stack_mac_rx_gfsk_launch_callback_for_rp
 1825 01f8 ED030000 		.word	1005
 1826 01fc 6E030000 		.word	878
 1827 0200 FF010000 		.word	511
 1828 0204 0F1D2110 		.word	270605583
 1829 0208 28000218 		.word	402784296
 1830 020c A8610000 		.word	25000
 1831 0210 A0860100 		.word	100000
 1832 0214 13000000 		.word	.LC58
 1834              		.section	.text.lr1_stack_mac_rp_callback,"ax",%progbits
 1835              		.align	1
 1836              		.global	lr1_stack_mac_rp_callback
 1837              		.syntax unified
 1838              		.code	16
 1839              		.thumb_func
 1840              		.fpu softvfp
 1842              	lr1_stack_mac_rp_callback:
 1843              		@ args = 0, pretend = 0, frame = 8
 1844              		@ frame_needed = 0, uses_anonymous_args = 0
 1845 0000 F7B5     		push	{r0, r1, r2, r4, r5, r6, r7, lr}
 1846 0002 DC25     		movs	r5, #220
 1847 0004 6B46     		mov	r3, sp
 1848 0006 AD00     		lsls	r5, r5, #2
 1849 0008 0400     		movs	r4, r0
 1850 000a 0100     		movs	r1, r0
 1851 000c DA1C     		adds	r2, r3, #3
 1852 000e 4059     		ldr	r0, [r0, r5]
 1853 0010 FFF7FEFF 		bl	rp_hook_get_id
ARM GAS  /tmp/ccAFBIk9.s 			page 36


 1854 0014 6A46     		mov	r2, sp
 1855 0016 584B     		ldr	r3, .L227
 1856 0018 574F     		ldr	r7, .L227
 1857 001a D178     		ldrb	r1, [r2, #3]
 1858 001c E318     		adds	r3, r4, r3
 1859 001e 6059     		ldr	r0, [r4, r5]
 1860 0020 01AA     		add	r2, sp, #4
 1861 0022 FFF7FEFF 		bl	rp_get_status
 1862 0026 E35D     		ldrb	r3, [r4, r7]
 1863 0028 042B     		cmp	r3, #4
 1864 002a 16D0     		beq	.L198
 1865 002c 052B     		cmp	r3, #5
 1866 002e 52D0     		beq	.L199
 1867 0030 032B     		cmp	r3, #3
 1868 0032 03D1     		bne	.L200
 1869 0034 E123     		movs	r3, #225
 1870 0036 019A     		ldr	r2, [sp, #4]
 1871 0038 9B00     		lsls	r3, r3, #2
 1872 003a E250     		str	r2, [r4, r3]
 1873              	.L200:
 1874 003c 4F4D     		ldr	r5, .L227+4
 1875 003e 635D     		ldrb	r3, [r4, r5]
 1876 0040 022B     		cmp	r3, #2
 1877 0042 00D1     		bne	.LCB1907
 1878 0044 89E0     		b	.L207	@long jump
 1879              	.LCB1907:
 1880 0046 042B     		cmp	r3, #4
 1881 0048 00D1     		bne	.LCB1909
 1882 004a 8DE0     		b	.L208	@long jump
 1883              	.LCB1909:
 1884 004c E35D     		ldrb	r3, [r4, r7]
 1885 004e 0A2B     		cmp	r3, #10
 1886 0050 00D0     		beq	.LCB1912
 1887 0052 8BE0     		b	.L211	@long jump
 1888              	.LCB1912:
 1889              	.L213:
 1890 0054 0623     		movs	r3, #6
 1891 0056 6355     		strb	r3, [r4, r5]
 1892              	.L197:
 1893              		@ sp needed
 1894 0058 F7BD     		pop	{r0, r1, r2, r4, r5, r6, r7, pc}
 1895              	.L198:
 1896 005a 494B     		ldr	r3, .L227+8
 1897 005c 019A     		ldr	r2, [sp, #4]
 1898 005e 6159     		ldr	r1, [r4, r5]
 1899 0060 E250     		str	r2, [r4, r3]
 1900 0062 6B46     		mov	r3, sp
 1901 0064 DA78     		ldrb	r2, [r3, #3]
 1902 0066 8C23     		movs	r3, #140
 1903 0068 5343     		muls	r3, r2
 1904 006a CB18     		adds	r3, r1, r3
 1905 006c 1800     		movs	r0, r3
 1906 006e 8230     		adds	r0, r0, #130
 1907 0070 0588     		ldrh	r5, [r0]
 1908 0072 9E20     		movs	r0, #158
 1909 0074 8033     		adds	r3, r3, #128
 1910 0076 C000     		lsls	r0, r0, #3
ARM GAS  /tmp/ccAFBIk9.s 			page 37


 1911 0078 B132     		adds	r2, r2, #177
 1912 007a 2552     		strh	r5, [r4, r0]
 1913 007c FF32     		adds	r2, r2, #255
 1914 007e 1888     		ldrh	r0, [r3]
 1915 0080 404B     		ldr	r3, .L227+12
 1916 0082 5200     		lsls	r2, r2, #1
 1917 0084 E052     		strh	r0, [r4, r3]
 1918 0086 525A     		ldrh	r2, [r2, r1]
 1919 0088 073B     		subs	r3, r3, #7
 1920 008a FF3B     		subs	r3, r3, #255
 1921 008c E254     		strb	r2, [r4, r3]
 1922 008e 3E4B     		ldr	r3, .L227+16
 1923 0090 E25C     		ldrb	r2, [r4, r3]
 1924 0092 D523     		movs	r3, #213
 1925 0094 5209     		lsrs	r2, r2, #5
 1926 0096 D340     		lsrs	r3, r3, r2
 1927 0098 DB07     		lsls	r3, r3, #31
 1928 009a 15D4     		bmi	.L201
 1929 009c 3B4B     		ldr	r3, .L227+20
 1930 009e E35C     		ldrb	r3, [r4, r3]
 1931 00a0 022B     		cmp	r3, #2
 1932 00a2 CBD1     		bne	.L200
 1933 00a4 3A4B     		ldr	r3, .L227+24
 1934 00a6 3B4A     		ldr	r2, .L227+28
 1935 00a8 E35C     		ldrb	r3, [r4, r3]
 1936 00aa A25C     		ldrb	r2, [r4, r2]
 1937 00ac 1B02     		lsls	r3, r3, #8
 1938 00ae 9B18     		adds	r3, r3, r2
 1939 00b0 FC22     		movs	r2, #252
 1940 00b2 9200     		lsls	r2, r2, #2
 1941 00b4 A25C     		ldrb	r2, [r4, r2]
 1942 00b6 1204     		lsls	r2, r2, #16
 1943 00b8 9B18     		adds	r3, r3, r2
 1944 00ba 374A     		ldr	r2, .L227+32
 1945 00bc A25C     		ldrb	r2, [r4, r2]
 1946 00be 1206     		lsls	r2, r2, #24
 1947 00c0 9B18     		adds	r3, r3, r2
 1948 00c2 A26A     		ldr	r2, [r4, #40]
 1949 00c4 9342     		cmp	r3, r2
 1950 00c6 B9D0     		beq	.L200
 1951              	.L201:
 1952 00c8 0523     		movs	r3, #5
 1953 00ca E355     		strb	r3, [r4, r7]
 1954 00cc FB23     		movs	r3, #251
 1955 00ce 0022     		movs	r2, #0
 1956 00d0 9B00     		lsls	r3, r3, #2
 1957 00d2 E254     		strb	r2, [r4, r3]
 1958 00d4 B2E7     		b	.L200
 1959              	.L199:
 1960 00d6 314A     		ldr	r2, .L227+36
 1961 00d8 019B     		ldr	r3, [sp, #4]
 1962 00da A25C     		ldrb	r2, [r4, r2]
 1963 00dc 002A     		cmp	r2, #0
 1964 00de 29D1     		bne	.L204
 1965 00e0 667E     		ldrb	r6, [r4, #25]
 1966              	.L205:
 1967 00e2 E122     		movs	r2, #225
ARM GAS  /tmp/ccAFBIk9.s 			page 38


 1968 00e4 9200     		lsls	r2, r2, #2
 1969 00e6 A558     		ldr	r5, [r4, r2]
 1970 00e8 083A     		subs	r2, r2, #8
 1971 00ea A258     		ldr	r2, [r4, r2]
 1972 00ec AD18     		adds	r5, r5, r2
 1973 00ee 5D1B     		subs	r5, r3, r5
 1974 00f0 EA23     		movs	r3, #234
 1975 00f2 9B00     		lsls	r3, r3, #2
 1976 00f4 E358     		ldr	r3, [r4, r3]
 1977 00f6 ED1A     		subs	r5, r5, r3
 1978 00f8 DB23     		movs	r3, #219
 1979 00fa 9B00     		lsls	r3, r3, #2
 1980 00fc E35C     		ldrb	r3, [r4, r3]
 1981 00fe C533     		adds	r3, r3, #197
 1982 0100 FF33     		adds	r3, r3, #255
 1983 0102 5B00     		lsls	r3, r3, #1
 1984 0104 1B5F     		ldrsh	r3, [r3, r4]
 1985 0106 ED1A     		subs	r5, r5, r3
 1986 0108 FFF7FEFF 		bl	smtc_modem_hal_get_radio_tcxo_startup_delay_ms
 1987 010c 2D1A     		subs	r5, r5, r0
 1988 010e FA20     		movs	r0, #250
 1989 0110 8000     		lsls	r0, r0, #2
 1990 0112 4643     		muls	r6, r0
 1991 0114 FFF7FEFF 		bl	smtc_modem_hal_get_board_delay_ms
 1992 0118 AE1B     		subs	r6, r5, r6
 1993 011a 301A     		subs	r0, r6, r0
 1994 011c 10D5     		bpl	.L206
 1995 011e DB23     		movs	r3, #219
 1996 0120 E221     		movs	r1, #226
 1997 0122 9B00     		lsls	r3, r3, #2
 1998 0124 E35C     		ldrb	r3, [r4, r3]
 1999 0126 8900     		lsls	r1, r1, #2
 2000 0128 5B00     		lsls	r3, r3, #1
 2001 012a E318     		adds	r3, r4, r3
 2002 012c 5A5A     		ldrh	r2, [r3, r1]
 2003 012e 013A     		subs	r2, r2, #1
 2004              	.L225:
 2005 0130 5A52     		strh	r2, [r3, r1]
 2006 0132 83E7     		b	.L200
 2007              	.L204:
 2008 0134 0026     		movs	r6, #0
 2009 0136 012A     		cmp	r2, #1
 2010 0138 D3D1     		bne	.L205
 2011 013a 667E     		ldrb	r6, [r4, #25]
 2012 013c 0136     		adds	r6, r6, #1
 2013 013e D0E7     		b	.L205
 2014              	.L206:
 2015 0140 0028     		cmp	r0, #0
 2016 0142 00D1     		bne	.LCB2070
 2017 0144 7AE7     		b	.L200	@long jump
 2018              	.LCB2070:
 2019 0146 DB23     		movs	r3, #219
 2020 0148 E221     		movs	r1, #226
 2021 014a 9B00     		lsls	r3, r3, #2
 2022 014c E35C     		ldrb	r3, [r4, r3]
 2023 014e 8900     		lsls	r1, r1, #2
 2024 0150 5B00     		lsls	r3, r3, #1
ARM GAS  /tmp/ccAFBIk9.s 			page 39


 2025 0152 E318     		adds	r3, r4, r3
 2026 0154 5A5A     		ldrh	r2, [r3, r1]
 2027 0156 0132     		adds	r2, r2, #1
 2028 0158 EAE7     		b	.L225
 2029              	.L207:
 2030 015a 0323     		movs	r3, #3
 2031              	.L226:
 2032 015c 6355     		strb	r3, [r4, r5]
 2033              	.L210:
 2034 015e E35D     		ldrb	r3, [r4, r7]
 2035 0160 0A2B     		cmp	r3, #10
 2036 0162 00D0     		beq	.LCB2092
 2037 0164 78E7     		b	.L197	@long jump
 2038              	.LCB2092:
 2039 0166 75E7     		b	.L213
 2040              	.L208:
 2041 0168 0523     		movs	r3, #5
 2042 016a F7E7     		b	.L226
 2043              	.L211:
 2044 016c 0C4A     		ldr	r2, .L227+40
 2045 016e 0D49     		ldr	r1, .L227+44
 2046 0170 0D48     		ldr	r0, .L227+48
 2047 0172 FFF7FEFF 		bl	smtc_modem_hal_on_panic
 2048 0176 F2E7     		b	.L210
 2049              	.L228:
 2050              		.align	2
 2051              	.L227:
 2052 0178 83030000 		.word	899
 2053 017c 6E030000 		.word	878
 2054 0180 EC040000 		.word	1260
 2055 0184 F2040000 		.word	1266
 2056 0188 ED030000 		.word	1005
 2057 018c 82030000 		.word	898
 2058 0190 EF030000 		.word	1007
 2059 0194 EE030000 		.word	1006
 2060 0198 F1030000 		.word	1009
 2061 019c 6D030000 		.word	877
 2062 01a0 A6000000 		.word	.LC51
 2063 01a4 FA020000 		.word	762
 2064 01a8 00000000 		.word	.LANCHOR8
 2066              		.section	.text.lr1_stack_mac_rx_timer_configure,"ax",%progbits
 2067              		.align	1
 2068              		.global	lr1_stack_mac_rx_timer_configure
 2069              		.syntax unified
 2070              		.code	16
 2071              		.thumb_func
 2072              		.fpu softvfp
 2074              	lr1_stack_mac_rx_timer_configure:
 2075              		@ args = 0, pretend = 0, frame = 16
 2076              		@ frame_needed = 0, uses_anonymous_args = 0
 2077 0000 F0B5     		push	{r4, r5, r6, r7, lr}
 2078 0002 89B0     		sub	sp, sp, #36
 2079 0004 0400     		movs	r4, r0
 2080 0006 0D00     		movs	r5, r1
 2081 0008 FFF7FEFF 		bl	smtc_modem_hal_get_time_in_ms
 2082 000c 0490     		str	r0, [sp, #16]
 2083 000e 002D     		cmp	r5, #0
ARM GAS  /tmp/ccAFBIk9.s 			page 40


 2084 0010 0AD0     		beq	.L230
 2085 0012 012D     		cmp	r5, #1
 2086 0014 68D0     		beq	.L231
 2087 0016 C821     		movs	r1, #200
 2088 0018 4348     		ldr	r0, .L241
 2089 001a 444A     		ldr	r2, .L241+4
 2090 001c 8900     		lsls	r1, r1, #2
 2091 001e FFF7FEFF 		bl	smtc_modem_hal_on_panic
 2092 0022 0020     		movs	r0, #0
 2093              	.L234:
 2094 0024 09B0     		add	sp, sp, #36
 2095              		@ sp needed
 2096 0026 F0BD     		pop	{r4, r5, r6, r7, pc}
 2097              	.L230:
 2098 0028 227E     		ldrb	r2, [r4, #24]
 2099 002a 217B     		ldrb	r1, [r4, #12]
 2100 002c 2068     		ldr	r0, [r4]
 2101 002e 667E     		ldrb	r6, [r4, #25]
 2102 0030 FFF7FEFF 		bl	smtc_real_get_rx1_datarate_config
 2103 0034 DB23     		movs	r3, #219
 2104 0036 9B00     		lsls	r3, r3, #2
 2105 0038 E054     		strb	r0, [r4, r3]
 2106              	.L233:
 2107 003a DB27     		movs	r7, #219
 2108 003c BF00     		lsls	r7, r7, #2
 2109 003e E15D     		ldrb	r1, [r4, r7]
 2110 0040 2068     		ldr	r0, [r4]
 2111 0042 FFF7FEFF 		bl	smtc_real_get_modulation_type_from_datarate
 2112 0046 0028     		cmp	r0, #0
 2113 0048 55D1     		bne	.L235
 2114 004a 1623     		movs	r3, #22
 2115 004c 02AA     		add	r2, sp, #8
 2116 004e 9B18     		adds	r3, r3, r2
 2117 0050 1522     		movs	r2, #21
 2118 0052 02A8     		add	r0, sp, #8
 2119 0054 1218     		adds	r2, r2, r0
 2120 0056 E15D     		ldrb	r1, [r4, r7]
 2121 0058 2068     		ldr	r0, [r4]
 2122 005a FFF7FEFF 		bl	smtc_real_lora_dr_to_sf_bw
 2123              	.L236:
 2124 005e FA22     		movs	r2, #250
 2125 0060 9200     		lsls	r2, r2, #2
 2126 0062 5643     		muls	r6, r2
 2127 0064 FFF7FEFF 		bl	smtc_modem_hal_get_radio_tcxo_startup_delay_ms
 2128 0068 0700     		movs	r7, r0
 2129 006a FFF7FEFF 		bl	smtc_modem_hal_get_board_delay_ms
 2130 006e DB23     		movs	r3, #219
 2131 0070 9B00     		lsls	r3, r3, #2
 2132 0072 E15C     		ldrb	r1, [r4, r3]
 2133 0074 0B00     		movs	r3, r1
 2134 0076 C533     		adds	r3, r3, #197
 2135 0078 FF33     		adds	r3, r3, #255
 2136 007a 5B00     		lsls	r3, r3, #1
 2137 007c 1A5F     		ldrsh	r2, [r3, r4]
 2138 007e EF23     		movs	r3, #239
 2139 0080 D719     		adds	r7, r2, r7
 2140 0082 3A18     		adds	r2, r7, r0
ARM GAS  /tmp/ccAFBIk9.s 			page 41


 2141 0084 9B00     		lsls	r3, r3, #2
 2142 0086 0592     		str	r2, [sp, #20]
 2143 0088 E258     		ldr	r2, [r4, r3]
 2144 008a 0027     		movs	r7, #0
 2145 008c 0392     		str	r2, [sp, #12]
 2146 008e DE22     		movs	r2, #222
 2147 0090 9200     		lsls	r2, r2, #2
 2148 0092 A318     		adds	r3, r4, r2
 2149 0094 0432     		adds	r2, r2, #4
 2150 0096 0193     		str	r3, [sp, #4]
 2151 0098 A318     		adds	r3, r4, r2
 2152 009a 0432     		adds	r2, r2, #4
 2153 009c 2068     		ldr	r0, [r4]
 2154 009e 0093     		str	r3, [sp]
 2155 00a0 0297     		str	r7, [sp, #8]
 2156 00a2 A318     		adds	r3, r4, r2
 2157 00a4 3200     		movs	r2, r6
 2158 00a6 FFF7FEFF 		bl	smtc_real_get_rx_window_parameters
 2159 00aa 6A46     		mov	r2, sp
 2160 00ac EA20     		movs	r0, #234
 2161 00ae E023     		movs	r3, #224
 2162 00b0 DB21     		movs	r1, #219
 2163 00b2 127D     		ldrb	r2, [r2, #20]
 2164 00b4 8000     		lsls	r0, r0, #2
 2165 00b6 2018     		adds	r0, r4, r0
 2166 00b8 9B00     		lsls	r3, r3, #2
 2167 00ba 8900     		lsls	r1, r1, #2
 2168 00bc E35A     		ldrh	r3, [r4, r3]
 2169 00be 52B2     		sxtb	r2, r2
 2170 00c0 0090     		str	r0, [sp]
 2171 00c2 615C     		ldrb	r1, [r4, r1]
 2172 00c4 2068     		ldr	r0, [r4]
 2173 00c6 FFF7FEFF 		bl	smtc_real_get_rx_start_time_offset_ms
 2174 00ca E123     		movs	r3, #225
 2175 00cc 9B00     		lsls	r3, r3, #2
 2176 00ce E258     		ldr	r2, [r4, r3]
 2177 00d0 2433     		adds	r3, r3, #36
 2178 00d2 E058     		ldr	r0, [r4, r3]
 2179 00d4 049B     		ldr	r3, [sp, #16]
 2180 00d6 1218     		adds	r2, r2, r0
 2181 00d8 D21A     		subs	r2, r2, r3
 2182 00da 9219     		adds	r2, r2, r6
 2183 00dc 1BD5     		bpl	.L238
 2184 00de 0522     		movs	r2, #5
 2185 00e0 134B     		ldr	r3, .L241+8
 2186 00e2 0120     		movs	r0, #1
 2187 00e4 E254     		strb	r2, [r4, r3]
 2188 00e6 9DE7     		b	.L234
 2189              	.L231:
 2190 00e8 DB23     		movs	r3, #219
 2191 00ea 667E     		ldrb	r6, [r4, #25]
 2192 00ec A27C     		ldrb	r2, [r4, #18]
 2193 00ee 9B00     		lsls	r3, r3, #2
 2194 00f0 0136     		adds	r6, r6, #1
 2195 00f2 E254     		strb	r2, [r4, r3]
 2196 00f4 A1E7     		b	.L233
 2197              	.L235:
ARM GAS  /tmp/ccAFBIk9.s 			page 42


 2198 00f6 0128     		cmp	r0, #1
 2199 00f8 07D1     		bne	.L237
 2200 00fa 1722     		movs	r2, #23
 2201 00fc 02AB     		add	r3, sp, #8
 2202 00fe E15D     		ldrb	r1, [r4, r7]
 2203 0100 2068     		ldr	r0, [r4]
 2204 0102 D218     		adds	r2, r2, r3
 2205 0104 FFF7FEFF 		bl	smtc_real_fsk_dr_to_bitrate
 2206 0108 A9E7     		b	.L236
 2207              	.L237:
 2208 010a 0A4A     		ldr	r2, .L241+12
 2209 010c 0A49     		ldr	r1, .L241+16
 2210 010e 0648     		ldr	r0, .L241
 2211 0110 FFF7FEFF 		bl	smtc_modem_hal_on_panic
 2212 0114 A3E7     		b	.L236
 2213              	.L238:
 2214 0116 049B     		ldr	r3, [sp, #16]
 2215 0118 2000     		movs	r0, r4
 2216 011a 2900     		movs	r1, r5
 2217 011c D218     		adds	r2, r2, r3
 2218 011e FFF7FEFF 		bl	lr1_stack_mac_rx_radio_start
 2219 0122 3800     		movs	r0, r7
 2220 0124 7EE7     		b	.L234
 2221              	.L242:
 2222 0126 C046     		.align	2
 2223              	.L241:
 2224 0128 00000000 		.word	.LANCHOR9
 2225 012c 00000000 		.word	.LC55
 2226 0130 6E030000 		.word	878
 2227 0134 13000000 		.word	.LC58
 2228 0138 39030000 		.word	825
 2230              		.section	.text.lr1_stack_mac_update_tx_done,"ax",%progbits
 2231              		.align	1
 2232              		.global	lr1_stack_mac_update_tx_done
 2233              		.syntax unified
 2234              		.code	16
 2235              		.thumb_func
 2236              		.fpu softvfp
 2238              	lr1_stack_mac_update_tx_done:
 2239              		@ args = 0, pretend = 0, frame = 0
 2240              		@ frame_needed = 0, uses_anonymous_args = 0
 2241 0000 10B5     		push	{r4, lr}
 2242 0002 164A     		ldr	r2, .L252
 2243 0004 1649     		ldr	r1, .L252+4
 2244 0006 835A     		ldrh	r3, [r0, r2]
 2245 0008 8B42     		cmp	r3, r1
 2246 000a 05D0     		beq	.L244
 2247 000c 154C     		ldr	r4, .L252+8
 2248 000e 045D     		ldrb	r4, [r0, r4]
 2249 0010 002C     		cmp	r4, #0
 2250 0012 01D0     		beq	.L244
 2251 0014 0133     		adds	r3, r3, #1
 2252 0016 8352     		strh	r3, [r0, r2]
 2253              	.L244:
 2254 0018 D522     		movs	r2, #213
 2255 001a 9200     		lsls	r2, r2, #2
 2256 001c 835A     		ldrh	r3, [r0, r2]
ARM GAS  /tmp/ccAFBIk9.s 			page 43


 2257 001e 8B42     		cmp	r3, r1
 2258 0020 01D0     		beq	.L245
 2259 0022 0133     		adds	r3, r3, #1
 2260 0024 8352     		strh	r3, [r0, r2]
 2261              	.L245:
 2262 0026 F723     		movs	r3, #247
 2263 0028 9B00     		lsls	r3, r3, #2
 2264 002a C25C     		ldrb	r2, [r0, r3]
 2265 002c 012A     		cmp	r2, #1
 2266 002e 01D1     		bne	.L246
 2267 0030 0132     		adds	r2, r2, #1
 2268 0032 C254     		strb	r2, [r0, r3]
 2269              	.L246:
 2270 0034 0C4B     		ldr	r3, .L252+12
 2271 0036 C25C     		ldrb	r2, [r0, r3]
 2272 0038 012A     		cmp	r2, #1
 2273 003a 05D1     		bne	.L247
 2274 003c 0132     		adds	r2, r2, #1
 2275 003e C254     		strb	r2, [r0, r3]
 2276 0040 593B     		subs	r3, r3, #89
 2277 0042 C258     		ldr	r2, [r0, r3]
 2278 0044 4C33     		adds	r3, r3, #76
 2279 0046 C250     		str	r2, [r0, r3]
 2280              	.L247:
 2281 0048 084B     		ldr	r3, .L252+16
 2282 004a C25C     		ldrb	r2, [r0, r3]
 2283 004c 012A     		cmp	r2, #1
 2284 004e 01D1     		bne	.L248
 2285 0050 0132     		adds	r2, r2, #1
 2286 0052 C254     		strb	r2, [r0, r3]
 2287              	.L248:
 2288 0054 0068     		ldr	r0, [r0]
 2289 0056 FFF7FEFF 		bl	smtc_real_mask_channel_used_for_tx
 2290              		@ sp needed
 2291 005a 10BD     		pop	{r4, pc}
 2292              	.L253:
 2293              		.align	2
 2294              	.L252:
 2295 005c 56030000 		.word	854
 2296 0060 FFFF0000 		.word	65535
 2297 0064 4A030000 		.word	842
 2298 0068 DD030000 		.word	989
 2299 006c DE030000 		.word	990
 2301              		.section	.text.lr1_stack_mac_cmd_parse,"ax",%progbits
 2302              		.align	1
 2303              		.global	lr1_stack_mac_cmd_parse
 2304              		.syntax unified
 2305              		.code	16
 2306              		.thumb_func
 2307              		.fpu softvfp
 2309              	lr1_stack_mac_cmd_parse:
 2310              		@ args = 0, pretend = 0, frame = 24
 2311              		@ frame_needed = 0, uses_anonymous_args = 0
 2312 0000 0023     		movs	r3, #0
 2313 0002 F0B5     		push	{r4, r5, r6, r7, lr}
 2314 0004 A34A     		ldr	r2, .L386
 2315 0006 A44F     		ldr	r7, .L386+4
ARM GAS  /tmp/ccAFBIk9.s 			page 44


 2316 0008 0400     		movs	r4, r0
 2317 000a C355     		strb	r3, [r0, r7]
 2318 000c 8354     		strb	r3, [r0, r2]
 2319 000e 9A22     		movs	r2, #154
 2320 0010 5200     		lsls	r2, r2, #1
 2321 0012 8354     		strb	r3, [r0, r2]
 2322 0014 9622     		movs	r2, #150
 2323 0016 87B0     		sub	sp, sp, #28
 2324 0018 FF32     		adds	r2, r2, #255
 2325              	.L377:
 2326 001a A354     		strb	r3, [r4, r2]
 2327 001c 57E0     		b	.L255
 2328              	.L337:
 2329 001e 9A22     		movs	r2, #154
 2330 0020 5200     		lsls	r2, r2, #1
 2331 0022 A55C     		ldrb	r5, [r4, r2]
 2332 0024 602D     		cmp	r5, #96
 2333 0026 01D9     		bls	.LCB2419
 2334 0028 00F008FC 		bl	.L338	@far jump
 2335              	.LCB2419:
 2336 002c 6218     		adds	r2, r4, r1
 2337 002e 1000     		movs	r0, r2
 2338 0030 ED30     		adds	r0, r0, #237
 2339 0032 FF30     		adds	r0, r0, #255
 2340 0034 0078     		ldrb	r0, [r0]
 2341 0036 0238     		subs	r0, r0, #2
 2342 0038 1128     		cmp	r0, #17
 2343 003a 00D9     		bls	.LCB2427
 2344 003c 09E1     		b	.L257	@long jump
 2345              	.LCB2427:
 2346 003e FFF7FEFF 		bl	__gnu_thumb1_case_uhi
 2347              	.L259:
 2348 0042 1200     		.2byte	(.L271-.L259)/2
 2349 0044 4E00     		.2byte	(.L339-.L259)/2
 2350 0046 0201     		.2byte	(.L269-.L259)/2
 2351 0048 2301     		.2byte	(.L268-.L259)/2
 2352 004a 9201     		.2byte	(.L267-.L259)/2
 2353 004c C301     		.2byte	(.L266-.L259)/2
 2354 004e 4D02     		.2byte	(.L265-.L259)/2
 2355 0050 7D02     		.2byte	(.L264-.L259)/2
 2356 0052 CA02     		.2byte	(.L263-.L259)/2
 2357 0054 0801     		.2byte	(.L257-.L259)/2
 2358 0056 0801     		.2byte	(.L257-.L259)/2
 2359 0058 2903     		.2byte	(.L262-.L259)/2
 2360 005a 0801     		.2byte	(.L257-.L259)/2
 2361 005c 0801     		.2byte	(.L257-.L259)/2
 2362 005e 6303     		.2byte	(.L261-.L259)/2
 2363 0060 7603     		.2byte	(.L260-.L259)/2
 2364 0062 0801     		.2byte	(.L257-.L259)/2
 2365 0064 CA03     		.2byte	(.L258-.L259)/2
 2366              		.p2align 1
 2367              	.L271:
 2368 0066 881C     		adds	r0, r1, #2
 2369 0068 9842     		cmp	r0, r3
 2370 006a 05DB     		blt	.L272
 2371 006c 0023     		movs	r3, #0
 2372 006e 8B4A     		ldr	r2, .L386+8
ARM GAS  /tmp/ccAFBIk9.s 			page 45


 2373 0070 A354     		strb	r3, [r4, r2]
 2374              	.L273:
 2375 0072 0331     		adds	r1, r1, #3
 2376              	.L325:
 2377 0074 E155     		strb	r1, [r4, r7]
 2378 0076 2AE0     		b	.L255
 2379              	.L272:
 2380 0078 F723     		movs	r3, #247
 2381 007a 9B00     		lsls	r3, r3, #2
 2382 007c E55C     		ldrb	r5, [r4, r3]
 2383 007e 022D     		cmp	r5, #2
 2384 0080 F7D1     		bne	.L273
 2385 0082 0135     		adds	r5, r5, #1
 2386 0084 EE32     		adds	r2, r2, #238
 2387 0086 E554     		strb	r5, [r4, r3]
 2388 0088 FF32     		adds	r2, r2, #255
 2389 008a 1278     		ldrb	r2, [r2]
 2390 008c 2018     		adds	r0, r4, r0
 2391 008e 1C3B     		subs	r3, r3, #28
 2392 0090 ED30     		adds	r0, r0, #237
 2393 0092 E254     		strb	r2, [r4, r3]
 2394 0094 FF30     		adds	r0, r0, #255
 2395 0096 0278     		ldrb	r2, [r0]
 2396 0098 814B     		ldr	r3, .L386+12
 2397 009a E254     		strb	r2, [r4, r3]
 2398 009c E9E7     		b	.L273
 2399              	.L276:
 2400 009e 0298     		ldr	r0, [sp, #8]
 2401 00a0 0130     		adds	r0, r0, #1
 2402 00a2 C0B2     		uxtb	r0, r0
 2403 00a4 0290     		str	r0, [sp, #8]
 2404              	.L270:
 2405 00a6 0298     		ldr	r0, [sp, #8]
 2406 00a8 7043     		muls	r0, r6
 2407 00aa 1518     		adds	r5, r2, r0
 2408 00ac ED35     		adds	r5, r5, #237
 2409 00ae FF35     		adds	r5, r5, #255
 2410 00b0 2D78     		ldrb	r5, [r5]
 2411 00b2 032D     		cmp	r5, #3
 2412 00b4 03D1     		bne	.L275
 2413 00b6 0530     		adds	r0, r0, #5
 2414 00b8 4018     		adds	r0, r0, r1
 2415 00ba 9842     		cmp	r0, r3
 2416 00bc EFDD     		ble	.L276
 2417              	.L275:
 2418 00be 029B     		ldr	r3, [sp, #8]
 2419 00c0 002B     		cmp	r3, #0
 2420 00c2 10D1     		bne	.L340
 2421 00c4 0531     		adds	r1, r1, #5
 2422 00c6 754B     		ldr	r3, .L386+8
 2423 00c8 029A     		ldr	r2, [sp, #8]
 2424 00ca E155     		strb	r1, [r4, r7]
 2425              	.L378:
 2426 00cc E254     		strb	r2, [r4, r3]
 2427              	.L255:
 2428 00ce 734B     		ldr	r3, .L386+8
 2429 00d0 E15D     		ldrb	r1, [r4, r7]
ARM GAS  /tmp/ccAFBIk9.s 			page 46


 2430 00d2 E35C     		ldrb	r3, [r4, r3]
 2431 00d4 8B42     		cmp	r3, r1
 2432 00d6 A2D8     		bhi	.L337
 2433 00d8 0020     		movs	r0, #0
 2434              	.L256:
 2435 00da 07B0     		add	sp, sp, #28
 2436              		@ sp needed
 2437 00dc F0BD     		pop	{r4, r5, r6, r7, pc}
 2438              	.L339:
 2439 00de 0020     		movs	r0, #0
 2440 00e0 0526     		movs	r6, #5
 2441 00e2 0290     		str	r0, [sp, #8]
 2442 00e4 DFE7     		b	.L270
 2443              	.L340:
 2444 00e6 0723     		movs	r3, #7
 2445 00e8 0025     		movs	r5, #0
 2446 00ea 1E00     		movs	r6, r3
 2447 00ec 0193     		str	r3, [sp, #4]
 2448              	.L277:
 2449 00ee 0522     		movs	r2, #5
 2450 00f0 6A43     		muls	r2, r5
 2451 00f2 E35D     		ldrb	r3, [r4, r7]
 2452 00f4 2068     		ldr	r0, [r4]
 2453 00f6 9B18     		adds	r3, r3, r2
 2454 00f8 E318     		adds	r3, r4, r3
 2455 00fa 1A00     		movs	r2, r3
 2456 00fc F032     		adds	r2, r2, #240
 2457 00fe FF32     		adds	r2, r2, #255
 2458 0100 1178     		ldrb	r1, [r2]
 2459 0102 013A     		subs	r2, r2, #1
 2460 0104 1278     		ldrb	r2, [r2]
 2461 0106 F133     		adds	r3, r3, #241
 2462 0108 0902     		lsls	r1, r1, #8
 2463 010a FF33     		adds	r3, r3, #255
 2464 010c 5218     		adds	r2, r2, r1
 2465 010e 1978     		ldrb	r1, [r3]
 2466 0110 92B2     		uxth	r2, r2
 2467 0112 0911     		asrs	r1, r1, #4
 2468 0114 3140     		ands	r1, r6
 2469 0116 FFF7FEFF 		bl	smtc_real_build_channel_mask
 2470 011a 831C     		adds	r3, r0, #2
 2471 011c 01D1     		bne	.L278
 2472 011e 0623     		movs	r3, #6
 2473 0120 0193     		str	r3, [sp, #4]
 2474              	.L278:
 2475 0122 0135     		adds	r5, r5, #1
 2476 0124 029A     		ldr	r2, [sp, #8]
 2477 0126 EBB2     		uxtb	r3, r5
 2478 0128 9A42     		cmp	r2, r3
 2479 012a E0D8     		bhi	.L277
 2480 012c 431C     		adds	r3, r0, #1
 2481 012e 01D1     		bne	.L279
 2482 0130 0623     		movs	r3, #6
 2483 0132 0193     		str	r3, [sp, #4]
 2484              	.L279:
 2485 0134 5B4B     		ldr	r3, .L386+16
 2486 0136 E35C     		ldrb	r3, [r4, r3]
ARM GAS  /tmp/ccAFBIk9.s 			page 47


 2487 0138 002B     		cmp	r3, #0
 2488 013a 37D0     		beq	.L280
 2489 013c 019B     		ldr	r3, [sp, #4]
 2490 013e 072B     		cmp	r3, #7
 2491 0140 27D0     		beq	.L281
 2492              	.L283:
 2493 0142 0023     		movs	r3, #0
 2494 0144 0193     		str	r3, [sp, #4]
 2495              	.L282:
 2496 0146 0522     		movs	r2, #5
 2497 0148 029B     		ldr	r3, [sp, #8]
 2498 014a 5A43     		muls	r2, r3
 2499 014c E35D     		ldrb	r3, [r4, r7]
 2500 014e 9B18     		adds	r3, r3, r2
 2501 0150 DBB2     		uxtb	r3, r3
 2502 0152 524A     		ldr	r2, .L386+8
 2503 0154 E355     		strb	r3, [r4, r7]
 2504 0156 A25C     		ldrb	r2, [r4, r2]
 2505 0158 9A42     		cmp	r2, r3
 2506 015a B8D3     		bcc	.L255
 2507 015c 9A23     		movs	r3, #154
 2508 015e 5B00     		lsls	r3, r3, #1
 2509 0160 E25C     		ldrb	r2, [r4, r3]
 2510 0162 029B     		ldr	r3, [sp, #8]
 2511 0164 5800     		lsls	r0, r3, #1
 2512 0166 8318     		adds	r3, r0, r2
 2513 0168 602B     		cmp	r3, #96
 2514 016a B0DC     		bgt	.L255
 2515 016c 1300     		movs	r3, r2
 2516 016e 0021     		movs	r1, #0
 2517 0170 0325     		movs	r5, #3
 2518 0172 3633     		adds	r3, r3, #54
 2519 0174 FF33     		adds	r3, r3, #255
 2520 0176 E318     		adds	r3, r4, r3
 2521              	.L291:
 2522 0178 019E     		ldr	r6, [sp, #4]
 2523 017a 0131     		adds	r1, r1, #1
 2524 017c 5E70     		strb	r6, [r3, #1]
 2525 017e 029E     		ldr	r6, [sp, #8]
 2526 0180 C9B2     		uxtb	r1, r1
 2527 0182 1D70     		strb	r5, [r3]
 2528 0184 0233     		adds	r3, r3, #2
 2529 0186 8E42     		cmp	r6, r1
 2530 0188 F6D1     		bne	.L291
 2531 018a 9A23     		movs	r3, #154
 2532 018c 1218     		adds	r2, r2, r0
 2533 018e 5B00     		lsls	r3, r3, #1
 2534 0190 9CE7     		b	.L378
 2535              	.L281:
 2536 0192 2068     		ldr	r0, [r4]
 2537 0194 FFF7FEFF 		bl	smtc_real_is_channel_mask_for_mobile_mode
 2538 0198 431C     		adds	r3, r0, #1
 2539 019a D2D0     		beq	.L283
 2540 019c 2068     		ldr	r0, [r4]
 2541 019e FFF7FEFF 		bl	smtc_real_set_channel_mask
 2542 01a2 0122     		movs	r2, #1
 2543 01a4 404B     		ldr	r3, .L386+20
ARM GAS  /tmp/ccAFBIk9.s 			page 48


 2544 01a6 E254     		strb	r2, [r4, r3]
 2545              	.L375:
 2546 01a8 0192     		str	r2, [sp, #4]
 2547 01aa CCE7     		b	.L282
 2548              	.L280:
 2549 01ac 0525     		movs	r5, #5
 2550 01ae 029B     		ldr	r3, [sp, #8]
 2551 01b0 5E1E     		subs	r6, r3, #1
 2552 01b2 6E43     		muls	r6, r5
 2553 01b4 E35D     		ldrb	r3, [r4, r7]
 2554 01b6 A619     		adds	r6, r4, r6
 2555 01b8 F318     		adds	r3, r6, r3
 2556 01ba EE33     		adds	r3, r3, #238
 2557 01bc FF33     		adds	r3, r3, #255
 2558 01be 1B78     		ldrb	r3, [r3]
 2559 01c0 1B09     		lsrs	r3, r3, #4
 2560 01c2 0393     		str	r3, [sp, #12]
 2561 01c4 0F2B     		cmp	r3, #15
 2562 01c6 09D0     		beq	.L284
 2563 01c8 1900     		movs	r1, r3
 2564 01ca 0122     		movs	r2, #1
 2565 01cc 2068     		ldr	r0, [r4]
 2566 01ce FFF7FEFF 		bl	smtc_real_is_tx_dr_acceptable
 2567 01d2 431C     		adds	r3, r0, #1
 2568 01d4 02D1     		bne	.L284
 2569 01d6 019B     		ldr	r3, [sp, #4]
 2570 01d8 2B40     		ands	r3, r5
 2571 01da 0193     		str	r3, [sp, #4]
 2572              	.L284:
 2573 01dc E35D     		ldrb	r3, [r4, r7]
 2574 01de F318     		adds	r3, r6, r3
 2575 01e0 EE33     		adds	r3, r3, #238
 2576 01e2 FF33     		adds	r3, r3, #255
 2577 01e4 1D78     		ldrb	r5, [r3]
 2578 01e6 0F23     		movs	r3, #15
 2579 01e8 1D40     		ands	r5, r3
 2580 01ea 9D42     		cmp	r5, r3
 2581 01ec 09D0     		beq	.L285
 2582 01ee 2900     		movs	r1, r5
 2583 01f0 2068     		ldr	r0, [r4]
 2584 01f2 FFF7FEFF 		bl	smtc_real_is_tx_power_valid
 2585 01f6 431C     		adds	r3, r0, #1
 2586 01f8 03D1     		bne	.L285
 2587 01fa 0323     		movs	r3, #3
 2588 01fc 019A     		ldr	r2, [sp, #4]
 2589 01fe 1A40     		ands	r2, r3
 2590 0200 D2E7     		b	.L375
 2591              	.L285:
 2592 0202 019B     		ldr	r3, [sp, #4]
 2593 0204 072B     		cmp	r3, #7
 2594 0206 9ED1     		bne	.L282
 2595 0208 E35D     		ldrb	r3, [r4, r7]
 2596 020a 2068     		ldr	r0, [r4]
 2597 020c F618     		adds	r6, r6, r3
 2598 020e F136     		adds	r6, r6, #241
 2599 0210 FF36     		adds	r6, r6, #255
 2600 0212 3678     		ldrb	r6, [r6]
ARM GAS  /tmp/ccAFBIk9.s 			page 49


 2601 0214 FFF7FEFF 		bl	smtc_real_set_channel_mask
 2602 0218 0F2D     		cmp	r5, #15
 2603 021a 05D0     		beq	.L286
 2604 021c 2900     		movs	r1, r5
 2605 021e A27E     		ldrb	r2, [r4, #26]
 2606 0220 2068     		ldr	r0, [r4]
 2607 0222 FFF7FEFF 		bl	smtc_real_convert_power_cmd
 2608 0226 A073     		strb	r0, [r4, #14]
 2609              	.L286:
 2610 0228 0F23     		movs	r3, #15
 2611 022a 1E40     		ands	r6, r3
 2612 022c 331C     		adds	r3, r6, #0
 2613 022e 002E     		cmp	r6, #0
 2614 0230 00D1     		bne	.L287
 2615 0232 0123     		movs	r3, #1
 2616              	.L287:
 2617 0234 E373     		strb	r3, [r4, #15]
 2618 0236 039B     		ldr	r3, [sp, #12]
 2619 0238 0F2B     		cmp	r3, #15
 2620 023a 00D0     		beq	.L288
 2621 023c 6373     		strb	r3, [r4, #13]
 2622              	.L288:
 2623 023e 0122     		movs	r2, #1
 2624 0240 194B     		ldr	r3, .L386+20
 2625 0242 E254     		strb	r2, [r4, r3]
 2626 0244 7FE7     		b	.L282
 2627              	.L269:
 2628 0246 4A1C     		adds	r2, r1, #1
 2629 0248 0231     		adds	r1, r1, #2
 2630 024a C9B2     		uxtb	r1, r1
 2631 024c 9A42     		cmp	r2, r3
 2632 024e 03DB     		blt	.L292
 2633              	.L384:
 2634 0250 E155     		strb	r1, [r4, r7]
 2635              	.L257:
 2636 0252 0023     		movs	r3, #0
 2637 0254 114A     		ldr	r2, .L386+8
 2638 0256 E0E6     		b	.L377
 2639              	.L292:
 2640 0258 0F20     		movs	r0, #15
 2641 025a A218     		adds	r2, r4, r2
 2642 025c ED32     		adds	r2, r2, #237
 2643 025e FF32     		adds	r2, r2, #255
 2644 0260 1278     		ldrb	r2, [r2]
 2645 0262 0240     		ands	r2, r0
 2646 0264 E261     		str	r2, [r4, #28]
 2647 0266 E155     		strb	r1, [r4, r7]
 2648 0268 8B42     		cmp	r3, r1
 2649 026a 00D2     		bcs	.LCB2771
 2650 026c 2FE7     		b	.L255	@long jump
 2651              	.LCB2771:
 2652 026e 602D     		cmp	r5, #96
 2653 0270 00D1     		bne	.LCB2773
 2654 0272 2CE7     		b	.L255	@long jump
 2655              	.LCB2773:
 2656 0274 0422     		movs	r2, #4
 2657 0276 6319     		adds	r3, r4, r5
ARM GAS  /tmp/ccAFBIk9.s 			page 50


 2658 0278 3633     		adds	r3, r3, #54
 2659 027a FF33     		adds	r3, r3, #255
 2660 027c 1A70     		strb	r2, [r3]
 2661 027e 9A23     		movs	r3, #154
 2662 0280 0135     		adds	r5, r5, #1
 2663 0282 5B00     		lsls	r3, r3, #1
 2664 0284 E554     		strb	r5, [r4, r3]
 2665 0286 22E7     		b	.L255
 2666              	.L268:
 2667 0288 081D     		adds	r0, r1, #4
 2668 028a 9842     		cmp	r0, r3
 2669 028c 0EDB     		blt	.L293
 2670              	.L385:
 2671 028e 0531     		adds	r1, r1, #5
 2672 0290 DEE7     		b	.L384
 2673              	.L387:
 2674 0292 C046     		.align	2
 2675              	.L386:
 2676 0294 3F030000 		.word	831
 2677 0298 B1030000 		.word	945
 2678 029c DE020000 		.word	734
 2679 02a0 C1030000 		.word	961
 2680 02a4 4A030000 		.word	842
 2681 02a8 B9030000 		.word	953
 2682              	.L293:
 2683 02ac EE32     		adds	r2, r2, #238
 2684 02ae FF32     		adds	r2, r2, #255
 2685 02b0 1378     		ldrb	r3, [r2]
 2686 02b2 2068     		ldr	r0, [r4]
 2687 02b4 5B06     		lsls	r3, r3, #25
 2688 02b6 5B0F     		lsrs	r3, r3, #29
 2689 02b8 1900     		movs	r1, r3
 2690 02ba 0193     		str	r3, [sp, #4]
 2691 02bc FFF7FEFF 		bl	smtc_real_is_rx1_dr_offset_valid
 2692 02c0 0F22     		movs	r2, #15
 2693 02c2 451C     		adds	r5, r0, #1
 2694 02c4 6B1E     		subs	r3, r5, #1
 2695 02c6 9D41     		sbcs	r5, r5, r3
 2696 02c8 E35D     		ldrb	r3, [r4, r7]
 2697 02ca 2068     		ldr	r0, [r4]
 2698 02cc E318     		adds	r3, r4, r3
 2699 02ce EE33     		adds	r3, r3, #238
 2700 02d0 FF33     		adds	r3, r3, #255
 2701 02d2 1B78     		ldrb	r3, [r3]
 2702 02d4 0635     		adds	r5, r5, #6
 2703 02d6 1340     		ands	r3, r2
 2704 02d8 1900     		movs	r1, r3
 2705 02da 0293     		str	r3, [sp, #8]
 2706 02dc FFF7FEFF 		bl	smtc_real_is_rx_dr_valid
 2707 02e0 431C     		adds	r3, r0, #1
 2708 02e2 01D1     		bne	.L295
 2709 02e4 0523     		movs	r3, #5
 2710 02e6 1D40     		ands	r5, r3
 2711              	.L295:
 2712 02e8 E15D     		ldrb	r1, [r4, r7]
 2713 02ea 2068     		ldr	r0, [r4]
 2714 02ec EF31     		adds	r1, r1, #239
ARM GAS  /tmp/ccAFBIk9.s 			page 51


 2715 02ee FF31     		adds	r1, r1, #255
 2716 02f0 6118     		adds	r1, r4, r1
 2717 02f2 FFF7FEFF 		bl	smtc_real_decode_freq_from_buf
 2718 02f6 0600     		movs	r6, r0
 2719 02f8 0100     		movs	r1, r0
 2720 02fa 2068     		ldr	r0, [r4]
 2721 02fc FFF7FEFF 		bl	smtc_real_is_frequency_valid
 2722 0300 431C     		adds	r3, r0, #1
 2723 0302 28D1     		bne	.L296
 2724 0304 0323     		movs	r3, #3
 2725 0306 1D40     		ands	r5, r3
 2726              	.L297:
 2727 0308 E35D     		ldrb	r3, [r4, r7]
 2728 030a B94A     		ldr	r2, .L388
 2729 030c 0533     		adds	r3, r3, #5
 2730 030e DBB2     		uxtb	r3, r3
 2731 0310 E355     		strb	r3, [r4, r7]
 2732 0312 A25C     		ldrb	r2, [r4, r2]
 2733 0314 9A42     		cmp	r2, r3
 2734 0316 00D2     		bcs	.LCB2867
 2735 0318 D9E6     		b	.L255	@long jump
 2736              	.LCB2867:
 2737 031a 9A26     		movs	r6, #154
 2738 031c 7600     		lsls	r6, r6, #1
 2739 031e A35D     		ldrb	r3, [r4, r6]
 2740 0320 5E2B     		cmp	r3, #94
 2741 0322 0AD8     		bhi	.L298
 2742 0324 E218     		adds	r2, r4, r3
 2743 0326 1100     		movs	r1, r2
 2744 0328 0520     		movs	r0, #5
 2745 032a 3631     		adds	r1, r1, #54
 2746 032c 3732     		adds	r2, r2, #55
 2747 032e FF31     		adds	r1, r1, #255
 2748 0330 FF32     		adds	r2, r2, #255
 2749 0332 0233     		adds	r3, r3, #2
 2750 0334 0870     		strb	r0, [r1]
 2751 0336 1570     		strb	r5, [r2]
 2752 0338 A355     		strb	r3, [r4, r6]
 2753              	.L298:
 2754 033a 9626     		movs	r6, #150
 2755 033c FF36     		adds	r6, r6, #255
 2756 033e A35D     		ldrb	r3, [r4, r6]
 2757 0340 0D2B     		cmp	r3, #13
 2758 0342 00D9     		bls	.LCB2891
 2759 0344 C3E6     		b	.L255	@long jump
 2760              	.LCB2891:
 2761 0346 E218     		adds	r2, r4, r3
 2762 0348 1100     		movs	r1, r2
 2763 034a 0520     		movs	r0, #5
 2764 034c 9731     		adds	r1, r1, #151
 2765 034e FF31     		adds	r1, r1, #255
 2766              	.L379:
 2767 0350 0870     		strb	r0, [r1]
 2768 0352 9832     		adds	r2, r2, #152
 2769 0354 9BE0     		b	.L382
 2770              	.L296:
 2771 0356 072D     		cmp	r5, #7
ARM GAS  /tmp/ccAFBIk9.s 			page 52


 2772 0358 D6D1     		bne	.L297
 2773 035a 019B     		ldr	r3, [sp, #4]
 2774 035c 6661     		str	r6, [r4, #20]
 2775 035e 2376     		strb	r3, [r4, #24]
 2776 0360 029B     		ldr	r3, [sp, #8]
 2777 0362 A374     		strb	r3, [r4, #18]
 2778 0364 D0E7     		b	.L297
 2779              	.L267:
 2780 0366 04AB     		add	r3, sp, #16
 2781 0368 DA1D     		adds	r2, r3, #7
 2782 036a DC23     		movs	r3, #220
 2783 036c 9B00     		lsls	r3, r3, #2
 2784 036e E058     		ldr	r0, [r4, r3]
 2785 0370 2100     		movs	r1, r4
 2786 0372 FFF7FEFF 		bl	rp_hook_get_id
 2787 0376 E35D     		ldrb	r3, [r4, r7]
 2788 0378 9D4A     		ldr	r2, .L388
 2789 037a 0133     		adds	r3, r3, #1
 2790 037c DBB2     		uxtb	r3, r3
 2791 037e E355     		strb	r3, [r4, r7]
 2792 0380 A25C     		ldrb	r2, [r4, r2]
 2793 0382 9A42     		cmp	r2, r3
 2794 0384 00D2     		bcs	.LCB2930
 2795 0386 A2E6     		b	.L255	@long jump
 2796              	.LCB2930:
 2797 0388 9A23     		movs	r3, #154
 2798 038a 5B00     		lsls	r3, r3, #1
 2799 038c E55C     		ldrb	r5, [r4, r3]
 2800 038e 5D2D     		cmp	r5, #93
 2801 0390 00D9     		bls	.LCB2935
 2802 0392 9CE6     		b	.L255	@long jump
 2803              	.LCB2935:
 2804 0394 6519     		adds	r5, r4, r5
 2805 0396 2B00     		movs	r3, r5
 2806 0398 0622     		movs	r2, #6
 2807 039a 3633     		adds	r3, r3, #54
 2808 039c FF33     		adds	r3, r3, #255
 2809 039e 1A70     		strb	r2, [r3]
 2810 03a0 FFF7FEFF 		bl	smtc_modem_hal_get_battery_level
 2811 03a4 3735     		adds	r5, r5, #55
 2812 03a6 FF35     		adds	r5, r5, #255
 2813 03a8 2870     		strb	r0, [r5]
 2814 03aa 9A25     		movs	r5, #154
 2815 03ac 9E21     		movs	r1, #158
 2816 03ae 3F20     		movs	r0, #63
 2817 03b0 6D00     		lsls	r5, r5, #1
 2818 03b2 635D     		ldrb	r3, [r4, r5]
 2819 03b4 C900     		lsls	r1, r1, #3
 2820 03b6 615A     		ldrh	r1, [r4, r1]
 2821 03b8 E218     		adds	r2, r4, r3
 2822 03ba 3832     		adds	r2, r2, #56
 2823 03bc FF32     		adds	r2, r2, #255
 2824 03be 0140     		ands	r1, r0
 2825 03c0 1170     		strb	r1, [r2]
 2826 03c2 0333     		adds	r3, r3, #3
 2827              	.L380:
 2828 03c4 6355     		strb	r3, [r4, r5]
ARM GAS  /tmp/ccAFBIk9.s 			page 53


 2829 03c6 82E6     		b	.L255
 2830              	.L266:
 2831 03c8 4A1D     		adds	r2, r1, #5
 2832 03ca 9A42     		cmp	r2, r3
 2833 03cc 01DB     		blt	.L300
 2834 03ce 0631     		adds	r1, r1, #6
 2835 03d0 3EE7     		b	.L384
 2836              	.L300:
 2837 03d2 2068     		ldr	r0, [r4]
 2838 03d4 FFF7FEFF 		bl	smtc_real_is_new_channel_req_supported
 2839 03d8 E35D     		ldrb	r3, [r4, r7]
 2840 03da 0028     		cmp	r0, #0
 2841 03dc 02D1     		bne	.L301
 2842 03de 0633     		adds	r3, r3, #6
 2843              	.L381:
 2844 03e0 E355     		strb	r3, [r4, r7]
 2845 03e2 74E6     		b	.L255
 2846              	.L301:
 2847 03e4 E318     		adds	r3, r4, r3
 2848 03e6 EE33     		adds	r3, r3, #238
 2849 03e8 FF33     		adds	r3, r3, #255
 2850 03ea 1E78     		ldrb	r6, [r3]
 2851 03ec 2068     		ldr	r0, [r4]
 2852 03ee 3100     		movs	r1, r6
 2853 03f0 FFF7FEFF 		bl	smtc_real_is_channel_index_valid
 2854 03f4 0325     		movs	r5, #3
 2855 03f6 431C     		adds	r3, r0, #1
 2856 03f8 00D1     		bne	.L302
 2857 03fa 0025     		movs	r5, #0
 2858              	.L302:
 2859 03fc E15D     		ldrb	r1, [r4, r7]
 2860 03fe 2068     		ldr	r0, [r4]
 2861 0400 EF31     		adds	r1, r1, #239
 2862 0402 FF31     		adds	r1, r1, #255
 2863 0404 6118     		adds	r1, r4, r1
 2864 0406 FFF7FEFF 		bl	smtc_real_decode_freq_from_buf
 2865 040a 0100     		movs	r1, r0
 2866 040c 0190     		str	r0, [sp, #4]
 2867 040e 2068     		ldr	r0, [r4]
 2868 0410 FFF7FEFF 		bl	smtc_real_is_nwk_received_tx_frequency_valid
 2869 0414 431C     		adds	r3, r0, #1
 2870 0416 01D1     		bne	.L303
 2871 0418 0223     		movs	r3, #2
 2872 041a 1D40     		ands	r5, r3
 2873              	.L303:
 2874 041c E35D     		ldrb	r3, [r4, r7]
 2875 041e 2068     		ldr	r0, [r4]
 2876 0420 E318     		adds	r3, r4, r3
 2877 0422 F233     		adds	r3, r3, #242
 2878 0424 FF33     		adds	r3, r3, #255
 2879 0426 1A78     		ldrb	r2, [r3]
 2880 0428 0F23     		movs	r3, #15
 2881 042a 1A40     		ands	r2, r3
 2882 042c 1100     		movs	r1, r2
 2883 042e 0292     		str	r2, [sp, #8]
 2884 0430 FFF7FEFF 		bl	smtc_real_is_tx_dr_valid
 2885 0434 431C     		adds	r3, r0, #1
ARM GAS  /tmp/ccAFBIk9.s 			page 54


 2886 0436 01D1     		bne	.L304
 2887 0438 0123     		movs	r3, #1
 2888 043a 1D40     		ands	r5, r3
 2889              	.L304:
 2890 043c E35D     		ldrb	r3, [r4, r7]
 2891 043e 2068     		ldr	r0, [r4]
 2892 0440 E318     		adds	r3, r4, r3
 2893 0442 F233     		adds	r3, r3, #242
 2894 0444 FF33     		adds	r3, r3, #255
 2895 0446 1B78     		ldrb	r3, [r3]
 2896 0448 1B09     		lsrs	r3, r3, #4
 2897 044a 1900     		movs	r1, r3
 2898 044c 0393     		str	r3, [sp, #12]
 2899 044e FFF7FEFF 		bl	smtc_real_is_tx_dr_valid
 2900 0452 431C     		adds	r3, r0, #1
 2901 0454 20D1     		bne	.L305
 2902 0456 0123     		movs	r3, #1
 2903 0458 039A     		ldr	r2, [sp, #12]
 2904 045a 1D40     		ands	r5, r3
 2905 045c 029B     		ldr	r3, [sp, #8]
 2906 045e 9342     		cmp	r3, r2
 2907 0460 1ED8     		bhi	.L306
 2908              	.L307:
 2909 0462 E35D     		ldrb	r3, [r4, r7]
 2910 0464 624A     		ldr	r2, .L388
 2911 0466 0633     		adds	r3, r3, #6
 2912 0468 DBB2     		uxtb	r3, r3
 2913 046a E355     		strb	r3, [r4, r7]
 2914 046c A25C     		ldrb	r2, [r4, r2]
 2915 046e 9A42     		cmp	r2, r3
 2916 0470 00D2     		bcs	.LCB3071
 2917 0472 2CE6     		b	.L255	@long jump
 2918              	.LCB3071:
 2919 0474 9A26     		movs	r6, #154
 2920 0476 7600     		lsls	r6, r6, #1
 2921 0478 A35D     		ldrb	r3, [r4, r6]
 2922 047a 5E2B     		cmp	r3, #94
 2923 047c 00D9     		bls	.LCB3076
 2924 047e 26E6     		b	.L255	@long jump
 2925              	.LCB3076:
 2926 0480 E218     		adds	r2, r4, r3
 2927 0482 1100     		movs	r1, r2
 2928 0484 0720     		movs	r0, #7
 2929 0486 3631     		adds	r1, r1, #54
 2930 0488 FF31     		adds	r1, r1, #255
 2931 048a 0870     		strb	r0, [r1]
 2932 048c 3732     		adds	r2, r2, #55
 2933              	.L382:
 2934 048e FF32     		adds	r2, r2, #255
 2935 0490 0233     		adds	r3, r3, #2
 2936 0492 1570     		strb	r5, [r2]
 2937 0494 A355     		strb	r3, [r4, r6]
 2938 0496 1AE6     		b	.L255
 2939              	.L305:
 2940 0498 029B     		ldr	r3, [sp, #8]
 2941 049a 039A     		ldr	r2, [sp, #12]
 2942 049c 9342     		cmp	r3, r2
ARM GAS  /tmp/ccAFBIk9.s 			page 55


 2943 049e 02D9     		bls	.L308
 2944              	.L306:
 2945 04a0 0123     		movs	r3, #1
 2946 04a2 1D40     		ands	r5, r3
 2947 04a4 DDE7     		b	.L307
 2948              	.L308:
 2949 04a6 032D     		cmp	r5, #3
 2950 04a8 DBD1     		bne	.L307
 2951 04aa 3200     		movs	r2, r6
 2952 04ac 0199     		ldr	r1, [sp, #4]
 2953 04ae 2068     		ldr	r0, [r4]
 2954 04b0 FFF7FEFF 		bl	smtc_real_set_tx_frequency_channel
 2955 04b4 3200     		movs	r2, r6
 2956 04b6 0199     		ldr	r1, [sp, #4]
 2957 04b8 2068     		ldr	r0, [r4]
 2958 04ba FFF7FEFF 		bl	smtc_real_set_rx1_frequency_channel
 2959 04be 3100     		movs	r1, r6
 2960 04c0 039B     		ldr	r3, [sp, #12]
 2961 04c2 029A     		ldr	r2, [sp, #8]
 2962 04c4 2068     		ldr	r0, [r4]
 2963 04c6 FFF7FEFF 		bl	smtc_real_set_channel_dr
 2964 04ca 019B     		ldr	r3, [sp, #4]
 2965 04cc 3200     		movs	r2, r6
 2966 04ce 191E     		subs	r1, r3, #0
 2967 04d0 00D0     		beq	.L376
 2968 04d2 0121     		movs	r1, #1
 2969              	.L376:
 2970 04d4 2068     		ldr	r0, [r4]
 2971 04d6 FFF7FEFF 		bl	smtc_real_set_channel_enabled
 2972 04da C2E7     		b	.L307
 2973              	.L265:
 2974 04dc 4A1C     		adds	r2, r1, #1
 2975 04de 0231     		adds	r1, r1, #2
 2976 04e0 C9B2     		uxtb	r1, r1
 2977 04e2 9A42     		cmp	r2, r3
 2978 04e4 00DB     		blt	.LCB3140
 2979 04e6 B3E6     		b	.L384	@long jump
 2980              	.LCB3140:
 2981 04e8 A218     		adds	r2, r4, r2
 2982 04ea ED32     		adds	r2, r2, #237
 2983 04ec FF32     		adds	r2, r2, #255
 2984 04ee 1078     		ldrb	r0, [r2]
 2985 04f0 0F22     		movs	r2, #15
 2986 04f2 0600     		movs	r6, r0
 2987 04f4 1640     		ands	r6, r2
 2988 04f6 1042     		tst	r0, r2
 2989 04f8 1DD0     		beq	.L311
 2990 04fa 6676     		strb	r6, [r4, #25]
 2991              	.L312:
 2992 04fc E155     		strb	r1, [r4, r7]
 2993 04fe 8B42     		cmp	r3, r1
 2994 0500 00D2     		bcs	.LCB3156
 2995 0502 E4E5     		b	.L255	@long jump
 2996              	.LCB3156:
 2997 0504 602D     		cmp	r5, #96
 2998 0506 08D0     		beq	.L313
 2999 0508 0822     		movs	r2, #8
ARM GAS  /tmp/ccAFBIk9.s 			page 56


 3000 050a 6319     		adds	r3, r4, r5
 3001 050c 3633     		adds	r3, r3, #54
 3002 050e FF33     		adds	r3, r3, #255
 3003 0510 1A70     		strb	r2, [r3]
 3004 0512 9A23     		movs	r3, #154
 3005 0514 0135     		adds	r5, r5, #1
 3006 0516 5B00     		lsls	r3, r3, #1
 3007 0518 E554     		strb	r5, [r4, r3]
 3008              	.L313:
 3009 051a 9620     		movs	r0, #150
 3010 051c FF30     		adds	r0, r0, #255
 3011 051e 235C     		ldrb	r3, [r4, r0]
 3012 0520 0E2B     		cmp	r3, #14
 3013 0522 00D9     		bls	.LCB3174
 3014 0524 D3E5     		b	.L255	@long jump
 3015              	.LCB3174:
 3016 0526 0821     		movs	r1, #8
 3017 0528 E218     		adds	r2, r4, r3
 3018 052a 9732     		adds	r2, r2, #151
 3019 052c FF32     		adds	r2, r2, #255
 3020              	.L383:
 3021 052e 0133     		adds	r3, r3, #1
 3022 0530 1170     		strb	r1, [r2]
 3023 0532 2354     		strb	r3, [r4, r0]
 3024 0534 CBE5     		b	.L255
 3025              	.L311:
 3026 0536 0122     		movs	r2, #1
 3027 0538 6276     		strb	r2, [r4, #25]
 3028 053a DFE7     		b	.L312
 3029              	.L264:
 3030 053c 4A1C     		adds	r2, r1, #1
 3031 053e 9A42     		cmp	r2, r3
 3032 0540 01DB     		blt	.L314
 3033 0542 0231     		adds	r1, r1, #2
 3034 0544 84E6     		b	.L384
 3035              	.L314:
 3036 0546 2068     		ldr	r0, [r4]
 3037 0548 FFF7FEFF 		bl	smtc_real_is_tx_param_setup_req_supported
 3038 054c E35D     		ldrb	r3, [r4, r7]
 3039 054e 0028     		cmp	r0, #0
 3040 0550 01D1     		bne	.L315
 3041 0552 0233     		adds	r3, r3, #2
 3042 0554 44E7     		b	.L381
 3043              	.L315:
 3044 0556 E318     		adds	r3, r4, r3
 3045 0558 EE33     		adds	r3, r3, #238
 3046 055a FF33     		adds	r3, r3, #255
 3047 055c 1978     		ldrb	r1, [r3]
 3048 055e 0F23     		movs	r3, #15
 3049 0560 244A     		ldr	r2, .L388+4
 3050 0562 0B40     		ands	r3, r1
 3051 0564 D35C     		ldrb	r3, [r2, r3]
 3052 0566 2068     		ldr	r0, [r4]
 3053 0568 023B     		subs	r3, r3, #2
 3054 056a 857A     		ldrb	r5, [r0, #10]
 3055 056c 1A1C     		adds	r2, r3, #0
 3056 056e DBB2     		uxtb	r3, r3
ARM GAS  /tmp/ccAFBIk9.s 			page 57


 3057 0570 AB42     		cmp	r3, r5
 3058 0572 00D9     		bls	.L316
 3059 0574 2A1C     		adds	r2, r5, #0
 3060              	.L316:
 3061 0576 0125     		movs	r5, #1
 3062 0578 0911     		asrs	r1, r1, #4
 3063 057a A276     		strb	r2, [r4, #26]
 3064 057c 2940     		ands	r1, r5
 3065 057e FFF7FEFF 		bl	smtc_real_set_uplink_dwell_time
 3066 0582 E35D     		ldrb	r3, [r4, r7]
 3067 0584 2068     		ldr	r0, [r4]
 3068 0586 E318     		adds	r3, r4, r3
 3069 0588 EE33     		adds	r3, r3, #238
 3070 058a FF33     		adds	r3, r3, #255
 3071 058c 1978     		ldrb	r1, [r3]
 3072 058e 4911     		asrs	r1, r1, #5
 3073 0590 2940     		ands	r1, r5
 3074 0592 FFF7FEFF 		bl	smtc_real_set_downlink_dwell_time
 3075 0596 E35D     		ldrb	r3, [r4, r7]
 3076 0598 154A     		ldr	r2, .L388
 3077 059a 0233     		adds	r3, r3, #2
 3078 059c DBB2     		uxtb	r3, r3
 3079 059e E355     		strb	r3, [r4, r7]
 3080 05a0 A25C     		ldrb	r2, [r4, r2]
 3081 05a2 9A42     		cmp	r2, r3
 3082 05a4 00D2     		bcs	.LCB3257
 3083 05a6 92E5     		b	.L255	@long jump
 3084              	.LCB3257:
 3085 05a8 9A20     		movs	r0, #154
 3086 05aa 4000     		lsls	r0, r0, #1
 3087 05ac 235C     		ldrb	r3, [r4, r0]
 3088 05ae 5F2B     		cmp	r3, #95
 3089 05b0 06D8     		bhi	.L317
 3090 05b2 0921     		movs	r1, #9
 3091 05b4 E218     		adds	r2, r4, r3
 3092 05b6 3632     		adds	r2, r2, #54
 3093 05b8 FF32     		adds	r2, r2, #255
 3094 05ba 5B19     		adds	r3, r3, r5
 3095 05bc 1170     		strb	r1, [r2]
 3096 05be 2354     		strb	r3, [r4, r0]
 3097              	.L317:
 3098 05c0 9620     		movs	r0, #150
 3099 05c2 FF30     		adds	r0, r0, #255
 3100 05c4 235C     		ldrb	r3, [r4, r0]
 3101 05c6 0E2B     		cmp	r3, #14
 3102 05c8 00D9     		bls	.LCB3277
 3103 05ca 80E5     		b	.L255	@long jump
 3104              	.LCB3277:
 3105 05cc E218     		adds	r2, r4, r3
 3106 05ce 9732     		adds	r2, r2, #151
 3107 05d0 0921     		movs	r1, #9
 3108 05d2 FF32     		adds	r2, r2, #255
 3109 05d4 ABE7     		b	.L383
 3110              	.L263:
 3111 05d6 0A1D     		adds	r2, r1, #4
 3112 05d8 9A42     		cmp	r2, r3
 3113 05da 00DB     		blt	.LCB3288
ARM GAS  /tmp/ccAFBIk9.s 			page 58


 3114 05dc 57E6     		b	.L385	@long jump
 3115              	.LCB3288:
 3116 05de 2068     		ldr	r0, [r4]
 3117 05e0 FFF7FEFF 		bl	smtc_real_is_new_channel_req_supported
 3118 05e4 E35D     		ldrb	r3, [r4, r7]
 3119 05e6 0028     		cmp	r0, #0
 3120 05e8 06D1     		bne	.L319
 3121 05ea 0533     		adds	r3, r3, #5
 3122 05ec F8E6     		b	.L381
 3123              	.L389:
 3124 05ee C046     		.align	2
 3125              	.L388:
 3126 05f0 DE020000 		.word	734
 3127 05f4 00000000 		.word	.LANCHOR10
 3128              	.L319:
 3129 05f8 E318     		adds	r3, r4, r3
 3130 05fa EE33     		adds	r3, r3, #238
 3131 05fc FF33     		adds	r3, r3, #255
 3132 05fe 1B78     		ldrb	r3, [r3]
 3133 0600 2068     		ldr	r0, [r4]
 3134 0602 1900     		movs	r1, r3
 3135 0604 0193     		str	r3, [sp, #4]
 3136 0606 FFF7FEFF 		bl	smtc_real_get_tx_channel_frequency
 3137 060a 0325     		movs	r5, #3
 3138 060c 0028     		cmp	r0, #0
 3139 060e 00D1     		bne	.L320
 3140 0610 023D     		subs	r5, r5, #2
 3141              	.L320:
 3142 0612 E15D     		ldrb	r1, [r4, r7]
 3143 0614 2068     		ldr	r0, [r4]
 3144 0616 EF31     		adds	r1, r1, #239
 3145 0618 FF31     		adds	r1, r1, #255
 3146 061a 6118     		adds	r1, r4, r1
 3147 061c FFF7FEFF 		bl	smtc_real_decode_freq_from_buf
 3148 0620 0600     		movs	r6, r0
 3149 0622 0100     		movs	r1, r0
 3150 0624 2068     		ldr	r0, [r4]
 3151 0626 FFF7FEFF 		bl	smtc_real_is_frequency_valid
 3152 062a 431C     		adds	r3, r0, #1
 3153 062c 26D1     		bne	.L321
 3154 062e 0223     		movs	r3, #2
 3155 0630 1D40     		ands	r5, r3
 3156              	.L322:
 3157 0632 E35D     		ldrb	r3, [r4, r7]
 3158 0634 834A     		ldr	r2, .L390
 3159 0636 0533     		adds	r3, r3, #5
 3160 0638 DBB2     		uxtb	r3, r3
 3161 063a E355     		strb	r3, [r4, r7]
 3162 063c A25C     		ldrb	r2, [r4, r2]
 3163 063e 9A42     		cmp	r2, r3
 3164 0640 00D2     		bcs	.LCB3347
 3165 0642 44E5     		b	.L255	@long jump
 3166              	.LCB3347:
 3167 0644 9A26     		movs	r6, #154
 3168 0646 7600     		lsls	r6, r6, #1
 3169 0648 A35D     		ldrb	r3, [r4, r6]
 3170 064a 5E2B     		cmp	r3, #94
ARM GAS  /tmp/ccAFBIk9.s 			page 59


 3171 064c 0AD8     		bhi	.L323
 3172 064e E218     		adds	r2, r4, r3
 3173 0650 1100     		movs	r1, r2
 3174 0652 0A20     		movs	r0, #10
 3175 0654 3631     		adds	r1, r1, #54
 3176 0656 3732     		adds	r2, r2, #55
 3177 0658 FF31     		adds	r1, r1, #255
 3178 065a FF32     		adds	r2, r2, #255
 3179 065c 0233     		adds	r3, r3, #2
 3180 065e 0870     		strb	r0, [r1]
 3181 0660 1570     		strb	r5, [r2]
 3182 0662 A355     		strb	r3, [r4, r6]
 3183              	.L323:
 3184 0664 9626     		movs	r6, #150
 3185 0666 FF36     		adds	r6, r6, #255
 3186 0668 A35D     		ldrb	r3, [r4, r6]
 3187 066a 0D2B     		cmp	r3, #13
 3188 066c 00D9     		bls	.LCB3371
 3189 066e 2EE5     		b	.L255	@long jump
 3190              	.LCB3371:
 3191 0670 E218     		adds	r2, r4, r3
 3192 0672 1100     		movs	r1, r2
 3193 0674 9731     		adds	r1, r1, #151
 3194 0676 0A20     		movs	r0, #10
 3195 0678 FF31     		adds	r1, r1, #255
 3196 067a 69E6     		b	.L379
 3197              	.L321:
 3198 067c 032D     		cmp	r5, #3
 3199 067e D8D1     		bne	.L322
 3200 0680 3100     		movs	r1, r6
 3201 0682 019A     		ldr	r2, [sp, #4]
 3202 0684 2068     		ldr	r0, [r4]
 3203 0686 FFF7FEFF 		bl	smtc_real_set_rx1_frequency_channel
 3204 068a 4342     		rsbs	r3, r0, #0
 3205 068c 5841     		adcs	r0, r0, r3
 3206 068e 4042     		rsbs	r0, r0, #0
 3207 0690 0540     		ands	r5, r0
 3208 0692 CEE7     		b	.L322
 3209              	.L262:
 3210 0694 481D     		adds	r0, r1, #5
 3211 0696 0631     		adds	r1, r1, #6
 3212 0698 C9B2     		uxtb	r1, r1
 3213 069a 9842     		cmp	r0, r3
 3214 069c 00DB     		blt	.LCB3399
 3215 069e D7E5     		b	.L384	@long jump
 3216              	.LCB3399:
 3217 06a0 694B     		ldr	r3, .L390+4
 3218 06a2 E55C     		ldrb	r5, [r4, r3]
 3219 06a4 022D     		cmp	r5, #2
 3220 06a6 00D0     		beq	.LCB3403
 3221 06a8 E4E4     		b	.L325	@long jump
 3222              	.LCB3403:
 3223 06aa 0135     		adds	r5, r5, #1
 3224 06ac E554     		strb	r5, [r4, r3]
 3225 06ae 1300     		movs	r3, r2
 3226 06b0 EF33     		adds	r3, r3, #239
 3227 06b2 FF33     		adds	r3, r3, #255
ARM GAS  /tmp/ccAFBIk9.s 			page 60


 3228 06b4 1D78     		ldrb	r5, [r3]
 3229 06b6 0133     		adds	r3, r3, #1
 3230 06b8 1B78     		ldrb	r3, [r3]
 3231 06ba 2D02     		lsls	r5, r5, #8
 3232 06bc 1B04     		lsls	r3, r3, #16
 3233 06be 2B43     		orrs	r3, r5
 3234 06c0 1500     		movs	r5, r2
 3235 06c2 F132     		adds	r2, r2, #241
 3236 06c4 EE35     		adds	r5, r5, #238
 3237 06c6 FF35     		adds	r5, r5, #255
 3238 06c8 FF32     		adds	r2, r2, #255
 3239 06ca 2D78     		ldrb	r5, [r5]
 3240 06cc 1278     		ldrb	r2, [r2]
 3241 06ce 2B43     		orrs	r3, r5
 3242 06d0 1206     		lsls	r2, r2, #24
 3243 06d2 1343     		orrs	r3, r2
 3244 06d4 F122     		movs	r2, #241
 3245 06d6 9200     		lsls	r2, r2, #2
 3246 06d8 A350     		str	r3, [r4, r2]
 3247 06da FA23     		movs	r3, #250
 3248 06dc 2018     		adds	r0, r4, r0
 3249 06de ED30     		adds	r0, r0, #237
 3250 06e0 FF30     		adds	r0, r0, #255
 3251 06e2 0278     		ldrb	r2, [r0]
 3252 06e4 9B00     		lsls	r3, r3, #2
 3253 06e6 5343     		muls	r3, r2
 3254 06e8 F222     		movs	r2, #242
 3255 06ea 1B0A     		lsrs	r3, r3, #8
 3256 06ec 9200     		lsls	r2, r2, #2
 3257 06ee A350     		str	r3, [r4, r2]
 3258 06f0 F423     		movs	r3, #244
 3259 06f2 E155     		strb	r1, [r4, r7]
 3260 06f4 9B00     		lsls	r3, r3, #2
 3261 06f6 E258     		ldr	r2, [r4, r3]
 3262 06f8 043B     		subs	r3, r3, #4
 3263 06fa E250     		str	r2, [r4, r3]
 3264 06fc FFF7FEFF 		bl	smtc_modem_hal_get_time_in_s
 3265 0700 F523     		movs	r3, #245
 3266 0702 9B00     		lsls	r3, r3, #2
 3267 0704 E050     		str	r0, [r4, r3]
 3268 0706 E2E4     		b	.L255
 3269              	.L261:
 3270 0708 504B     		ldr	r3, .L390+8
 3271 070a E25C     		ldrb	r2, [r4, r3]
 3272 070c 022A     		cmp	r2, #2
 3273 070e 0BD1     		bne	.L344
 3274 0710 0132     		adds	r2, r2, #1
 3275 0712 E254     		strb	r2, [r4, r3]
 3276 0714 0023     		movs	r3, #0
 3277              	.L326:
 3278 0716 0131     		adds	r1, r1, #1
 3279 0718 E155     		strb	r1, [r4, r7]
 3280 071a 002B     		cmp	r3, #0
 3281 071c 00D0     		beq	.LCB3466
 3282 071e D6E4     		b	.L255	@long jump
 3283              	.LCB3466:
 3284 0720 4B4B     		ldr	r3, .L390+12
ARM GAS  /tmp/ccAFBIk9.s 			page 61


 3285 0722 E25C     		ldrb	r2, [r4, r3]
 3286 0724 4B4B     		ldr	r3, .L390+16
 3287 0726 D1E4     		b	.L378
 3288              	.L344:
 3289 0728 0123     		movs	r3, #1
 3290 072a 5B42     		rsbs	r3, r3, #0
 3291 072c F3E7     		b	.L326
 3292              	.L260:
 3293 072e 0A1D     		adds	r2, r1, #4
 3294 0730 9A42     		cmp	r2, r3
 3295 0732 00DB     		blt	.LCB3482
 3296 0734 ABE5     		b	.L385	@long jump
 3297              	.LCB3482:
 3298 0736 EE31     		adds	r1, r1, #238
 3299 0738 FF31     		adds	r1, r1, #255
 3300 073a 2068     		ldr	r0, [r4]
 3301 073c 6118     		adds	r1, r4, r1
 3302 073e FFF7FEFF 		bl	smtc_real_decode_freq_from_buf
 3303 0742 061E     		subs	r6, r0, #0
 3304 0744 06D0     		beq	.L328
 3305 0746 0100     		movs	r1, r0
 3306 0748 2068     		ldr	r0, [r4]
 3307 074a FFF7FEFF 		bl	smtc_real_is_frequency_valid
 3308 074e 0225     		movs	r5, #2
 3309 0750 431C     		adds	r3, r0, #1
 3310 0752 00D0     		beq	.L329
 3311              	.L328:
 3312 0754 0325     		movs	r5, #3
 3313              	.L329:
 3314 0756 E35D     		ldrb	r3, [r4, r7]
 3315 0758 2068     		ldr	r0, [r4]
 3316 075a E318     		adds	r3, r4, r3
 3317 075c F133     		adds	r3, r3, #241
 3318 075e FF33     		adds	r3, r3, #255
 3319 0760 1A78     		ldrb	r2, [r3]
 3320 0762 0F23     		movs	r3, #15
 3321 0764 1A40     		ands	r2, r3
 3322 0766 1100     		movs	r1, r2
 3323 0768 0192     		str	r2, [sp, #4]
 3324 076a FFF7FEFF 		bl	smtc_real_is_rx_dr_valid
 3325 076e 431C     		adds	r3, r0, #1
 3326 0770 26D1     		bne	.L330
 3327 0772 0123     		movs	r3, #1
 3328 0774 1D40     		ands	r5, r3
 3329              	.L331:
 3330 0776 E35D     		ldrb	r3, [r4, r7]
 3331 0778 324A     		ldr	r2, .L390
 3332 077a 0533     		adds	r3, r3, #5
 3333 077c DBB2     		uxtb	r3, r3
 3334 077e E355     		strb	r3, [r4, r7]
 3335 0780 A25C     		ldrb	r2, [r4, r2]
 3336 0782 9A42     		cmp	r2, r3
 3337 0784 00D2     		bcs	.LCB3529
 3338 0786 A2E4     		b	.L255	@long jump
 3339              	.LCB3529:
 3340 0788 9A26     		movs	r6, #154
 3341 078a 7600     		lsls	r6, r6, #1
ARM GAS  /tmp/ccAFBIk9.s 			page 62


 3342 078c A35D     		ldrb	r3, [r4, r6]
 3343 078e 5E2B     		cmp	r3, #94
 3344 0790 0AD8     		bhi	.L332
 3345 0792 E218     		adds	r2, r4, r3
 3346 0794 1100     		movs	r1, r2
 3347 0796 1120     		movs	r0, #17
 3348 0798 3631     		adds	r1, r1, #54
 3349 079a 3732     		adds	r2, r2, #55
 3350 079c FF31     		adds	r1, r1, #255
 3351 079e FF32     		adds	r2, r2, #255
 3352 07a0 0233     		adds	r3, r3, #2
 3353 07a2 0870     		strb	r0, [r1]
 3354 07a4 1570     		strb	r5, [r2]
 3355 07a6 A355     		strb	r3, [r4, r6]
 3356              	.L332:
 3357 07a8 9626     		movs	r6, #150
 3358 07aa FF36     		adds	r6, r6, #255
 3359 07ac A35D     		ldrb	r3, [r4, r6]
 3360 07ae 0D2B     		cmp	r3, #13
 3361 07b0 00D9     		bls	.LCB3553
 3362 07b2 8CE4     		b	.L255	@long jump
 3363              	.LCB3553:
 3364 07b4 E218     		adds	r2, r4, r3
 3365 07b6 1100     		movs	r1, r2
 3366 07b8 9731     		adds	r1, r1, #151
 3367 07ba 1120     		movs	r0, #17
 3368 07bc FF31     		adds	r1, r1, #255
 3369 07be C7E5     		b	.L379
 3370              	.L330:
 3371 07c0 032D     		cmp	r5, #3
 3372 07c2 06D1     		bne	.L346
 3373 07c4 F923     		movs	r3, #249
 3374 07c6 019A     		ldr	r2, [sp, #4]
 3375 07c8 9B00     		lsls	r3, r3, #2
 3376 07ca E650     		str	r6, [r4, r3]
 3377 07cc 0433     		adds	r3, r3, #4
 3378 07ce E254     		strb	r2, [r4, r3]
 3379 07d0 D1E7     		b	.L331
 3380              	.L346:
 3381 07d2 0225     		movs	r5, #2
 3382 07d4 CFE7     		b	.L331
 3383              	.L258:
 3384 07d6 CA1C     		adds	r2, r1, #3
 3385 07d8 9A42     		cmp	r2, r3
 3386 07da 01DB     		blt	.L333
 3387 07dc 0431     		adds	r1, r1, #4
 3388 07de 37E5     		b	.L384
 3389              	.L333:
 3390 07e0 EE31     		adds	r1, r1, #238
 3391 07e2 FF31     		adds	r1, r1, #255
 3392 07e4 2068     		ldr	r0, [r4]
 3393 07e6 6118     		adds	r1, r4, r1
 3394 07e8 FFF7FEFF 		bl	smtc_real_decode_freq_from_buf
 3395 07ec 051E     		subs	r5, r0, #0
 3396 07ee 1DD1     		bne	.L334
 3397              	.L336:
 3398 07f0 F823     		movs	r3, #248
ARM GAS  /tmp/ccAFBIk9.s 			page 63


 3399 07f2 0122     		movs	r2, #1
 3400 07f4 9B00     		lsls	r3, r3, #2
 3401 07f6 E550     		str	r5, [r4, r3]
 3402              	.L335:
 3403 07f8 E35D     		ldrb	r3, [r4, r7]
 3404 07fa 1249     		ldr	r1, .L390
 3405 07fc 0433     		adds	r3, r3, #4
 3406 07fe DBB2     		uxtb	r3, r3
 3407 0800 E355     		strb	r3, [r4, r7]
 3408 0802 615C     		ldrb	r1, [r4, r1]
 3409 0804 9942     		cmp	r1, r3
 3410 0806 00D2     		bcs	.LCB3610
 3411 0808 61E4     		b	.L255	@long jump
 3412              	.LCB3610:
 3413 080a 9A25     		movs	r5, #154
 3414 080c 6D00     		lsls	r5, r5, #1
 3415 080e 635D     		ldrb	r3, [r4, r5]
 3416 0810 5E2B     		cmp	r3, #94
 3417 0812 00D9     		bls	.LCB3615
 3418 0814 5BE4     		b	.L255	@long jump
 3419              	.LCB3615:
 3420 0816 E118     		adds	r1, r4, r3
 3421 0818 0800     		movs	r0, r1
 3422 081a 1326     		movs	r6, #19
 3423 081c 3630     		adds	r0, r0, #54
 3424 081e 3731     		adds	r1, r1, #55
 3425 0820 FF30     		adds	r0, r0, #255
 3426 0822 FF31     		adds	r1, r1, #255
 3427 0824 0670     		strb	r6, [r0]
 3428 0826 0233     		adds	r3, r3, #2
 3429 0828 0A70     		strb	r2, [r1]
 3430 082a CBE5     		b	.L380
 3431              	.L334:
 3432 082c 0100     		movs	r1, r0
 3433 082e 2068     		ldr	r0, [r4]
 3434 0830 FFF7FEFF 		bl	smtc_real_is_frequency_valid
 3435 0834 431C     		adds	r3, r0, #1
 3436 0836 DBD1     		bne	.L336
 3437 0838 0022     		movs	r2, #0
 3438 083a DDE7     		b	.L335
 3439              	.L338:
 3440 083c 0120     		movs	r0, #1
 3441 083e 4042     		rsbs	r0, r0, #0
 3442 0840 4BE4     		b	.L256
 3443              	.L391:
 3444 0842 C046     		.align	2
 3445              	.L390:
 3446 0844 DE020000 		.word	734
 3447 0848 DD030000 		.word	989
 3448 084c DE030000 		.word	990
 3449 0850 E9030000 		.word	1001
 3450 0854 EA030000 		.word	1002
 3452              		.section	.rodata.lr1_stack_mac_join_request_build.str1.1,"aMS",%progbits,1
 3453              	.LC67:
 3454 0000 43727970 		.ascii	"Crypto error during join mic computation\012\000"
 3454      746F2065 
 3454      72726F72 
ARM GAS  /tmp/ccAFBIk9.s 			page 64


 3454      20647572 
 3454      696E6720 
 3455              		.section	.text.lr1_stack_mac_join_request_build,"ax",%progbits
 3456              		.align	1
 3457              		.global	lr1_stack_mac_join_request_build
 3458              		.syntax unified
 3459              		.code	16
 3460              		.thumb_func
 3461              		.fpu softvfp
 3463              	lr1_stack_mac_join_request_build:
 3464              		@ args = 0, pretend = 0, frame = 24
 3465              		@ frame_needed = 0, uses_anonymous_args = 0
 3466 0000 F0B5     		push	{r4, r5, r6, r7, lr}
 3467 0002 0400     		movs	r4, r0
 3468 0004 87B0     		sub	sp, sp, #28
 3469 0006 264D     		ldr	r5, .L400
 3470 0008 04AF     		add	r7, sp, #16
 3471 000a 415D     		ldrb	r1, [r0, r5]
 3472 000c 02AE     		add	r6, sp, #8
 3473 000e 3800     		movs	r0, r7
 3474 0010 FFF7FEFF 		bl	smtc_secure_element_get_joineui
 3475 0014 615D     		ldrb	r1, [r4, r5]
 3476 0016 3000     		movs	r0, r6
 3477 0018 FFF7FEFF 		bl	smtc_secure_element_get_deveui
 3478 001c EA22     		movs	r2, #234
 3479 001e 5200     		lsls	r2, r2, #1
 3480 0020 A35A     		ldrh	r3, [r4, r2]
 3481 0022 2049     		ldr	r1, .L400+4
 3482 0024 8B42     		cmp	r3, r1
 3483 0026 01D0     		beq	.L393
 3484 0028 0133     		adds	r3, r3, #1
 3485 002a A352     		strh	r3, [r4, r2]
 3486              	.L393:
 3487 002c 2300     		movs	r3, r4
 3488 002e 0022     		movs	r2, #0
 3489 0030 2F33     		adds	r3, r3, #47
 3490 0032 1A70     		strb	r2, [r3]
 3491 0034 0123     		movs	r3, #1
 3492 0036 2374     		strb	r3, [r4, #16]
 3493 0038 E373     		strb	r3, [r4, #15]
 3494 003a 2300     		movs	r3, r4
 3495 003c 2000     		movs	r0, r4
 3496 003e 3033     		adds	r3, r3, #48
 3497 0040 1B78     		ldrb	r3, [r3]
 3498 0042 0332     		adds	r2, r2, #3
 3499 0044 1340     		ands	r3, r2
 3500 0046 3530     		adds	r0, r0, #53
 3501 0048 2200     		movs	r2, r4
 3502 004a 0370     		strb	r3, [r0]
 3503 004c 0723     		movs	r3, #7
 3504 004e 3632     		adds	r2, r2, #54
 3505              	.L394:
 3506 0050 F95C     		ldrb	r1, [r7, r3]
 3507 0052 1170     		strb	r1, [r2]
 3508 0054 F15C     		ldrb	r1, [r6, r3]
 3509 0056 0132     		adds	r2, r2, #1
 3510 0058 D171     		strb	r1, [r2, #7]
ARM GAS  /tmp/ccAFBIk9.s 			page 65


 3511 005a 013B     		subs	r3, r3, #1
 3512 005c F8D2     		bcs	.L394
 3513 005e EA23     		movs	r3, #234
 3514 0060 5B00     		lsls	r3, r3, #1
 3515 0062 E25A     		ldrh	r2, [r4, r3]
 3516 0064 2600     		movs	r6, r4
 3517 0066 2300     		movs	r3, r4
 3518 0068 1321     		movs	r1, #19
 3519 006a 0833     		adds	r3, r3, #8
 3520 006c 3436     		adds	r6, r6, #52
 3521 006e DA87     		strh	r2, [r3, #62]
 3522 0070 3170     		strb	r1, [r6]
 3523 0072 635D     		ldrb	r3, [r4, r5]
 3524 0074 01AA     		add	r2, sp, #4
 3525 0076 FFF7FEFF 		bl	smtc_modem_crypto_compute_join_mic
 3526 007a 0028     		cmp	r0, #0
 3527 007c 04D0     		beq	.L395
 3528 007e 0A4A     		ldr	r2, .L400+8
 3529 0080 0A49     		ldr	r1, .L400+12
 3530 0082 0B48     		ldr	r0, .L400+16
 3531 0084 FFF7FEFF 		bl	smtc_modem_hal_on_panic
 3532              	.L395:
 3533 0088 3078     		ldrb	r0, [r6]
 3534 008a 0422     		movs	r2, #4
 3535 008c 3530     		adds	r0, r0, #53
 3536 008e 2018     		adds	r0, r4, r0
 3537 0090 01A9     		add	r1, sp, #4
 3538 0092 FFF7FEFF 		bl	memcpy
 3539 0096 3378     		ldrb	r3, [r6]
 3540 0098 0433     		adds	r3, r3, #4
 3541 009a 3370     		strb	r3, [r6]
 3542 009c 07B0     		add	sp, sp, #28
 3543              		@ sp needed
 3544 009e F0BD     		pop	{r4, r5, r6, r7, pc}
 3545              	.L401:
 3546              		.align	2
 3547              	.L400:
 3548 00a0 04050000 		.word	1284
 3549 00a4 FFFF0000 		.word	65535
 3550 00a8 00000000 		.word	.LC67
 3551 00ac 79050000 		.word	1401
 3552 00b0 00000000 		.word	.LANCHOR11
 3554              		.section	.text.lr1_stack_mac_join_accept,"ax",%progbits
 3555              		.align	1
 3556              		.global	lr1_stack_mac_join_accept
 3557              		.syntax unified
 3558              		.code	16
 3559              		.thumb_func
 3560              		.fpu softvfp
 3562              	lr1_stack_mac_join_accept:
 3563              		@ args = 0, pretend = 0, frame = 8
 3564              		@ frame_needed = 0, uses_anonymous_args = 0
 3565 0000 13B5     		push	{r0, r1, r4, lr}
 3566 0002 434B     		ldr	r3, .L412
 3567 0004 0400     		movs	r4, r0
 3568 0006 C118     		adds	r1, r0, r3
 3569 0008 0622     		movs	r2, #6
ARM GAS  /tmp/ccAFBIk9.s 			page 66


 3570 000a 6846     		mov	r0, sp
 3571 000c FFF7FEFF 		bl	memcpy
 3572 0010 EB23     		movs	r3, #235
 3573 0012 5B00     		lsls	r3, r3, #1
 3574 0014 E05C     		ldrb	r0, [r4, r3]
 3575 0016 6B46     		mov	r3, sp
 3576 0018 1978     		ldrb	r1, [r3]
 3577 001a D823     		movs	r3, #216
 3578 001c FF33     		adds	r3, r3, #255
 3579 001e E25C     		ldrb	r2, [r4, r3]
 3580 0020 0133     		adds	r3, r3, #1
 3581 0022 E35C     		ldrb	r3, [r4, r3]
 3582 0024 1202     		lsls	r2, r2, #8
 3583 0026 1B04     		lsls	r3, r3, #16
 3584 0028 1A43     		orrs	r2, r3
 3585 002a 0243     		orrs	r2, r0
 3586 002c 6B46     		mov	r3, sp
 3587 002e 6846     		mov	r0, sp
 3588 0030 5B78     		ldrb	r3, [r3, #1]
 3589 0032 8078     		ldrb	r0, [r0, #2]
 3590 0034 1B02     		lsls	r3, r3, #8
 3591 0036 0004     		lsls	r0, r0, #16
 3592 0038 0343     		orrs	r3, r0
 3593 003a 0B43     		orrs	r3, r1
 3594 003c 9A42     		cmp	r2, r3
 3595 003e 02D1     		bne	.L403
 3596              	.L410:
 3597 0040 0120     		movs	r0, #1
 3598 0042 4042     		rsbs	r0, r0, #0
 3599              	.L404:
 3600              		@ sp needed
 3601 0044 16BD     		pop	{r1, r2, r4, pc}
 3602              	.L403:
 3603 0046 2000     		movs	r0, r4
 3604 0048 D730     		adds	r0, r0, #215
 3605 004a 0622     		movs	r2, #6
 3606 004c 6946     		mov	r1, sp
 3607 004e FF30     		adds	r0, r0, #255
 3608 0050 FFF7FEFF 		bl	memcpy
 3609 0054 EA22     		movs	r2, #234
 3610 0056 6946     		mov	r1, sp
 3611 0058 2E4B     		ldr	r3, .L412+4
 3612 005a 5200     		lsls	r2, r2, #1
 3613 005c E35C     		ldrb	r3, [r4, r3]
 3614 005e A25A     		ldrh	r2, [r4, r2]
 3615 0060 0331     		adds	r1, r1, #3
 3616 0062 6846     		mov	r0, sp
 3617 0064 FFF7FEFF 		bl	smtc_modem_crypto_derive_skeys
 3618 0068 2000     		movs	r0, r4
 3619 006a FFF7FEFF 		bl	lr1_stack_mac_session_init
 3620 006e 2068     		ldr	r0, [r4]
 3621 0070 FFF7FEFF 		bl	smtc_real_config_session
 3622 0074 FB23     		movs	r3, #251
 3623 0076 9B00     		lsls	r3, r3, #2
 3624 0078 E35C     		ldrb	r3, [r4, r3]
 3625 007a 0D2B     		cmp	r3, #13
 3626 007c 3CD9     		bls	.L405
ARM GAS  /tmp/ccAFBIk9.s 			page 67


 3627 007e 2100     		movs	r1, r4
 3628 0080 0023     		movs	r3, #0
 3629 0082 254A     		ldr	r2, .L412+8
 3630 0084 DD31     		adds	r1, r1, #221
 3631 0086 A018     		adds	r0, r4, r2
 3632 0088 FF31     		adds	r1, r1, #255
 3633              	.L406:
 3634 008a C25C     		ldrb	r2, [r0, r3]
 3635 008c CA54     		strb	r2, [r1, r3]
 3636 008e 0133     		adds	r3, r3, #1
 3637 0090 102B     		cmp	r3, #16
 3638 0092 FAD1     		bne	.L406
 3639 0094 2068     		ldr	r0, [r4]
 3640 0096 FFF7FEFF 		bl	smtc_real_update_cflist
 3641              	.L407:
 3642 009a FD22     		movs	r2, #253
 3643 009c 1F4B     		ldr	r3, .L412+12
 3644 009e 9200     		lsls	r2, r2, #2
 3645 00a0 E35C     		ldrb	r3, [r4, r3]
 3646 00a2 A25C     		ldrb	r2, [r4, r2]
 3647 00a4 1B02     		lsls	r3, r3, #8
 3648 00a6 9B18     		adds	r3, r3, r2
 3649 00a8 1D4A     		ldr	r2, .L412+16
 3650 00aa A25C     		ldrb	r2, [r4, r2]
 3651 00ac 1204     		lsls	r2, r2, #16
 3652 00ae 9B18     		adds	r3, r3, r2
 3653 00b0 1C4A     		ldr	r2, .L412+20
 3654 00b2 A25C     		ldrb	r2, [r4, r2]
 3655 00b4 1206     		lsls	r2, r2, #24
 3656 00b6 9B18     		adds	r3, r3, r2
 3657 00b8 A362     		str	r3, [r4, #40]
 3658 00ba FE23     		movs	r3, #254
 3659 00bc 0F22     		movs	r2, #15
 3660 00be 9B00     		lsls	r3, r3, #2
 3661 00c0 E35C     		ldrb	r3, [r4, r3]
 3662 00c2 5906     		lsls	r1, r3, #25
 3663 00c4 1340     		ands	r3, r2
 3664 00c6 A374     		strb	r3, [r4, #18]
 3665 00c8 490F     		lsrs	r1, r1, #29
 3666 00ca 174B     		ldr	r3, .L412+24
 3667 00cc 2176     		strb	r1, [r4, #24]
 3668 00ce E35C     		ldrb	r3, [r4, r3]
 3669 00d0 1800     		movs	r0, r3
 3670 00d2 1040     		ands	r0, r2
 3671 00d4 1342     		tst	r3, r2
 3672 00d6 17D0     		beq	.L408
 3673 00d8 6076     		strb	r0, [r4, #25]
 3674              	.L409:
 3675 00da 2068     		ldr	r0, [r4]
 3676 00dc FFF7FEFF 		bl	smtc_real_is_rx1_dr_offset_valid
 3677 00e0 0028     		cmp	r0, #0
 3678 00e2 ADD1     		bne	.L410
 3679 00e4 A17C     		ldrb	r1, [r4, #18]
 3680 00e6 2068     		ldr	r0, [r4]
 3681 00e8 FFF7FEFF 		bl	smtc_real_is_rx_dr_valid
 3682 00ec 0028     		cmp	r0, #0
 3683 00ee A7D1     		bne	.L410
ARM GAS  /tmp/ccAFBIk9.s 			page 68


 3684 00f0 0222     		movs	r2, #2
 3685 00f2 0E4B     		ldr	r3, .L412+28
 3686 00f4 E254     		strb	r2, [r4, r3]
 3687 00f6 A5E7     		b	.L404
 3688              	.L405:
 3689 00f8 D923     		movs	r3, #217
 3690 00fa 9B00     		lsls	r3, r3, #2
 3691 00fc 217B     		ldrb	r1, [r4, #12]
 3692 00fe E258     		ldr	r2, [r4, r3]
 3693 0100 2068     		ldr	r0, [r4]
 3694 0102 FFF7FEFF 		bl	smtc_real_init_after_join_snapshot_channel_mask
 3695 0106 C8E7     		b	.L407
 3696              	.L408:
 3697 0108 0123     		movs	r3, #1
 3698 010a 6376     		strb	r3, [r4, #25]
 3699 010c E5E7     		b	.L409
 3700              	.L413:
 3701 010e C046     		.align	2
 3702              	.L412:
 3703 0110 EE030000 		.word	1006
 3704 0114 04050000 		.word	1284
 3705 0118 FA030000 		.word	1018
 3706 011c F5030000 		.word	1013
 3707 0120 F6030000 		.word	1014
 3708 0124 F7030000 		.word	1015
 3709 0128 F9030000 		.word	1017
 3710 012c 82030000 		.word	898
 3712              		.section	.text.lr1_stack_network_next_free_duty_cycle_ms_get,"ax",%progbits
 3713              		.align	1
 3714              		.global	lr1_stack_network_next_free_duty_cycle_ms_get
 3715              		.syntax unified
 3716              		.code	16
 3717              		.thumb_func
 3718              		.fpu softvfp
 3720              	lr1_stack_network_next_free_duty_cycle_ms_get:
 3721              		@ args = 0, pretend = 0, frame = 0
 3722              		@ frame_needed = 0, uses_anonymous_args = 0
 3723 0000 70B5     		push	{r4, r5, r6, lr}
 3724 0002 E625     		movs	r5, #230
 3725 0004 6D00     		lsls	r5, r5, #1
 3726 0006 4359     		ldr	r3, [r0, r5]
 3727 0008 0400     		movs	r4, r0
 3728 000a 002B     		cmp	r3, #0
 3729 000c 01D1     		bne	.L415
 3730              	.L419:
 3731 000e 0020     		movs	r0, #0
 3732              	.L414:
 3733              		@ sp needed
 3734 0010 70BD     		pop	{r4, r5, r6, pc}
 3735              	.L415:
 3736 0012 FFF7FEFF 		bl	smtc_modem_hal_get_time_in_ms
 3737 0016 E822     		movs	r2, #232
 3738 0018 5200     		lsls	r2, r2, #1
 3739 001a 0300     		movs	r3, r0
 3740 001c A058     		ldr	r0, [r4, r2]
 3741 001e 9842     		cmp	r0, r3
 3742 0020 05D8     		bhi	.L417
ARM GAS  /tmp/ccAFBIk9.s 			page 69


 3743 0022 1B1A     		subs	r3, r3, r0
 3744              	.L418:
 3745 0024 6059     		ldr	r0, [r4, r5]
 3746 0026 9842     		cmp	r0, r3
 3747 0028 F1D3     		bcc	.L419
 3748 002a C01A     		subs	r0, r0, r3
 3749 002c F0E7     		b	.L414
 3750              	.L417:
 3751 002e C043     		mvns	r0, r0
 3752 0030 1B18     		adds	r3, r3, r0
 3753 0032 F7E7     		b	.L418
 3755              		.section	.text.lr1_stack_toa_get,"ax",%progbits
 3756              		.align	1
 3757              		.global	lr1_stack_toa_get
 3758              		.syntax unified
 3759              		.code	16
 3760              		.thumb_func
 3761              		.fpu softvfp
 3763              	lr1_stack_toa_get:
 3764              		@ args = 0, pretend = 0, frame = 56
 3765              		@ frame_needed = 0, uses_anonymous_args = 0
 3766 0000 F0B5     		push	{r4, r5, r6, r7, lr}
 3767 0002 0027     		movs	r7, #0
 3768 0004 8FB0     		sub	sp, sp, #60
 3769 0006 0297     		str	r7, [sp, #8]
 3770 0008 017B     		ldrb	r1, [r0, #12]
 3771 000a 0400     		movs	r4, r0
 3772 000c 0068     		ldr	r0, [r0]
 3773 000e FFF7FEFF 		bl	smtc_real_get_modulation_type_from_datarate
 3774 0012 0600     		movs	r6, r0
 3775 0014 B842     		cmp	r0, r7
 3776 0016 37D1     		bne	.L421
 3777 0018 6B46     		mov	r3, sp
 3778 001a 9F1D     		adds	r7, r3, #6
 3779 001c 03AD     		add	r5, sp, #12
 3780 001e 3A00     		movs	r2, r7
 3781 0020 0733     		adds	r3, r3, #7
 3782 0022 217B     		ldrb	r1, [r4, #12]
 3783 0024 2068     		ldr	r0, [r4]
 3784 0026 FFF7FEFF 		bl	smtc_real_lora_dr_to_sf_bw
 3785 002a 1422     		movs	r2, #20
 3786 002c 3100     		movs	r1, r6
 3787 002e 2800     		movs	r0, r5
 3788 0030 FFF7FEFF 		bl	memset
 3789 0034 3B78     		ldrb	r3, [r7]
 3790 0036 2068     		ldr	r0, [r4]
 3791 0038 2B70     		strb	r3, [r5]
 3792 003a 6B46     		mov	r3, sp
 3793 003c DB79     		ldrb	r3, [r3, #7]
 3794 003e 6B70     		strb	r3, [r5, #1]
 3795 0040 FFF7FEFF 		bl	smtc_real_get_coding_rate
 3796 0044 2F78     		ldrb	r7, [r5]
 3797 0046 6978     		ldrb	r1, [r5, #1]
 3798 0048 A870     		strb	r0, [r5, #2]
 3799 004a 3800     		movs	r0, r7
 3800 004c FFF7FEFF 		bl	ral_compute_lora_ldro
 3801 0050 0123     		movs	r3, #1
ARM GAS  /tmp/ccAFBIk9.s 			page 70


 3802 0052 2B81     		strh	r3, [r5, #8]
 3803 0054 2300     		movs	r3, r4
 3804 0056 E870     		strb	r0, [r5, #3]
 3805 0058 3433     		adds	r3, r3, #52
 3806 005a 1B78     		ldrb	r3, [r3]
 3807 005c 3900     		movs	r1, r7
 3808 005e 2068     		ldr	r0, [r4]
 3809 0060 EB71     		strb	r3, [r5, #7]
 3810 0062 FFF7FEFF 		bl	smtc_real_get_preamble_len
 3811 0066 DC23     		movs	r3, #220
 3812 0068 2900     		movs	r1, r5
 3813 006a 9B00     		lsls	r3, r3, #2
 3814 006c E258     		ldr	r2, [r4, r3]
 3815 006e 5133     		adds	r3, r3, #81
 3816 0070 AE71     		strb	r6, [r5, #6]
 3817 0072 FF33     		adds	r3, r3, #255
 3818 0074 D358     		ldr	r3, [r2, r3]
 3819 0076 A880     		strh	r0, [r5, #4]
 3820 0078 A033     		adds	r3, r3, #160
 3821 007a 1B68     		ldr	r3, [r3]
 3822 007c 04A8     		add	r0, sp, #16
 3823              	.L425:
 3824 007e 9847     		blx	r3
 3825 0080 0290     		str	r0, [sp, #8]
 3826              	.L422:
 3827 0082 0298     		ldr	r0, [sp, #8]
 3828 0084 0FB0     		add	sp, sp, #60
 3829              		@ sp needed
 3830 0086 F0BD     		pop	{r4, r5, r6, r7, pc}
 3831              	.L421:
 3832 0088 0128     		cmp	r0, #1
 3833 008a 38D1     		bne	.L423
 3834 008c 6B46     		mov	r3, sp
 3835 008e 03AD     		add	r5, sp, #12
 3836 0090 DA1D     		adds	r2, r3, #7
 3837 0092 217B     		ldrb	r1, [r4, #12]
 3838 0094 2068     		ldr	r0, [r4]
 3839 0096 FFF7FEFF 		bl	smtc_real_fsk_dr_to_bitrate
 3840 009a 2C22     		movs	r2, #44
 3841 009c 3900     		movs	r1, r7
 3842 009e 2800     		movs	r0, r5
 3843 00a0 FFF7FEFF 		bl	memset
 3844 00a4 D923     		movs	r3, #217
 3845 00a6 9B00     		lsls	r3, r3, #2
 3846 00a8 E358     		ldr	r3, [r4, r3]
 3847 00aa 2068     		ldr	r0, [r4]
 3848 00ac 0B93     		str	r3, [sp, #44]
 3849 00ae FFF7FEFF 		bl	smtc_real_get_gfsk_sync_word
 3850 00b2 294B     		ldr	r3, .L426
 3851 00b4 0A90     		str	r0, [sp, #40]
 3852 00b6 2B85     		strh	r3, [r5, #40]
 3853 00b8 284B     		ldr	r3, .L426+4
 3854 00ba 2900     		movs	r1, r5
 3855 00bc 0C93     		str	r3, [sp, #48]
 3856 00be 2300     		movs	r3, r4
 3857 00c0 6E75     		strb	r6, [r5, #21]
 3858 00c2 3433     		adds	r3, r3, #52
ARM GAS  /tmp/ccAFBIk9.s 			page 71


 3859 00c4 1B78     		ldrb	r3, [r3]
 3860 00c6 07A8     		add	r0, sp, #28
 3861 00c8 EB82     		strh	r3, [r5, #22]
 3862 00ca 254B     		ldr	r3, .L426+8
 3863 00cc 0793     		str	r3, [sp, #28]
 3864 00ce 8223     		movs	r3, #130
 3865 00d0 5B00     		lsls	r3, r3, #1
 3866 00d2 2B83     		strh	r3, [r5, #24]
 3867 00d4 6B46     		mov	r3, sp
 3868 00d6 DA79     		ldrb	r2, [r3, #7]
 3869 00d8 FA23     		movs	r3, #250
 3870 00da 9B00     		lsls	r3, r3, #2
 3871 00dc 5343     		muls	r3, r2
 3872 00de 0393     		str	r3, [sp, #12]
 3873 00e0 204B     		ldr	r3, .L426+12
 3874 00e2 0493     		str	r3, [sp, #16]
 3875 00e4 204B     		ldr	r3, .L426+16
 3876 00e6 0593     		str	r3, [sp, #20]
 3877 00e8 0423     		movs	r3, #4
 3878 00ea 2B73     		strb	r3, [r5, #12]
 3879 00ec DC23     		movs	r3, #220
 3880 00ee 9B00     		lsls	r3, r3, #2
 3881 00f0 E258     		ldr	r2, [r4, r3]
 3882 00f2 5133     		adds	r3, r3, #81
 3883 00f4 FF33     		adds	r3, r3, #255
 3884 00f6 D358     		ldr	r3, [r2, r3]
 3885 00f8 A433     		adds	r3, r3, #164
 3886 00fa 1B68     		ldr	r3, [r3]
 3887 00fc BFE7     		b	.L425
 3888              	.L423:
 3889 00fe 0228     		cmp	r0, #2
 3890 0100 24D1     		bne	.L424
 3891 0102 6B46     		mov	r3, sp
 3892 0104 9E1D     		adds	r6, r3, #6
 3893 0106 03AD     		add	r5, sp, #12
 3894 0108 3200     		movs	r2, r6
 3895 010a 217B     		ldrb	r1, [r4, #12]
 3896 010c 2068     		ldr	r0, [r4]
 3897 010e 0733     		adds	r3, r3, #7
 3898 0110 FFF7FEFF 		bl	smtc_real_lr_fhss_dr_to_cr_bw
 3899 0114 3900     		movs	r1, r7
 3900 0116 1822     		movs	r2, #24
 3901 0118 2800     		movs	r0, r5
 3902 011a FFF7FEFF 		bl	memset
 3903 011e 0123     		movs	r3, #1
 3904 0120 3078     		ldrb	r0, [r6]
 3905 0122 2B72     		strb	r3, [r5, #8]
 3906 0124 6871     		strb	r0, [r5, #5]
 3907 0126 FFF7FEFF 		bl	smtc_real_lr_fhss_get_header_count
 3908 012a DC23     		movs	r3, #220
 3909 012c 9B00     		lsls	r3, r3, #2
 3910 012e E258     		ldr	r2, [r4, r3]
 3911 0130 5133     		adds	r3, r3, #81
 3912 0132 6872     		strb	r0, [r5, #9]
 3913 0134 FF33     		adds	r3, r3, #255
 3914 0136 D058     		ldr	r0, [r2, r3]
 3915 0138 3434     		adds	r4, r4, #52
ARM GAS  /tmp/ccAFBIk9.s 			page 72


 3916 013a 0300     		movs	r3, r0
 3917 013c D433     		adds	r3, r3, #212
 3918 013e 2278     		ldrb	r2, [r4]
 3919 0140 2900     		movs	r1, r5
 3920 0142 1C68     		ldr	r4, [r3]
 3921 0144 0068     		ldr	r0, [r0]
 3922 0146 02AB     		add	r3, sp, #8
 3923 0148 A047     		blx	r4
 3924 014a 9AE7     		b	.L422
 3925              	.L424:
 3926 014c 074A     		ldr	r2, .L426+20
 3927 014e 0849     		ldr	r1, .L426+24
 3928 0150 0848     		ldr	r0, .L426+28
 3929 0152 FFF7FEFF 		bl	smtc_modem_hal_on_panic
 3930 0156 94E7     		b	.L422
 3931              	.L427:
 3932              		.align	2
 3933              	.L426:
 3934 0158 FF010000 		.word	511
 3935 015c 0F1D2110 		.word	270605583
 3936 0160 28000218 		.word	402784296
 3937 0164 A8610000 		.word	25000
 3938 0168 A0860100 		.word	100000
 3939 016c 89000000 		.word	.LC49
 3940 0170 3F060000 		.word	1599
 3941 0174 00000000 		.word	.LANCHOR12
 3943              		.global	__aeabi_uidiv
 3944              		.section	.rodata.lr1_stack_mac_update.str1.1,"aMS",%progbits,1
 3945              	.LC72:
 3946 0000 52656163 		.ascii	"Reach max tx frame without dl, ul cnt:%d\012\000"
 3946      68206D61 
 3946      78207478 
 3946      20667261 
 3946      6D652077 
 3947              	.LC75:
 3948 002a 20446174 		.ascii	" Data Rate incompatible with channel mask\012\000"
 3948      61205261 
 3948      74652069 
 3948      6E636F6D 
 3948      70617469 
 3949              		.section	.text.lr1_stack_mac_update,"ax",%progbits
 3950              		.align	1
 3951              		.global	lr1_stack_mac_update
 3952              		.syntax unified
 3953              		.code	16
 3954              		.thumb_func
 3955              		.fpu softvfp
 3957              	lr1_stack_mac_update:
 3958              		@ args = 0, pretend = 0, frame = 0
 3959              		@ frame_needed = 0, uses_anonymous_args = 0
 3960 0000 D123     		movs	r3, #209
 3961 0002 F7B5     		push	{r0, r1, r2, r4, r5, r6, r7, lr}
 3962 0004 9B00     		lsls	r3, r3, #2
 3963 0006 C35A     		ldrh	r3, [r0, r3]
 3964 0008 964E     		ldr	r6, .L460
 3965 000a 5BBA     		rev16	r3, r3
 3966 000c 8353     		strh	r3, [r0, r6]
ARM GAS  /tmp/ccAFBIk9.s 			page 73


 3967 000e EC23     		movs	r3, #236
 3968 0010 0022     		movs	r2, #0
 3969 0012 9B00     		lsls	r3, r3, #2
 3970 0014 C254     		strb	r2, [r0, r3]
 3971 0016 944B     		ldr	r3, .L460+4
 3972 0018 0400     		movs	r4, r0
 3973 001a C35C     		ldrb	r3, [r0, r3]
 3974 001c 012B     		cmp	r3, #1
 3975 001e 24D1     		bne	.L429
 3976 0020 FFF7FEFF 		bl	smtc_modem_hal_get_time_in_s
 3977 0024 D722     		movs	r2, #215
 3978 0026 9200     		lsls	r2, r2, #2
 3979 0028 A358     		ldr	r3, [r4, r2]
 3980 002a 0500     		movs	r5, r0
 3981 002c 0133     		adds	r3, r3, #1
 3982 002e A350     		str	r3, [r4, r2]
 3983 0030 2000     		movs	r0, r4
 3984 0032 D827     		movs	r7, #216
 3985 0034 FFF7FEFF 		bl	lr1_stack_toa_get
 3986 0038 0A21     		movs	r1, #10
 3987 003a FFF7FEFF 		bl	__aeabi_uidiv
 3988 003e E122     		movs	r2, #225
 3989 0040 BF00     		lsls	r7, r7, #2
 3990 0042 E359     		ldr	r3, [r4, r7]
 3991 0044 1201     		lsls	r2, r2, #4
 3992 0046 4019     		adds	r0, r0, r5
 3993 0048 9B18     		adds	r3, r3, r2
 3994 004a 9842     		cmp	r0, r3
 3995 004c 00D3     		bcc	.LCB4235
 3996 004e D4E0     		b	.L430	@long jump
 3997              	.LCB4235:
 3998 0050 2000     		movs	r0, r4
 3999 0052 FFF7FEFF 		bl	lr1_stack_toa_get
 4000 0056 0A21     		movs	r1, #10
 4001 0058 FFF7FEFF 		bl	__aeabi_uidiv
 4002 005c D623     		movs	r3, #214
 4003 005e 4519     		adds	r5, r0, r5
 4004 0060 9B00     		lsls	r3, r3, #2
 4005 0062 E550     		str	r5, [r4, r3]
 4006              	.L431:
 4007 0064 0023     		movs	r3, #0
 4008 0066 804A     		ldr	r2, .L460+4
 4009 0068 A354     		strb	r3, [r4, r2]
 4010              	.L429:
 4011 006a D025     		movs	r5, #208
 4012 006c 0020     		movs	r0, #0
 4013 006e AD00     		lsls	r5, r5, #2
 4014 0070 6259     		ldr	r2, [r4, r5]
 4015 0072 A15D     		ldrb	r1, [r4, r6]
 4016 0074 D317     		asrs	r3, r2, #31
 4017 0076 8A42     		cmp	r2, r1
 4018 0078 4341     		adcs	r3, r3, r0
 4019 007a D220     		movs	r0, #210
 4020 007c 8000     		lsls	r0, r0, #2
 4021 007e 2354     		strb	r3, [r4, r0]
 4022 0080 237C     		ldrb	r3, [r4, #16]
 4023 0082 012B     		cmp	r3, #1
ARM GAS  /tmp/ccAFBIk9.s 			page 74


 4024 0084 00D9     		bls	.LCB4264
 4025 0086 D0E0     		b	.L433	@long jump
 4026              	.LCB4264:
 4027 0088 236A     		ldr	r3, [r4, #32]
 4028 008a 0132     		adds	r2, r2, #1
 4029 008c 0133     		adds	r3, r3, #1
 4030 008e 2362     		str	r3, [r4, #32]
 4031 0090 0123     		movs	r3, #1
 4032 0092 6251     		str	r2, [r4, r5]
 4033              	.L434:
 4034 0094 2374     		strb	r3, [r4, #16]
 4035 0096 754B     		ldr	r3, .L460+8
 4036 0098 E35C     		ldrb	r3, [r4, r3]
 4037 009a 5918     		adds	r1, r3, r1
 4038 009c 6359     		ldr	r3, [r4, r5]
 4039 009e 8B42     		cmp	r3, r1
 4040 00a0 24DB     		blt	.L436
 4041 00a2 EC23     		movs	r3, #236
 4042 00a4 9B00     		lsls	r3, r3, #2
 4043 00a6 E35C     		ldrb	r3, [r4, r3]
 4044 00a8 2068     		ldr	r0, [r4]
 4045 00aa 032B     		cmp	r3, #3
 4046 00ac 00D0     		beq	.LCB4287
 4047 00ae C3E0     		b	.L437	@long jump
 4048              	.LCB4287:
 4049 00b0 617B     		ldrb	r1, [r4, #13]
 4050 00b2 FFF7FEFF 		bl	smtc_real_decrement_dr_simulation
 4051 00b6 2300     		movs	r3, r4
 4052 00b8 3333     		adds	r3, r3, #51
 4053 00ba 1A78     		ldrb	r2, [r3]
 4054 00bc A623     		movs	r3, #166
 4055 00be FF33     		adds	r3, r3, #255
 4056 00c0 E35C     		ldrb	r3, [r4, r3]
 4057 00c2 0100     		movs	r1, r0
 4058 00c4 0093     		str	r3, [sp]
 4059 00c6 2068     		ldr	r0, [r4]
 4060 00c8 0023     		movs	r3, #0
 4061 00ca FFF7FEFF 		bl	smtc_real_is_payload_size_valid
 4062 00ce 0028     		cmp	r0, #0
 4063 00d0 0CD1     		bne	.L436
 4064 00d2 674B     		ldr	r3, .L460+12
 4065 00d4 2200     		movs	r2, r4
 4066 00d6 E15C     		ldrb	r1, [r4, r3]
 4067 00d8 2300     		movs	r3, r4
 4068 00da 2068     		ldr	r0, [r4]
 4069 00dc 0F33     		adds	r3, r3, #15
 4070 00de 0093     		str	r3, [sp]
 4071 00e0 0D32     		adds	r2, r2, #13
 4072 00e2 013B     		subs	r3, r3, #1
 4073              	.L459:
 4074 00e4 FFF7FEFF 		bl	smtc_real_decrement_dr
 4075 00e8 A35D     		ldrb	r3, [r4, r6]
 4076 00ea 6351     		str	r3, [r4, r5]
 4077              	.L436:
 4078 00ec D023     		movs	r3, #208
 4079 00ee D322     		movs	r2, #211
 4080 00f0 9B00     		lsls	r3, r3, #2
ARM GAS  /tmp/ccAFBIk9.s 			page 75


 4081 00f2 9200     		lsls	r2, r2, #2
 4082 00f4 E358     		ldr	r3, [r4, r3]
 4083 00f6 A25A     		ldrh	r2, [r4, r2]
 4084 00f8 9342     		cmp	r3, r2
 4085 00fa 06DB     		blt	.L439
 4086 00fc 002A     		cmp	r2, #0
 4087 00fe 04D0     		beq	.L439
 4088 0100 5C4A     		ldr	r2, .L460+16
 4089 0102 5D49     		ldr	r1, .L460+20
 4090 0104 5D48     		ldr	r0, .L460+24
 4091 0106 FFF7FEFF 		bl	smtc_modem_hal_on_panic
 4092              	.L439:
 4093 010a 9A23     		movs	r3, #154
 4094 010c 9622     		movs	r2, #150
 4095 010e 5B00     		lsls	r3, r3, #1
 4096 0110 FF32     		adds	r2, r2, #255
 4097 0112 E35C     		ldrb	r3, [r4, r3]
 4098 0114 A25C     		ldrb	r2, [r4, r2]
 4099 0116 9342     		cmp	r3, r2
 4100 0118 00D2     		bcs	.LCB4343
 4101 011a 96E0     		b	.L440	@long jump
 4102              	.LCB4343:
 4103 011c 002B     		cmp	r3, #0
 4104 011e 00D1     		bne	.LCB4345
 4105 0120 93E0     		b	.L440	@long jump
 4106              	.LCB4345:
 4107 0122 2100     		movs	r1, r4
 4108 0124 564A     		ldr	r2, .L460+28
 4109 0126 3631     		adds	r1, r1, #54
 4110 0128 A354     		strb	r3, [r4, r2]
 4111 012a 1A00     		movs	r2, r3
 4112 012c 554B     		ldr	r3, .L460+32
 4113 012e FF31     		adds	r1, r1, #255
 4114 0130 E018     		adds	r0, r4, r3
 4115 0132 FFF7FEFF 		bl	memcpy
 4116 0136 EC23     		movs	r3, #236
 4117 0138 0122     		movs	r2, #1
 4118 013a 9B00     		lsls	r3, r3, #2
 4119 013c E254     		strb	r2, [r4, r3]
 4120 013e E37B     		ldrb	r3, [r4, #15]
 4121 0140 2374     		strb	r3, [r4, #16]
 4122              	.L441:
 4123 0142 9A23     		movs	r3, #154
 4124 0144 0022     		movs	r2, #0
 4125 0146 5B00     		lsls	r3, r3, #1
 4126 0148 E254     		strb	r2, [r4, r3]
 4127 014a 474B     		ldr	r3, .L460+4
 4128 014c E15C     		ldrb	r1, [r4, r3]
 4129 014e 0229     		cmp	r1, #2
 4130 0150 17D1     		bne	.L443
 4131 0152 2E33     		adds	r3, r3, #46
 4132 0154 E35C     		ldrb	r3, [r4, r3]
 4133 0156 032B     		cmp	r3, #3
 4134 0158 4ED0     		beq	.L428
 4135 015a 4B4B     		ldr	r3, .L460+36
 4136 015c 444A     		ldr	r2, .L460+12
 4137 015e E318     		adds	r3, r4, r3
ARM GAS  /tmp/ccAFBIk9.s 			page 76


 4138 0160 0193     		str	r3, [sp, #4]
 4139 0162 637B     		ldrb	r3, [r4, #13]
 4140 0164 2068     		ldr	r0, [r4]
 4141 0166 0093     		str	r3, [sp]
 4142 0168 2300     		movs	r3, r4
 4143 016a A218     		adds	r2, r4, r2
 4144 016c 0C33     		adds	r3, r3, #12
 4145 016e FFF7FEFF 		bl	smtc_real_get_next_tx_dr
 4146 0172 431C     		adds	r3, r0, #1
 4147 0174 05D1     		bne	.L443
 4148 0176 9A21     		movs	r1, #154
 4149 0178 444A     		ldr	r2, .L460+40
 4150 017a 4048     		ldr	r0, .L460+24
 4151 017c C900     		lsls	r1, r1, #3
 4152 017e FFF7FEFF 		bl	smtc_modem_hal_on_panic
 4153              	.L443:
 4154 0182 EC23     		movs	r3, #236
 4155 0184 9B00     		lsls	r3, r3, #2
 4156 0186 E35C     		ldrb	r3, [r4, r3]
 4157 0188 012B     		cmp	r3, #1
 4158 018a 35D1     		bne	.L428
 4159 018c A623     		movs	r3, #166
 4160 018e FF33     		adds	r3, r3, #255
 4161 0190 E35C     		ldrb	r3, [r4, r3]
 4162 0192 3B4D     		ldr	r5, .L460+28
 4163 0194 0093     		str	r3, [sp]
 4164 0196 625D     		ldrb	r2, [r4, r5]
 4165 0198 0023     		movs	r3, #0
 4166 019a 217B     		ldrb	r1, [r4, #12]
 4167 019c 2068     		ldr	r0, [r4]
 4168 019e FFF7FEFF 		bl	smtc_real_is_payload_size_valid
 4169 01a2 384B     		ldr	r3, .L460+32
 4170 01a4 E618     		adds	r6, r4, r3
 4171 01a6 0028     		cmp	r0, #0
 4172 01a8 0DD0     		beq	.L448
 4173 01aa 0022     		movs	r2, #0
 4174 01ac 217B     		ldrb	r1, [r4, #12]
 4175 01ae 2068     		ldr	r0, [r4]
 4176 01b0 675D     		ldrb	r7, [r4, r5]
 4177 01b2 FFF7FEFF 		bl	smtc_real_get_max_payload_size
 4178 01b6 0200     		movs	r2, r0
 4179 01b8 083A     		subs	r2, r2, #8
 4180 01ba 3900     		movs	r1, r7
 4181 01bc 3000     		movs	r0, r6
 4182 01be D2B2     		uxtb	r2, r2
 4183 01c0 FFF7FEFF 		bl	lr1_stack_mac_cmd_ans_cut
 4184 01c4 6055     		strb	r0, [r4, r5]
 4185              	.L448:
 4186 01c6 2300     		movs	r3, r4
 4187 01c8 0122     		movs	r2, #1
 4188 01ca 2000     		movs	r0, r4
 4189 01cc 2E33     		adds	r3, r3, #46
 4190 01ce 1A70     		strb	r2, [r3]
 4191 01d0 3100     		movs	r1, r6
 4192 01d2 625D     		ldrb	r2, [r4, r5]
 4193 01d4 3E30     		adds	r0, r0, #62
 4194 01d6 FFF7FEFF 		bl	memcpy
ARM GAS  /tmp/ccAFBIk9.s 			page 77


 4195 01da 2300     		movs	r3, r4
 4196 01dc 625D     		ldrb	r2, [r4, r5]
 4197 01de 3333     		adds	r3, r3, #51
 4198 01e0 1A70     		strb	r2, [r3]
 4199 01e2 0022     		movs	r2, #0
 4200 01e4 063B     		subs	r3, r3, #6
 4201 01e6 1A70     		strb	r2, [r3]
 4202 01e8 0232     		adds	r2, r2, #2
 4203 01ea 2000     		movs	r0, r4
 4204 01ec 9A70     		strb	r2, [r3, #2]
 4205 01ee FFF7FEFF 		bl	lr1_stack_mac_tx_frame_build
 4206 01f2 2000     		movs	r0, r4
 4207 01f4 FFF7FEFF 		bl	lr1_stack_mac_tx_frame_encrypt
 4208              	.L428:
 4209              		@ sp needed
 4210 01f8 F7BD     		pop	{r0, r1, r2, r4, r5, r6, r7, pc}
 4211              	.L430:
 4212 01fa 2000     		movs	r0, r4
 4213 01fc FFF7FEFF 		bl	lr1_stack_toa_get
 4214 0200 E359     		ldr	r3, [r4, r7]
 4215 0202 D627     		movs	r7, #214
 4216 0204 224A     		ldr	r2, .L460+44
 4217 0206 4019     		adds	r0, r0, r5
 4218 0208 9B18     		adds	r3, r3, r2
 4219 020a BF00     		lsls	r7, r7, #2
 4220 020c 9842     		cmp	r0, r3
 4221 020e 05D2     		bcs	.L432
 4222 0210 2000     		movs	r0, r4
 4223 0212 FFF7FEFF 		bl	lr1_stack_toa_get
 4224 0216 4519     		adds	r5, r0, r5
 4225              	.L458:
 4226 0218 E551     		str	r5, [r4, r7]
 4227 021a 23E7     		b	.L431
 4228              	.L432:
 4229 021c 2000     		movs	r0, r4
 4230 021e FFF7FEFF 		bl	lr1_stack_toa_get
 4231 0222 0A23     		movs	r3, #10
 4232 0224 4343     		muls	r3, r0
 4233 0226 5D19     		adds	r5, r3, r5
 4234 0228 F6E7     		b	.L458
 4235              	.L433:
 4236 022a EC22     		movs	r2, #236
 4237 022c 0320     		movs	r0, #3
 4238 022e 9200     		lsls	r2, r2, #2
 4239 0230 013B     		subs	r3, r3, #1
 4240 0232 A054     		strb	r0, [r4, r2]
 4241 0234 DBB2     		uxtb	r3, r3
 4242 0236 2DE7     		b	.L434
 4243              	.L437:
 4244 0238 0D4B     		ldr	r3, .L460+12
 4245 023a 2200     		movs	r2, r4
 4246 023c E15C     		ldrb	r1, [r4, r3]
 4247 023e 2300     		movs	r3, r4
 4248 0240 0F33     		adds	r3, r3, #15
 4249 0242 0093     		str	r3, [sp]
 4250 0244 0D32     		adds	r2, r2, #13
 4251 0246 013B     		subs	r3, r3, #1
ARM GAS  /tmp/ccAFBIk9.s 			page 78


 4252 0248 4CE7     		b	.L459
 4253              	.L440:
 4254 024a 2100     		movs	r1, r4
 4255 024c 2000     		movs	r0, r4
 4256 024e A623     		movs	r3, #166
 4257 0250 9731     		adds	r1, r1, #151
 4258 0252 FF33     		adds	r3, r3, #255
 4259 0254 A730     		adds	r0, r0, #167
 4260 0256 E254     		strb	r2, [r4, r3]
 4261 0258 FF31     		adds	r1, r1, #255
 4262 025a FF30     		adds	r0, r0, #255
 4263 025c FFF7FEFF 		bl	memcpy
 4264 0260 6FE7     		b	.L441
 4265              	.L461:
 4266 0262 C046     		.align	2
 4267              	.L460:
 4268 0264 46030000 		.word	838
 4269 0268 82030000 		.word	898
 4270 026c 47030000 		.word	839
 4271 0270 4A030000 		.word	842
 4272 0274 00000000 		.word	.LC72
 4273 0278 B3040000 		.word	1203
 4274 027c 00000000 		.word	.LANCHOR13
 4275 0280 3F030000 		.word	831
 4276 0284 DF020000 		.word	735
 4277 0288 49030000 		.word	841
 4278 028c 2A000000 		.word	.LC75
 4279 0290 B09A0000 		.word	39600
 4281              		.section	.text.lr1_stack_nb_trans_get,"ax",%progbits
 4282              		.align	1
 4283              		.global	lr1_stack_nb_trans_get
 4284              		.syntax unified
 4285              		.code	16
 4286              		.thumb_func
 4287              		.fpu softvfp
 4289              	lr1_stack_nb_trans_get:
 4290              		@ args = 0, pretend = 0, frame = 0
 4291              		@ frame_needed = 0, uses_anonymous_args = 0
 4292              		@ link register save eliminated.
 4293 0000 C07B     		ldrb	r0, [r0, #15]
 4294              		@ sp needed
 4295 0002 7047     		bx	lr
 4297              		.section	.text.lr1_stack_nb_trans_set,"ax",%progbits
 4298              		.align	1
 4299              		.global	lr1_stack_nb_trans_set
 4300              		.syntax unified
 4301              		.code	16
 4302              		.thumb_func
 4303              		.fpu softvfp
 4305              	lr1_stack_nb_trans_set:
 4306              		@ args = 0, pretend = 0, frame = 0
 4307              		@ frame_needed = 0, uses_anonymous_args = 0
 4308              		@ link register save eliminated.
 4309 0000 064B     		ldr	r3, .L467
 4310 0002 C35C     		ldrb	r3, [r0, r3]
 4311 0004 002B     		cmp	r3, #0
 4312 0006 05D0     		beq	.L466
ARM GAS  /tmp/ccAFBIk9.s 			page 79


 4313 0008 4B1E     		subs	r3, r1, #1
 4314 000a 0E2B     		cmp	r3, #14
 4315 000c 02D8     		bhi	.L466
 4316 000e C173     		strb	r1, [r0, #15]
 4317 0010 0020     		movs	r0, #0
 4318              	.L464:
 4319              		@ sp needed
 4320 0012 7047     		bx	lr
 4321              	.L466:
 4322 0014 0120     		movs	r0, #1
 4323 0016 4042     		rsbs	r0, r0, #0
 4324 0018 FBE7     		b	.L464
 4325              	.L468:
 4326 001a C046     		.align	2
 4327              	.L467:
 4328 001c 4A030000 		.word	842
 4330              		.section	.text.lr1_stack_get_crystal_error,"ax",%progbits
 4331              		.align	1
 4332              		.global	lr1_stack_get_crystal_error
 4333              		.syntax unified
 4334              		.code	16
 4335              		.thumb_func
 4336              		.fpu softvfp
 4338              	lr1_stack_get_crystal_error:
 4339              		@ args = 0, pretend = 0, frame = 0
 4340              		@ frame_needed = 0, uses_anonymous_args = 0
 4341              		@ link register save eliminated.
 4342 0000 EF23     		movs	r3, #239
 4343              		@ sp needed
 4344 0002 9B00     		lsls	r3, r3, #2
 4345 0004 C058     		ldr	r0, [r0, r3]
 4346 0006 7047     		bx	lr
 4348              		.section	.text.lr1_stack_set_crystal_error,"ax",%progbits
 4349              		.align	1
 4350              		.global	lr1_stack_set_crystal_error
 4351              		.syntax unified
 4352              		.code	16
 4353              		.thumb_func
 4354              		.fpu softvfp
 4356              	lr1_stack_set_crystal_error:
 4357              		@ args = 0, pretend = 0, frame = 0
 4358              		@ frame_needed = 0, uses_anonymous_args = 0
 4359              		@ link register save eliminated.
 4360 0000 EF23     		movs	r3, #239
 4361              		@ sp needed
 4362 0002 9B00     		lsls	r3, r3, #2
 4363 0004 C150     		str	r1, [r0, r3]
 4364 0006 7047     		bx	lr
 4366              		.section	.text.lr1_stack_mac_tx_ack_bit_set,"ax",%progbits
 4367              		.align	1
 4368              		.global	lr1_stack_mac_tx_ack_bit_set
 4369              		.syntax unified
 4370              		.code	16
 4371              		.thumb_func
 4372              		.fpu softvfp
 4374              	lr1_stack_mac_tx_ack_bit_set:
 4375              		@ args = 0, pretend = 0, frame = 0
ARM GAS  /tmp/ccAFBIk9.s 			page 80


 4376              		@ frame_needed = 0, uses_anonymous_args = 0
 4377              		@ link register save eliminated.
 4378 0000 014B     		ldr	r3, .L472
 4379              		@ sp needed
 4380 0002 C154     		strb	r1, [r0, r3]
 4381 0004 7047     		bx	lr
 4382              	.L473:
 4383 0006 C046     		.align	2
 4384              	.L472:
 4385 0008 FE040000 		.word	1278
 4387              		.section	.text.lr1_stack_mac_tx_ack_bit_get,"ax",%progbits
 4388              		.align	1
 4389              		.global	lr1_stack_mac_tx_ack_bit_get
 4390              		.syntax unified
 4391              		.code	16
 4392              		.thumb_func
 4393              		.fpu softvfp
 4395              	lr1_stack_mac_tx_ack_bit_get:
 4396              		@ args = 0, pretend = 0, frame = 0
 4397              		@ frame_needed = 0, uses_anonymous_args = 0
 4398              		@ link register save eliminated.
 4399 0000 014B     		ldr	r3, .L475
 4400              		@ sp needed
 4401 0002 C05C     		ldrb	r0, [r0, r3]
 4402 0004 7047     		bx	lr
 4403              	.L476:
 4404 0006 C046     		.align	2
 4405              	.L475:
 4406 0008 FE040000 		.word	1278
 4408              		.section	.text.lr1mac_rx_payload_max_size_check,"ax",%progbits
 4409              		.align	1
 4410              		.global	lr1mac_rx_payload_max_size_check
 4411              		.syntax unified
 4412              		.code	16
 4413              		.thumb_func
 4414              		.fpu softvfp
 4416              	lr1mac_rx_payload_max_size_check:
 4417              		@ args = 0, pretend = 0, frame = 0
 4418              		@ frame_needed = 0, uses_anonymous_args = 0
 4419 0000 10B5     		push	{r4, lr}
 4420 0002 0068     		ldr	r0, [r0]
 4421 0004 0C00     		movs	r4, r1
 4422              		@ sp needed
 4423 0006 1100     		movs	r1, r2
 4424 0008 0122     		movs	r2, #1
 4425 000a FFF7FEFF 		bl	smtc_real_get_max_payload_size
 4426 000e 0530     		adds	r0, r0, #5
 4427 0010 C0B2     		uxtb	r0, r0
 4428 0012 A042     		cmp	r0, r4
 4429 0014 8041     		sbcs	r0, r0, r0
 4430 0016 10BD     		pop	{r4, pc}
 4432              		.section	.rodata.lr1_stack_mac_rx_frame_decode.str1.1,"aMS",%progbits,1
 4433              	.LC77:
 4434 0000 52782057 		.ascii	"Rx Window invalid\012\000"
 4434      696E646F 
 4434      7720696E 
 4434      76616C69 
ARM GAS  /tmp/ccAFBIk9.s 			page 81


 4434      640A00
 4435              	.LC80:
 4436 0013 43727970 		.ascii	"Crypto error during payload decryption\012\000"
 4436      746F2065 
 4436      72726F72 
 4436      20647572 
 4436      696E6720 
 4437              		.section	.text.lr1_stack_mac_rx_frame_decode,"ax",%progbits
 4438              		.align	1
 4439              		.global	lr1_stack_mac_rx_frame_decode
 4440              		.syntax unified
 4441              		.code	16
 4442              		.thumb_func
 4443              		.fpu softvfp
 4445              	lr1_stack_mac_rx_frame_decode:
 4446              		@ args = 0, pretend = 0, frame = 24
 4447              		@ frame_needed = 0, uses_anonymous_args = 0
 4448 0000 F0B5     		push	{r4, r5, r6, r7, lr}
 4449 0002 0023     		movs	r3, #0
 4450 0004 FB26     		movs	r6, #251
 4451 0006 8DB0     		sub	sp, sp, #52
 4452 0008 0B93     		str	r3, [sp, #44]
 4453 000a B600     		lsls	r6, r6, #2
 4454 000c 0400     		movs	r4, r0
 4455 000e 805D     		ldrb	r0, [r0, r6]
 4456 0010 FFF7FEFF 		bl	lr1mac_rx_payload_min_size_check
 4457 0014 DB23     		movs	r3, #219
 4458 0016 9B00     		lsls	r3, r3, #2
 4459 0018 0500     		movs	r5, r0
 4460 001a E25C     		ldrb	r2, [r4, r3]
 4461 001c 2000     		movs	r0, r4
 4462 001e A15D     		ldrb	r1, [r4, r6]
 4463 0020 FFF7FEFF 		bl	lr1mac_rx_payload_max_size_check
 4464 0024 2D18     		adds	r5, r5, r0
 4465 0026 002D     		cmp	r5, #0
 4466 0028 03D0     		beq	.L479
 4467              	.L486:
 4468 002a 0025     		movs	r5, #0
 4469              	.L509:
 4470 002c 2800     		movs	r0, r5
 4471 002e 0DB0     		add	sp, sp, #52
 4472              		@ sp needed
 4473 0030 F0BD     		pop	{r4, r5, r6, r7, pc}
 4474              	.L479:
 4475 0032 1B27     		movs	r7, #27
 4476 0034 974B     		ldr	r3, .L512
 4477 0036 02AA     		add	r2, sp, #8
 4478 0038 E318     		adds	r3, r4, r3
 4479 003a 0793     		str	r3, [sp, #28]
 4480 003c 02AB     		add	r3, sp, #8
 4481 003e FF18     		adds	r7, r7, r3
 4482 0040 1D23     		movs	r3, #29
 4483 0042 3900     		movs	r1, r7
 4484 0044 9B18     		adds	r3, r3, r2
 4485 0046 0798     		ldr	r0, [sp, #28]
 4486 0048 09AA     		add	r2, sp, #36
 4487 004a FFF7FEFF 		bl	lr1mac_rx_mhdr_extract
ARM GAS  /tmp/ccAFBIk9.s 			page 82


 4488 004e 051E     		subs	r5, r0, #0
 4489 0050 EBD1     		bne	.L486
 4490 0052 3B78     		ldrb	r3, [r7]
 4491 0054 A15D     		ldrb	r1, [r4, r6]
 4492 0056 012B     		cmp	r3, #1
 4493 0058 38D1     		bne	.L482
 4494 005a 8F4B     		ldr	r3, .L512+4
 4495 005c 079A     		ldr	r2, [sp, #28]
 4496 005e E35C     		ldrb	r3, [r4, r3]
 4497 0060 1000     		movs	r0, r2
 4498 0062 89B2     		uxth	r1, r1
 4499 0064 FFF7FEFF 		bl	smtc_modem_crypto_process_join_accept
 4500 0068 0028     		cmp	r0, #0
 4501 006a 0BD1     		bne	.L483
 4502 006c D523     		movs	r3, #213
 4503 006e 9B00     		lsls	r3, r3, #2
 4504 0070 E550     		str	r5, [r4, r3]
 4505 0072 FFF7FEFF 		bl	smtc_modem_hal_get_time_in_s
 4506 0076 D423     		movs	r3, #212
 4507 0078 9B00     		lsls	r3, r3, #2
 4508 007a E050     		str	r0, [r4, r3]
 4509 007c A35D     		ldrb	r3, [r4, r6]
 4510 007e 0435     		adds	r5, r5, #4
 4511 0080 043B     		subs	r3, r3, #4
 4512 0082 A355     		strb	r3, [r4, r6]
 4513              	.L483:
 4514 0084 1B23     		movs	r3, #27
 4515 0086 02AA     		add	r2, sp, #8
 4516 0088 9B18     		adds	r3, r3, r2
 4517 008a 1A78     		ldrb	r2, [r3]
 4518 008c B623     		movs	r3, #182
 4519 008e FF33     		adds	r3, r3, #255
 4520 0090 E254     		strb	r2, [r4, r3]
 4521 0092 09AB     		add	r3, sp, #36
 4522 0094 1A78     		ldrb	r2, [r3]
 4523 0096 DB23     		movs	r3, #219
 4524 0098 5B00     		lsls	r3, r3, #1
 4525 009a E254     		strb	r2, [r4, r3]
 4526 009c 02AB     		add	r3, sp, #8
 4527 009e 5A7F     		ldrb	r2, [r3, #29]
 4528 00a0 7E4B     		ldr	r3, .L512+8
 4529 00a2 0026     		movs	r6, #0
 4530 00a4 E254     		strb	r2, [r4, r3]
 4531 00a6 0B9B     		ldr	r3, [sp, #44]
 4532 00a8 6362     		str	r3, [r4, #36]
 4533 00aa D023     		movs	r3, #208
 4534 00ac 9B00     		lsls	r3, r3, #2
 4535 00ae E650     		str	r6, [r4, r3]
 4536 00b0 1433     		adds	r3, r3, #20
 4537 00b2 E650     		str	r6, [r4, r3]
 4538 00b4 FFF7FEFF 		bl	smtc_modem_hal_get_time_in_s
 4539 00b8 D423     		movs	r3, #212
 4540 00ba 9B00     		lsls	r3, r3, #2
 4541 00bc E050     		str	r0, [r4, r3]
 4542 00be A623     		movs	r3, #166
 4543 00c0 FF33     		adds	r3, r3, #255
 4544 00c2 E654     		strb	r6, [r4, r3]
ARM GAS  /tmp/ccAFBIk9.s 			page 83


 4545 00c4 9623     		movs	r3, #150
 4546 00c6 FF33     		adds	r3, r3, #255
 4547 00c8 E654     		strb	r6, [r4, r3]
 4548 00ca AFE7     		b	.L509
 4549              	.L482:
 4550 00cc 02AB     		add	r3, sp, #8
 4551 00ce D883     		strh	r0, [r3, #30]
 4552 00d0 636A     		ldr	r3, [r4, #36]
 4553 00d2 02AA     		add	r2, sp, #8
 4554 00d4 0B93     		str	r3, [sp, #44]
 4555 00d6 2300     		movs	r3, r4
 4556 00d8 B833     		adds	r3, r3, #184
 4557 00da FF33     		adds	r3, r3, #255
 4558 00dc 0393     		str	r3, [sp, #12]
 4559 00de 704B     		ldr	r3, .L512+12
 4560 00e0 2700     		movs	r7, r4
 4561 00e2 E318     		adds	r3, r4, r3
 4562 00e4 0293     		str	r3, [sp, #8]
 4563 00e6 6F4B     		ldr	r3, .L512+16
 4564 00e8 BA37     		adds	r7, r7, #186
 4565 00ea E318     		adds	r3, r4, r3
 4566 00ec 0193     		str	r3, [sp, #4]
 4567 00ee A36A     		ldr	r3, [r4, #40]
 4568 00f0 FF37     		adds	r7, r7, #255
 4569 00f2 0093     		str	r3, [sp]
 4570 00f4 1E23     		movs	r3, #30
 4571 00f6 9B18     		adds	r3, r3, r2
 4572 00f8 2200     		movs	r2, r4
 4573 00fa B932     		adds	r2, r2, #185
 4574 00fc 0798     		ldr	r0, [sp, #28]
 4575 00fe 0497     		str	r7, [sp, #16]
 4576 0100 FF32     		adds	r2, r2, #255
 4577 0102 FFF7FEFF 		bl	lr1mac_rx_fhdr_extract
 4578 0106 0028     		cmp	r0, #0
 4579 0108 00D0     		beq	.LCB4853
 4580 010a 8EE7     		b	.L486	@long jump
 4581              	.LCB4853:
 4582 010c 02AB     		add	r3, sp, #8
 4583 010e D88B     		ldrh	r0, [r3, #30]
 4584 0110 0BA9     		add	r1, sp, #44
 4585 0112 FFF7FEFF 		bl	lr1mac_fcnt_dwn_accept
 4586 0116 0028     		cmp	r0, #0
 4587 0118 00D0     		beq	.LCB4860
 4588 011a 86E7     		b	.L486	@long jump
 4589              	.LCB4860:
 4590 011c 0125     		movs	r5, #1
 4591 011e A15D     		ldrb	r1, [r4, r6]
 4592 0120 5C4B     		ldr	r3, .L512
 4593 0122 0439     		subs	r1, r1, #4
 4594 0124 C9B2     		uxtb	r1, r1
 4595 0126 A155     		strb	r1, [r4, r6]
 4596 0128 C918     		adds	r1, r1, r3
 4597 012a 0422     		movs	r2, #4
 4598 012c 6118     		adds	r1, r4, r1
 4599 012e 0AA8     		add	r0, sp, #40
 4600 0130 FFF7FEFF 		bl	memcpy
 4601 0134 584B     		ldr	r3, .L512+4
ARM GAS  /tmp/ccAFBIk9.s 			page 84


 4602 0136 0622     		movs	r2, #6
 4603 0138 E35C     		ldrb	r3, [r4, r3]
 4604 013a A15D     		ldrb	r1, [r4, r6]
 4605 013c 0393     		str	r3, [sp, #12]
 4606 013e 0A9B     		ldr	r3, [sp, #40]
 4607 0140 0798     		ldr	r0, [sp, #28]
 4608 0142 0293     		str	r3, [sp, #8]
 4609 0144 0B9B     		ldr	r3, [sp, #44]
 4610 0146 0095     		str	r5, [sp]
 4611 0148 0193     		str	r3, [sp, #4]
 4612 014a A36A     		ldr	r3, [r4, #40]
 4613 014c FFF7FEFF 		bl	smtc_modem_crypto_verify_mic
 4614 0150 0028     		cmp	r0, #0
 4615 0152 00D0     		beq	.LCB4891
 4616 0154 69E7     		b	.L486	@long jump
 4617              	.LCB4891:
 4618 0156 B823     		movs	r3, #184
 4619 0158 2574     		strb	r5, [r4, #16]
 4620 015a FF33     		adds	r3, r3, #255
 4621 015c E35C     		ldrb	r3, [r4, r3]
 4622 015e 5A09     		lsrs	r2, r3, #5
 4623 0160 2A42     		tst	r2, r5
 4624 0162 06D0     		beq	.L487
 4625 0164 2200     		movs	r2, r4
 4626 0166 2F32     		adds	r2, r2, #47
 4627 0168 1278     		ldrb	r2, [r2]
 4628 016a 042A     		cmp	r2, #4
 4629 016c 01D1     		bne	.L487
 4630 016e 4E4A     		ldr	r2, .L512+20
 4631 0170 A554     		strb	r5, [r4, r2]
 4632              	.L487:
 4633 0172 4E4A     		ldr	r2, .L512+24
 4634 0174 DB06     		lsls	r3, r3, #27
 4635 0176 DB0F     		lsrs	r3, r3, #31
 4636 0178 A354     		strb	r3, [r4, r2]
 4637 017a 4D4B     		ldr	r3, .L512+28
 4638 017c E35C     		ldrb	r3, [r4, r3]
 4639 017e 002B     		cmp	r3, #0
 4640 0180 46D1     		bne	.L488
 4641 0182 DA23     		movs	r3, #218
 4642 0184 9B00     		lsls	r3, r3, #2
 4643 0186 E258     		ldr	r2, [r4, r3]
 4644 0188 9133     		adds	r3, r3, #145
 4645 018a FF33     		adds	r3, r3, #255
 4646              	.L510:
 4647 018c E250     		str	r2, [r4, r3]
 4648              	.L489:
 4649 018e DB23     		movs	r3, #219
 4650 0190 DC26     		movs	r6, #220
 4651 0192 9B00     		lsls	r3, r3, #2
 4652 0194 E25C     		ldrb	r2, [r4, r3]
 4653 0196 474B     		ldr	r3, .L512+32
 4654 0198 7600     		lsls	r6, r6, #1
 4655 019a E254     		strb	r2, [r4, r3]
 4656 019c 404B     		ldr	r3, .L512+12
 4657 019e A55D     		ldrb	r5, [r4, r6]
 4658 01a0 E35C     		ldrb	r3, [r4, r3]
ARM GAS  /tmp/ccAFBIk9.s 			page 85


 4659 01a2 002B     		cmp	r3, #0
 4660 01a4 6BD0     		beq	.L491
 4661 01a6 FB26     		movs	r6, #251
 4662 01a8 B600     		lsls	r6, r6, #2
 4663 01aa A15D     		ldrb	r1, [r4, r6]
 4664 01ac 3D4B     		ldr	r3, .L512+16
 4665 01ae 0939     		subs	r1, r1, #9
 4666 01b0 491B     		subs	r1, r1, r5
 4667 01b2 C9B2     		uxtb	r1, r1
 4668 01b4 A155     		strb	r1, [r4, r6]
 4669 01b6 E35C     		ldrb	r3, [r4, r3]
 4670 01b8 002B     		cmp	r3, #0
 4671 01ba 36D1     		bne	.L492
 4672 01bc 002D     		cmp	r5, #0
 4673 01be 00D0     		beq	.LCB4953
 4674 01c0 33E7     		b	.L486	@long jump
 4675              	.LCB4953:
 4676 01c2 354B     		ldr	r3, .L512+4
 4677 01c4 2700     		movs	r7, r4
 4678 01c6 E35C     		ldrb	r3, [r4, r3]
 4679 01c8 3B48     		ldr	r0, .L512+36
 4680 01ca 0393     		str	r3, [sp, #12]
 4681 01cc 0B9B     		ldr	r3, [sp, #44]
 4682 01ce ED37     		adds	r7, r7, #237
 4683 01d0 0193     		str	r3, [sp, #4]
 4684 01d2 0123     		movs	r3, #1
 4685 01d4 FF37     		adds	r7, r7, #255
 4686 01d6 0093     		str	r3, [sp]
 4687 01d8 0622     		movs	r2, #6
 4688 01da A36A     		ldr	r3, [r4, #40]
 4689 01dc 89B2     		uxth	r1, r1
 4690 01de 0297     		str	r7, [sp, #8]
 4691 01e0 2018     		adds	r0, r4, r0
 4692 01e2 FFF7FEFF 		bl	smtc_modem_crypto_payload_decrypt
 4693 01e6 0028     		cmp	r0, #0
 4694 01e8 04D0     		beq	.L493
 4695 01ea 3100     		movs	r1, r6
 4696 01ec 334A     		ldr	r2, .L512+40
 4697 01ee 3448     		ldr	r0, .L512+44
 4698 01f0 FFF7FEFF 		bl	smtc_modem_hal_on_panic
 4699              	.L493:
 4700 01f4 FB23     		movs	r3, #251
 4701 01f6 9B00     		lsls	r3, r3, #2
 4702 01f8 E25C     		ldrb	r2, [r4, r3]
 4703 01fa F22A     		cmp	r2, #242
 4704 01fc 00D9     		bls	.LCB4985
 4705 01fe 41E7     		b	.L483	@long jump
 4706              	.LCB4985:
 4707 0200 304B     		ldr	r3, .L512+48
 4708 0202 3900     		movs	r1, r7
 4709 0204 0798     		ldr	r0, [sp, #28]
 4710 0206 E254     		strb	r2, [r4, r3]
 4711 0208 FFF7FEFF 		bl	memcpy
 4712 020c 0325     		movs	r5, #3
 4713 020e 39E7     		b	.L483
 4714              	.L488:
 4715 0210 012B     		cmp	r3, #1
ARM GAS  /tmp/ccAFBIk9.s 			page 86


 4716 0212 03D1     		bne	.L490
 4717 0214 9F23     		movs	r3, #159
 4718 0216 6269     		ldr	r2, [r4, #20]
 4719 0218 DB00     		lsls	r3, r3, #3
 4720 021a B7E7     		b	.L510
 4721              	.L490:
 4722 021c F521     		movs	r1, #245
 4723 021e 2A4A     		ldr	r2, .L512+52
 4724 0220 2748     		ldr	r0, .L512+44
 4725 0222 8900     		lsls	r1, r1, #2
 4726 0224 FFF7FEFF 		bl	smtc_modem_hal_on_panic
 4727 0228 B1E7     		b	.L489
 4728              	.L492:
 4729 022a 234B     		ldr	r3, .L512+36
 4730 022c 0722     		movs	r2, #7
 4731 022e E818     		adds	r0, r5, r3
 4732 0230 194B     		ldr	r3, .L512+4
 4733 0232 89B2     		uxth	r1, r1
 4734 0234 E35C     		ldrb	r3, [r4, r3]
 4735 0236 2018     		adds	r0, r4, r0
 4736 0238 0393     		str	r3, [sp, #12]
 4737 023a 079B     		ldr	r3, [sp, #28]
 4738 023c 0293     		str	r3, [sp, #8]
 4739 023e 0B9B     		ldr	r3, [sp, #44]
 4740 0240 0193     		str	r3, [sp, #4]
 4741 0242 0123     		movs	r3, #1
 4742 0244 0093     		str	r3, [sp]
 4743 0246 A36A     		ldr	r3, [r4, #40]
 4744 0248 FFF7FEFF 		bl	smtc_modem_crypto_payload_decrypt
 4745 024c 0028     		cmp	r0, #0
 4746 024e 04D0     		beq	.L495
 4747 0250 1A4A     		ldr	r2, .L512+40
 4748 0252 1E49     		ldr	r1, .L512+56
 4749 0254 1A48     		ldr	r0, .L512+44
 4750 0256 FFF7FEFF 		bl	smtc_modem_hal_on_panic
 4751              	.L495:
 4752 025a DC25     		movs	r5, #220
 4753 025c 6D00     		lsls	r5, r5, #1
 4754 025e 625D     		ldrb	r2, [r4, r5]
 4755 0260 002A     		cmp	r2, #0
 4756 0262 01D1     		bne	.L496
 4757              	.L497:
 4758 0264 0125     		movs	r5, #1
 4759 0266 0DE7     		b	.L483
 4760              	.L496:
 4761 0268 2000     		movs	r0, r4
 4762 026a ED30     		adds	r0, r0, #237
 4763 026c 3900     		movs	r1, r7
 4764 026e FF30     		adds	r0, r0, #255
 4765 0270 FFF7FEFF 		bl	memcpy
 4766 0274 625D     		ldrb	r2, [r4, r5]
 4767              	.L511:
 4768 0276 134B     		ldr	r3, .L512+48
 4769 0278 0225     		movs	r5, #2
 4770 027a E254     		strb	r2, [r4, r3]
 4771 027c 02E7     		b	.L483
 4772              	.L491:
ARM GAS  /tmp/ccAFBIk9.s 			page 87


 4773 027e 002D     		cmp	r5, #0
 4774 0280 F0D0     		beq	.L497
 4775 0282 2000     		movs	r0, r4
 4776 0284 ED30     		adds	r0, r0, #237
 4777 0286 2A00     		movs	r2, r5
 4778 0288 3900     		movs	r1, r7
 4779 028a FF30     		adds	r0, r0, #255
 4780 028c FFF7FEFF 		bl	memcpy
 4781 0290 A25D     		ldrb	r2, [r4, r6]
 4782 0292 F0E7     		b	.L511
 4783              	.L513:
 4784              		.align	2
 4785              	.L512:
 4786 0294 ED030000 		.word	1005
 4787 0298 04050000 		.word	1284
 4788 029c FE040000 		.word	1278
 4789 02a0 F5040000 		.word	1269
 4790 02a4 F4040000 		.word	1268
 4791 02a8 FD040000 		.word	1277
 4792 02ac F7040000 		.word	1271
 4793 02b0 6D030000 		.word	877
 4794 02b4 FC040000 		.word	1276
 4795 02b8 F6030000 		.word	1014
 4796 02bc 13000000 		.word	.LC80
 4797 02c0 00000000 		.word	.LANCHOR14
 4798 02c4 DE020000 		.word	734
 4799 02c8 00000000 		.word	.LC77
 4800 02cc 0A040000 		.word	1034
 4802              		.section	.rodata.__func__.0,"a"
 4803              		.set	.LANCHOR12,. + 0
 4806              	__func__.0:
 4807 0000 6C72315F 		.ascii	"lr1_stack_toa_get\000"
 4807      73746163 
 4807      6B5F746F 
 4807      615F6765 
 4807      7400
 4808              		.section	.rodata.__func__.1,"a"
 4809              		.set	.LANCHOR11,. + 0
 4812              	__func__.1:
 4813 0000 6C72315F 		.ascii	"lr1_stack_mac_join_request_build\000"
 4813      73746163 
 4813      6B5F6D61 
 4813      635F6A6F 
 4813      696E5F72 
 4814              		.section	.rodata.__func__.10,"a"
 4815              		.set	.LANCHOR3,. + 0
 4818              	__func__.10:
 4819 0000 6C72315F 		.ascii	"lr1_stack_mac_tx_lr_fhss_launch_callback_for_rp\000"
 4819      73746163 
 4819      6B5F6D61 
 4819      635F7478 
 4819      5F6C725F 
 4820              		.section	.rodata.__func__.11,"a"
 4821              		.set	.LANCHOR4,. + 0
 4824              	__func__.11:
 4825 0000 6C72315F 		.ascii	"lr1_stack_mac_tx_gfsk_launch_callback_for_rp\000"
 4825      73746163 
ARM GAS  /tmp/ccAFBIk9.s 			page 88


 4825      6B5F6D61 
 4825      635F7478 
 4825      5F676673 
 4826              		.section	.rodata.__func__.12,"a"
 4827              		.set	.LANCHOR0,. + 0
 4830              	__func__.12:
 4831 0000 6C72315F 		.ascii	"lr1_stack_mac_tx_lora_launch_callback_for_rp\000"
 4831      73746163 
 4831      6B5F6D61 
 4831      635F7478 
 4831      5F6C6F72 
 4832              		.section	.rodata.__func__.13,"a"
 4833              		.set	.LANCHOR5,. + 0
 4836              	__func__.13:
 4837 0000 6C72315F 		.ascii	"lr1_stack_mac_tx_frame_encrypt\000"
 4837      73746163 
 4837      6B5F6D61 
 4837      635F7478 
 4837      5F667261 
 4838              		.section	.rodata.__func__.2,"a"
 4839              		.set	.LANCHOR13,. + 0
 4842              	__func__.2:
 4843 0000 6C72315F 		.ascii	"lr1_stack_mac_update\000"
 4843      73746163 
 4843      6B5F6D61 
 4843      635F7570 
 4843      64617465 
 4844              		.section	.rodata.__func__.3,"a"
 4845              		.set	.LANCHOR14,. + 0
 4848              	__func__.3:
 4849 0000 6C72315F 		.ascii	"lr1_stack_mac_rx_frame_decode\000"
 4849      73746163 
 4849      6B5F6D61 
 4849      635F7278 
 4849      5F667261 
 4850              		.section	.rodata.__func__.4,"a"
 4851              		.set	.LANCHOR9,. + 0
 4854              	__func__.4:
 4855 0000 6C72315F 		.ascii	"lr1_stack_mac_rx_timer_configure\000"
 4855      73746163 
 4855      6B5F6D61 
 4855      635F7278 
 4855      5F74696D 
 4856              		.section	.rodata.__func__.5,"a"
 4857              		.set	.LANCHOR8,. + 0
 4860              	__func__.5:
 4861 0000 6C72315F 		.ascii	"lr1_stack_mac_rp_callback\000"
 4861      73746163 
 4861      6B5F6D61 
 4861      635F7270 
 4861      5F63616C 
 4862              		.section	.rodata.__func__.6,"a"
 4863              		.set	.LANCHOR7,. + 0
 4866              	__func__.6:
 4867 0000 6C72315F 		.ascii	"lr1_stack_mac_rx_radio_start\000"
 4867      73746163 
 4867      6B5F6D61 
ARM GAS  /tmp/ccAFBIk9.s 			page 89


 4867      635F7278 
 4867      5F726164 
 4868              		.section	.rodata.__func__.7,"a"
 4869              		.set	.LANCHOR6,. + 0
 4872              	__func__.7:
 4873 0000 6C72315F 		.ascii	"lr1_stack_mac_tx_radio_start\000"
 4873      73746163 
 4873      6B5F6D61 
 4873      635F7478 
 4873      5F726164 
 4874              		.section	.rodata.__func__.8,"a"
 4875              		.set	.LANCHOR2,. + 0
 4878              	__func__.8:
 4879 0000 6C72315F 		.ascii	"lr1_stack_mac_rx_gfsk_launch_callback_for_rp\000"
 4879      73746163 
 4879      6B5F6D61 
 4879      635F7278 
 4879      5F676673 
 4880              		.section	.rodata.__func__.9,"a"
 4881              		.set	.LANCHOR1,. + 0
 4884              	__func__.9:
 4885 0000 6C72315F 		.ascii	"lr1_stack_mac_rx_lora_launch_callback_for_rp\000"
 4885      73746163 
 4885      6B5F6D61 
 4885      635F7278 
 4885      5F6C6F72 
 4886              		.section	.rodata.smtc_real_max_eirp_dbm_from_idx,"a"
 4887              		.align	2
 4888              		.set	.LANCHOR10,. + 0
 4891              	smtc_real_max_eirp_dbm_from_idx:
 4892 0000 080A0C0D 		.ascii	"\010\012\014\015\016\020\022\024\025\030\032\033\035"
 4892      0E101214 
 4892      15181A1B 
 4892      1D
 4893 000d 1E2124   		.ascii	"\036!$"
 4894              		.ident	"GCC: (15:10.3-2021.07-4) 10.3.1 20210621 (release)"
ARM GAS  /tmp/ccAFBIk9.s 			page 90

