ARM GAS  /tmp/ccozgaod.s 			page 1


   1              		.cpu cortex-m0plus
   2              		.eabi_attribute 23, 1
   3              		.eabi_attribute 24, 1
   4              		.eabi_attribute 25, 1
   5              		.eabi_attribute 26, 1
   6              		.eabi_attribute 30, 4
   7              		.eabi_attribute 34, 0
   8              		.eabi_attribute 18, 4
   9              		.file	"soft_se.c"
  10              		.text
  11              		.section	.text.compute_cmac,"ax",%progbits
  12              		.align	1
  13              		.arch armv6s-m
  14              		.syntax unified
  15              		.code	16
  16              		.thumb_func
  17              		.fpu softvfp
  19              	compute_cmac:
  20              		@ args = 8, pretend = 0, frame = 304
  21              		@ frame_needed = 0, uses_anonymous_args = 0
  22 0000 F0B5     		push	{r4, r5, r6, r7, lr}
  23 0002 CDB0     		sub	sp, sp, #308
  24 0004 0193     		str	r3, [sp, #4]
  25 0006 52AB     		add	r3, sp, #328
  26 0008 40CB     		ldmia	r3!, {r6}
  27 000a 0500     		movs	r5, r0
  28 000c 0C00     		movs	r4, r1
  29 000e 0220     		movs	r0, #2
  30 0010 1F78     		ldrb	r7, [r3]
  31 0012 0092     		str	r2, [sp]
  32 0014 0029     		cmp	r1, #0
  33 0016 2BD0     		beq	.L2
  34 0018 002E     		cmp	r6, #0
  35 001a 29D0     		beq	.L2
  36 001c 06A8     		add	r0, sp, #24
  37 001e FFF7FEFF 		bl	AES_CMAC_Init
  38 0022 E721     		movs	r1, #231
  39 0024 164B     		ldr	r3, .L10
  40 0026 0022     		movs	r2, #0
  41 0028 9C46     		mov	ip, r3
  42 002a 4900     		lsls	r1, r1, #1
  43 002c 4F43     		muls	r7, r1
  44 002e F918     		adds	r1, r7, r3
  45              	.L6:
  46 0030 087D     		ldrb	r0, [r1, #20]
  47 0032 019B     		ldr	r3, [sp, #4]
  48 0034 9842     		cmp	r0, r3
  49 0036 16D1     		bne	.L3
  50 0038 1121     		movs	r1, #17
  51 003a 5143     		muls	r1, r2
  52 003c C919     		adds	r1, r1, r7
  53 003e 1531     		adds	r1, r1, #21
  54 0040 6144     		add	r1, r1, ip
  55 0042 06A8     		add	r0, sp, #24
  56 0044 FFF7FEFF 		bl	AES_CMAC_SetKey
  57 0048 002D     		cmp	r5, #0
  58 004a 13D1     		bne	.L4
ARM GAS  /tmp/ccozgaod.s 			page 2


  59              	.L5:
  60 004c 2100     		movs	r1, r4
  61 004e 009A     		ldr	r2, [sp]
  62 0050 06A8     		add	r0, sp, #24
  63 0052 FFF7FEFF 		bl	AES_CMAC_Update
  64 0056 02A8     		add	r0, sp, #8
  65 0058 06A9     		add	r1, sp, #24
  66 005a FFF7FEFF 		bl	AES_CMAC_Final
  67 005e 029B     		ldr	r3, [sp, #8]
  68 0060 0020     		movs	r0, #0
  69 0062 3360     		str	r3, [r6]
  70 0064 04E0     		b	.L2
  71              	.L3:
  72 0066 0132     		adds	r2, r2, #1
  73 0068 1131     		adds	r1, r1, #17
  74 006a 1A2A     		cmp	r2, #26
  75 006c E0D1     		bne	.L6
  76 006e 0320     		movs	r0, #3
  77              	.L2:
  78 0070 4DB0     		add	sp, sp, #308
  79              		@ sp needed
  80 0072 F0BD     		pop	{r4, r5, r6, r7, pc}
  81              	.L4:
  82 0074 1022     		movs	r2, #16
  83 0076 2900     		movs	r1, r5
  84 0078 06A8     		add	r0, sp, #24
  85 007a FFF7FEFF 		bl	AES_CMAC_Update
  86 007e E5E7     		b	.L5
  87              	.L11:
  88              		.align	2
  89              	.L10:
  90 0080 00000000 		.word	soft_se_data
  92              		.section	.text.smtc_secure_element_init,"ax",%progbits
  93              		.align	1
  94              		.global	smtc_secure_element_init
  95              		.syntax unified
  96              		.code	16
  97              		.thumb_func
  98              		.fpu softvfp
 100              	smtc_secure_element_init:
 101              		@ args = 0, pretend = 0, frame = 464
 102              		@ frame_needed = 0, uses_anonymous_args = 0
 103 0000 10B5     		push	{r4, lr}
 104 0002 E724     		movs	r4, #231
 105 0004 F4B0     		sub	sp, sp, #464
 106 0006 6400     		lsls	r4, r4, #1
 107 0008 2200     		movs	r2, r4
 108 000a 6846     		mov	r0, sp
 109 000c 0549     		ldr	r1, .L13
 110 000e FFF7FEFF 		bl	memcpy
 111 0012 2200     		movs	r2, r4
 112 0014 6946     		mov	r1, sp
 113 0016 0448     		ldr	r0, .L13+4
 114 0018 FFF7FEFF 		bl	memcpy
 115 001c 0020     		movs	r0, #0
 116 001e 74B0     		add	sp, sp, #464
 117              		@ sp needed
ARM GAS  /tmp/ccozgaod.s 			page 3


 118 0020 10BD     		pop	{r4, pc}
 119              	.L14:
 120 0022 C046     		.align	2
 121              	.L13:
 122 0024 00000000 		.word	.LC0
 123 0028 00000000 		.word	soft_se_data
 125              		.section	.text.smtc_secure_element_compute_aes_cmac,"ax",%progbits
 126              		.align	1
 127              		.global	smtc_secure_element_compute_aes_cmac
 128              		.syntax unified
 129              		.code	16
 130              		.thumb_func
 131              		.fpu softvfp
 133              	smtc_secure_element_compute_aes_cmac:
 134              		@ args = 8, pretend = 0, frame = 0
 135              		@ frame_needed = 0, uses_anonymous_args = 0
 136 0000 73B5     		push	{r0, r1, r4, r5, r6, lr}
 137 0002 0400     		movs	r4, r0
 138 0004 06A8     		add	r0, sp, #24
 139 0006 20C8     		ldmia	r0!, {r5}
 140 0008 0678     		ldrb	r6, [r0]
 141 000a 0320     		movs	r0, #3
 142 000c 8E2B     		cmp	r3, #142
 143 000e 04D8     		bhi	.L16
 144 0010 2000     		movs	r0, r4
 145 0012 0196     		str	r6, [sp, #4]
 146 0014 0095     		str	r5, [sp]
 147 0016 FFF7FEFF 		bl	compute_cmac
 148              	.L16:
 149              		@ sp needed
 150 001a 76BD     		pop	{r1, r2, r4, r5, r6, pc}
 152              		.section	.text.smtc_secure_element_verify_aes_cmac,"ax",%progbits
 153              		.align	1
 154              		.global	smtc_secure_element_verify_aes_cmac
 155              		.syntax unified
 156              		.code	16
 157              		.thumb_func
 158              		.fpu softvfp
 160              	smtc_secure_element_verify_aes_cmac:
 161              		@ args = 4, pretend = 0, frame = 8
 162              		@ frame_needed = 0, uses_anonymous_args = 0
 163 0000 30B5     		push	{r4, r5, lr}
 164 0002 85B0     		sub	sp, sp, #20
 165 0004 1500     		movs	r5, r2
 166 0006 08AA     		add	r2, sp, #32
 167 0008 0400     		movs	r4, r0
 168 000a 1278     		ldrb	r2, [r2]
 169 000c 0220     		movs	r0, #2
 170 000e 002C     		cmp	r4, #0
 171 0010 0FD0     		beq	.L19
 172 0012 0020     		movs	r0, #0
 173 0014 0192     		str	r2, [sp, #4]
 174 0016 03AA     		add	r2, sp, #12
 175 0018 0092     		str	r2, [sp]
 176 001a 0A00     		movs	r2, r1
 177 001c 2100     		movs	r1, r4
 178 001e 0390     		str	r0, [sp, #12]
ARM GAS  /tmp/ccozgaod.s 			page 4


 179 0020 FFF7FEFF 		bl	compute_cmac
 180 0024 0028     		cmp	r0, #0
 181 0026 04D1     		bne	.L19
 182 0028 039B     		ldr	r3, [sp, #12]
 183 002a 581B     		subs	r0, r3, r5
 184 002c 431E     		subs	r3, r0, #1
 185 002e 9841     		sbcs	r0, r0, r3
 186 0030 C0B2     		uxtb	r0, r0
 187              	.L19:
 188 0032 05B0     		add	sp, sp, #20
 189              		@ sp needed
 190 0034 30BD     		pop	{r4, r5, pc}
 192              		.section	.text.smtc_secure_element_aes_encrypt,"ax",%progbits
 193              		.align	1
 194              		.global	smtc_secure_element_aes_encrypt
 195              		.syntax unified
 196              		.code	16
 197              		.thumb_func
 198              		.fpu softvfp
 200              	smtc_secure_element_aes_encrypt:
 201              		@ args = 4, pretend = 0, frame = 256
 202              		@ frame_needed = 0, uses_anonymous_args = 0
 203 0000 F0B5     		push	{r4, r5, r6, r7, lr}
 204 0002 C1B0     		sub	sp, sp, #260
 205 0004 1F00     		movs	r7, r3
 206 0006 46AB     		add	r3, sp, #280
 207 0008 1B78     		ldrb	r3, [r3]
 208 000a 0600     		movs	r6, r0
 209 000c 0D00     		movs	r5, r1
 210 000e 0220     		movs	r0, #2
 211 0010 0092     		str	r2, [sp]
 212 0012 0193     		str	r3, [sp, #4]
 213 0014 002E     		cmp	r6, #0
 214 0016 2CD0     		beq	.L22
 215 0018 002F     		cmp	r7, #0
 216 001a 2AD0     		beq	.L22
 217 001c 0F23     		movs	r3, #15
 218 001e 0C00     		movs	r4, r1
 219 0020 0330     		adds	r0, r0, #3
 220 0022 1C40     		ands	r4, r3
 221 0024 1942     		tst	r1, r3
 222 0026 24D1     		bne	.L22
 223 0028 F122     		movs	r2, #241
 224 002a 2100     		movs	r1, r4
 225 002c 03A8     		add	r0, sp, #12
 226 002e FFF7FEFF 		bl	memset
 227 0032 E722     		movs	r2, #231
 228 0034 019B     		ldr	r3, [sp, #4]
 229 0036 5200     		lsls	r2, r2, #1
 230 0038 5A43     		muls	r2, r3
 231 003a 134B     		ldr	r3, .L32
 232 003c 9C46     		mov	ip, r3
 233 003e D118     		adds	r1, r2, r3
 234              	.L25:
 235 0040 087D     		ldrb	r0, [r1, #20]
 236 0042 009B     		ldr	r3, [sp]
 237 0044 9842     		cmp	r0, r3
ARM GAS  /tmp/ccozgaod.s 			page 5


 238 0046 0FD1     		bne	.L23
 239 0048 1120     		movs	r0, #17
 240 004a 6043     		muls	r0, r4
 241 004c 8018     		adds	r0, r0, r2
 242 004e 1530     		adds	r0, r0, #21
 243 0050 1021     		movs	r1, #16
 244 0052 6044     		add	r0, r0, ip
 245 0054 03AA     		add	r2, sp, #12
 246 0056 FFF7FEFF 		bl	aes_set_key
 247 005a 2C00     		movs	r4, r5
 248              	.L24:
 249 005c 281B     		subs	r0, r5, r4
 250 005e C0B2     		uxtb	r0, r0
 251 0060 002C     		cmp	r4, #0
 252 0062 08D1     		bne	.L27
 253 0064 2000     		movs	r0, r4
 254 0066 04E0     		b	.L22
 255              	.L23:
 256 0068 0134     		adds	r4, r4, #1
 257 006a 1131     		adds	r1, r1, #17
 258 006c 1A2C     		cmp	r4, #26
 259 006e E7D1     		bne	.L25
 260 0070 0320     		movs	r0, #3
 261              	.L22:
 262 0072 41B0     		add	sp, sp, #260
 263              		@ sp needed
 264 0074 F0BD     		pop	{r4, r5, r6, r7, pc}
 265              	.L27:
 266 0076 3918     		adds	r1, r7, r0
 267 0078 03AA     		add	r2, sp, #12
 268 007a 3018     		adds	r0, r6, r0
 269 007c 103C     		subs	r4, r4, #16
 270 007e FFF7FEFF 		bl	aes_encrypt
 271 0082 A4B2     		uxth	r4, r4
 272 0084 EAE7     		b	.L24
 273              	.L33:
 274 0086 C046     		.align	2
 275              	.L32:
 276 0088 00000000 		.word	soft_se_data
 278              		.section	.text.smtc_secure_element_set_key.part.0,"ax",%progbits
 279              		.align	1
 280              		.syntax unified
 281              		.code	16
 282              		.thumb_func
 283              		.fpu softvfp
 285              	smtc_secure_element_set_key.part.0:
 286              		@ args = 0, pretend = 0, frame = 16
 287              		@ frame_needed = 0, uses_anonymous_args = 0
 288 0000 F0B5     		push	{r4, r5, r6, r7, lr}
 289 0002 1500     		movs	r5, r2
 290 0004 E722     		movs	r2, #231
 291 0006 0300     		movs	r3, r0
 292 0008 0027     		movs	r7, #0
 293 000a 5200     		lsls	r2, r2, #1
 294 000c 6A43     		muls	r2, r5
 295 000e 1C4E     		ldr	r6, .L42
 296 0010 0C00     		movs	r4, r1
ARM GAS  /tmp/ccozgaod.s 			page 6


 297 0012 87B0     		sub	sp, sp, #28
 298 0014 9119     		adds	r1, r2, r6
 299              	.L39:
 300 0016 087D     		ldrb	r0, [r1, #20]
 301 0018 9842     		cmp	r0, r3
 302 001a 2AD1     		bne	.L35
 303 001c 803B     		subs	r3, r3, #128
 304 001e D8B2     		uxtb	r0, r3
 305 0020 0121     		movs	r1, #1
 306 0022 0928     		cmp	r0, #9
 307 0024 02D8     		bhi	.L36
 308 0026 174B     		ldr	r3, .L42+4
 309 0028 C340     		lsrs	r3, r3, r0
 310 002a 9943     		bics	r1, r3
 311              	.L36:
 312 002c 1123     		movs	r3, #17
 313 002e 7B43     		muls	r3, r7
 314 0030 9B18     		adds	r3, r3, r2
 315 0032 1533     		adds	r3, r3, #21
 316 0034 F618     		adds	r6, r6, r3
 317 0036 0029     		cmp	r1, #0
 318 0038 14D1     		bne	.L37
 319 003a 0C22     		movs	r2, #12
 320 003c 03A8     		add	r0, sp, #12
 321 003e 0291     		str	r1, [sp, #8]
 322 0040 FFF7FEFF 		bl	memset
 323 0044 7F22     		movs	r2, #127
 324 0046 1021     		movs	r1, #16
 325 0048 2000     		movs	r0, r4
 326 004a 0095     		str	r5, [sp]
 327 004c 02AB     		add	r3, sp, #8
 328 004e FFF7FEFF 		bl	smtc_secure_element_aes_encrypt
 329 0052 1022     		movs	r2, #16
 330 0054 0400     		movs	r4, r0
 331 0056 02A9     		add	r1, sp, #8
 332 0058 3000     		movs	r0, r6
 333 005a FFF7FEFF 		bl	memcpy
 334              	.L38:
 335 005e 2000     		movs	r0, r4
 336 0060 07B0     		add	sp, sp, #28
 337              		@ sp needed
 338 0062 F0BD     		pop	{r4, r5, r6, r7, pc}
 339              	.L37:
 340 0064 2100     		movs	r1, r4
 341 0066 1022     		movs	r2, #16
 342 0068 3000     		movs	r0, r6
 343 006a FFF7FEFF 		bl	memcpy
 344 006e 0024     		movs	r4, #0
 345 0070 F5E7     		b	.L38
 346              	.L35:
 347 0072 0137     		adds	r7, r7, #1
 348 0074 1131     		adds	r1, r1, #17
 349 0076 1A2F     		cmp	r7, #26
 350 0078 CDD1     		bne	.L39
 351 007a 0324     		movs	r4, #3
 352 007c EFE7     		b	.L38
 353              	.L43:
ARM GAS  /tmp/ccozgaod.s 			page 7


 354 007e C046     		.align	2
 355              	.L42:
 356 0080 00000000 		.word	soft_se_data
 357 0084 49020000 		.word	585
 359              		.section	.text.smtc_secure_element_set_key,"ax",%progbits
 360              		.align	1
 361              		.global	smtc_secure_element_set_key
 362              		.syntax unified
 363              		.code	16
 364              		.thumb_func
 365              		.fpu softvfp
 367              	smtc_secure_element_set_key:
 368              		@ args = 0, pretend = 0, frame = 0
 369              		@ frame_needed = 0, uses_anonymous_args = 0
 370 0000 0300     		movs	r3, r0
 371 0002 10B5     		push	{r4, lr}
 372 0004 0220     		movs	r0, #2
 373 0006 0029     		cmp	r1, #0
 374 0008 02D0     		beq	.L45
 375 000a 1800     		movs	r0, r3
 376 000c FFF7FEFF 		bl	smtc_secure_element_set_key.part.0
 377              	.L45:
 378              		@ sp needed
 379 0010 10BD     		pop	{r4, pc}
 381              		.section	.text.smtc_secure_element_derive_and_store_key,"ax",%progbits
 382              		.align	1
 383              		.global	smtc_secure_element_derive_and_store_key
 384              		.syntax unified
 385              		.code	16
 386              		.thumb_func
 387              		.fpu softvfp
 389              	smtc_secure_element_derive_and_store_key:
 390              		@ args = 0, pretend = 0, frame = 16
 391              		@ frame_needed = 0, uses_anonymous_args = 0
 392 0000 F0B5     		push	{r4, r5, r6, r7, lr}
 393 0002 0600     		movs	r6, r0
 394 0004 0F00     		movs	r7, r1
 395 0006 1400     		movs	r4, r2
 396 0008 1D00     		movs	r5, r3
 397 000a 0220     		movs	r0, #2
 398 000c 87B0     		sub	sp, sp, #28
 399 000e 002E     		cmp	r6, #0
 400 0010 18D0     		beq	.L48
 401 0012 0021     		movs	r1, #0
 402 0014 0C22     		movs	r2, #12
 403 0016 03A8     		add	r0, sp, #12
 404 0018 0291     		str	r1, [sp, #8]
 405 001a FFF7FEFF 		bl	memset
 406 001e 7F2C     		cmp	r4, #127
 407 0020 02D1     		bne	.L49
 408 0022 0320     		movs	r0, #3
 409 0024 082F     		cmp	r7, #8
 410 0026 0DD1     		bne	.L48
 411              	.L49:
 412 0028 3A00     		movs	r2, r7
 413 002a 1021     		movs	r1, #16
 414 002c 3000     		movs	r0, r6
ARM GAS  /tmp/ccozgaod.s 			page 8


 415 002e 0095     		str	r5, [sp]
 416 0030 02AB     		add	r3, sp, #8
 417 0032 FFF7FEFF 		bl	smtc_secure_element_aes_encrypt
 418 0036 0028     		cmp	r0, #0
 419 0038 04D1     		bne	.L48
 420 003a 2A00     		movs	r2, r5
 421 003c 2000     		movs	r0, r4
 422 003e 02A9     		add	r1, sp, #8
 423 0040 FFF7FEFF 		bl	smtc_secure_element_set_key.part.0
 424              	.L48:
 425 0044 07B0     		add	sp, sp, #28
 426              		@ sp needed
 427 0046 F0BD     		pop	{r4, r5, r6, r7, pc}
 429              		.section	.text.smtc_secure_element_process_join_accept,"ax",%progbits
 430              		.align	1
 431              		.global	smtc_secure_element_process_join_accept
 432              		.syntax unified
 433              		.code	16
 434              		.thumb_func
 435              		.fpu softvfp
 437              	smtc_secure_element_process_join_accept:
 438              		@ args = 16, pretend = 0, frame = 8
 439              		@ frame_needed = 0, uses_anonymous_args = 0
 440 0000 F0B5     		push	{r4, r5, r6, r7, lr}
 441 0002 85B0     		sub	sp, sp, #20
 442 0004 1C00     		movs	r4, r3
 443 0006 0AAB     		add	r3, sp, #40
 444 0008 1E78     		ldrb	r6, [r3]
 445 000a 0DAB     		add	r3, sp, #52
 446 000c 1B78     		ldrb	r3, [r3]
 447 000e 0B9D     		ldr	r5, [sp, #44]
 448 0010 0293     		str	r3, [sp, #8]
 449 0012 0223     		movs	r3, #2
 450 0014 002C     		cmp	r4, #0
 451 0016 40D0     		beq	.L53
 452 0018 002D     		cmp	r5, #0
 453 001a 3ED0     		beq	.L53
 454 001c 0C9A     		ldr	r2, [sp, #48]
 455 001e 002A     		cmp	r2, #0
 456 0020 3BD0     		beq	.L53
 457 0022 0333     		adds	r3, r3, #3
 458 0024 212E     		cmp	r6, #33
 459 0026 38D8     		bhi	.L53
 460 0028 0127     		movs	r7, #1
 461 002a FF28     		cmp	r0, #255
 462 002c 00D0     		beq	.L54
 463 002e 0237     		adds	r7, r7, #2
 464              	.L54:
 465 0030 3200     		movs	r2, r6
 466 0032 2100     		movs	r1, r4
 467 0034 2800     		movs	r0, r5
 468 0036 FFF7FEFF 		bl	memcpy
 469 003a 029A     		ldr	r2, [sp, #8]
 470 003c B3B2     		uxth	r3, r6
 471 003e 711E     		subs	r1, r6, #1
 472 0040 0393     		str	r3, [sp, #12]
 473 0042 0092     		str	r2, [sp]
ARM GAS  /tmp/ccozgaod.s 			page 9


 474 0044 6B1C     		adds	r3, r5, #1
 475 0046 3A00     		movs	r2, r7
 476 0048 89B2     		uxth	r1, r1
 477 004a 601C     		adds	r0, r4, #1
 478 004c FFF7FEFF 		bl	smtc_secure_element_aes_encrypt
 479 0050 0723     		movs	r3, #7
 480 0052 0028     		cmp	r0, #0
 481 0054 21D1     		bne	.L53
 482 0056 EA7A     		ldrb	r2, [r5, #11]
 483 0058 DA40     		lsrs	r2, r2, r3
 484 005a 0C9B     		ldr	r3, [sp, #48]
 485 005c 1A70     		strb	r2, [r3]
 486 005e 0423     		movs	r3, #4
 487 0060 002A     		cmp	r2, #0
 488 0062 1AD1     		bne	.L53
 489 0064 AB19     		adds	r3, r5, r6
 490 0066 9A1E     		subs	r2, r3, #2
 491 0068 591E     		subs	r1, r3, #1
 492 006a 1278     		ldrb	r2, [r2]
 493 006c 0978     		ldrb	r1, [r1]
 494 006e 1204     		lsls	r2, r2, #16
 495 0070 0906     		lsls	r1, r1, #24
 496 0072 0A43     		orrs	r2, r1
 497 0074 191F     		subs	r1, r3, #4
 498 0076 033B     		subs	r3, r3, #3
 499 0078 0978     		ldrb	r1, [r1]
 500 007a 1B78     		ldrb	r3, [r3]
 501 007c 0A43     		orrs	r2, r1
 502 007e 1B02     		lsls	r3, r3, #8
 503 0080 0399     		ldr	r1, [sp, #12]
 504 0082 1A43     		orrs	r2, r3
 505 0084 029B     		ldr	r3, [sp, #8]
 506 0086 0439     		subs	r1, r1, #4
 507 0088 0093     		str	r3, [sp]
 508 008a 2800     		movs	r0, r5
 509 008c 0123     		movs	r3, #1
 510 008e 89B2     		uxth	r1, r1
 511 0090 FFF7FEFF 		bl	smtc_secure_element_verify_aes_cmac
 512 0094 431E     		subs	r3, r0, #1
 513 0096 9841     		sbcs	r0, r0, r3
 514 0098 C3B2     		uxtb	r3, r0
 515              	.L53:
 516 009a 1800     		movs	r0, r3
 517 009c 05B0     		add	sp, sp, #20
 518              		@ sp needed
 519 009e F0BD     		pop	{r4, r5, r6, r7, pc}
 521              		.section	.text.smtc_secure_element_set_deveui,"ax",%progbits
 522              		.align	1
 523              		.global	smtc_secure_element_set_deveui
 524              		.syntax unified
 525              		.code	16
 526              		.thumb_func
 527              		.fpu softvfp
 529              	smtc_secure_element_set_deveui:
 530              		@ args = 0, pretend = 0, frame = 0
 531              		@ frame_needed = 0, uses_anonymous_args = 0
 532 0000 0300     		movs	r3, r0
ARM GAS  /tmp/ccozgaod.s 			page 10


 533 0002 10B5     		push	{r4, lr}
 534 0004 0220     		movs	r0, #2
 535 0006 002B     		cmp	r3, #0
 536 0008 09D0     		beq	.L63
 537 000a CD30     		adds	r0, r0, #205
 538 000c FF30     		adds	r0, r0, #255
 539 000e 4843     		muls	r0, r1
 540 0010 0349     		ldr	r1, .L65
 541 0012 0822     		movs	r2, #8
 542 0014 4018     		adds	r0, r0, r1
 543 0016 1900     		movs	r1, r3
 544 0018 FFF7FEFF 		bl	memcpy
 545 001c 0020     		movs	r0, #0
 546              	.L63:
 547              		@ sp needed
 548 001e 10BD     		pop	{r4, pc}
 549              	.L66:
 550              		.align	2
 551              	.L65:
 552 0020 00000000 		.word	soft_se_data
 554              		.section	.text.smtc_secure_element_get_deveui,"ax",%progbits
 555              		.align	1
 556              		.global	smtc_secure_element_get_deveui
 557              		.syntax unified
 558              		.code	16
 559              		.thumb_func
 560              		.fpu softvfp
 562              	smtc_secure_element_get_deveui:
 563              		@ args = 0, pretend = 0, frame = 0
 564              		@ frame_needed = 0, uses_anonymous_args = 0
 565 0000 0B00     		movs	r3, r1
 566 0002 0222     		movs	r2, #2
 567 0004 10B5     		push	{r4, lr}
 568 0006 0028     		cmp	r0, #0
 569 0008 08D0     		beq	.L68
 570 000a E721     		movs	r1, #231
 571 000c 4900     		lsls	r1, r1, #1
 572 000e 5943     		muls	r1, r3
 573 0010 034B     		ldr	r3, .L70
 574 0012 0632     		adds	r2, r2, #6
 575 0014 C918     		adds	r1, r1, r3
 576 0016 FFF7FEFF 		bl	memcpy
 577 001a 0022     		movs	r2, #0
 578              	.L68:
 579              		@ sp needed
 580 001c 1000     		movs	r0, r2
 581 001e 10BD     		pop	{r4, pc}
 582              	.L71:
 583              		.align	2
 584              	.L70:
 585 0020 00000000 		.word	soft_se_data
 587              		.section	.text.smtc_secure_element_set_joineui,"ax",%progbits
 588              		.align	1
 589              		.global	smtc_secure_element_set_joineui
 590              		.syntax unified
 591              		.code	16
 592              		.thumb_func
ARM GAS  /tmp/ccozgaod.s 			page 11


 593              		.fpu softvfp
 595              	smtc_secure_element_set_joineui:
 596              		@ args = 0, pretend = 0, frame = 0
 597              		@ frame_needed = 0, uses_anonymous_args = 0
 598 0000 0300     		movs	r3, r0
 599 0002 10B5     		push	{r4, lr}
 600 0004 0220     		movs	r0, #2
 601 0006 002B     		cmp	r3, #0
 602 0008 0AD0     		beq	.L73
 603 000a CD30     		adds	r0, r0, #205
 604 000c FF30     		adds	r0, r0, #255
 605 000e 4843     		muls	r0, r1
 606 0010 0449     		ldr	r1, .L75
 607 0012 0830     		adds	r0, r0, #8
 608 0014 4018     		adds	r0, r0, r1
 609 0016 0822     		movs	r2, #8
 610 0018 1900     		movs	r1, r3
 611 001a FFF7FEFF 		bl	memcpy
 612 001e 0020     		movs	r0, #0
 613              	.L73:
 614              		@ sp needed
 615 0020 10BD     		pop	{r4, pc}
 616              	.L76:
 617 0022 C046     		.align	2
 618              	.L75:
 619 0024 00000000 		.word	soft_se_data
 621              		.section	.text.smtc_secure_element_get_joineui,"ax",%progbits
 622              		.align	1
 623              		.global	smtc_secure_element_get_joineui
 624              		.syntax unified
 625              		.code	16
 626              		.thumb_func
 627              		.fpu softvfp
 629              	smtc_secure_element_get_joineui:
 630              		@ args = 0, pretend = 0, frame = 0
 631              		@ frame_needed = 0, uses_anonymous_args = 0
 632 0000 0B00     		movs	r3, r1
 633 0002 0222     		movs	r2, #2
 634 0004 10B5     		push	{r4, lr}
 635 0006 0028     		cmp	r0, #0
 636 0008 09D0     		beq	.L78
 637 000a E721     		movs	r1, #231
 638 000c 4900     		lsls	r1, r1, #1
 639 000e 5943     		muls	r1, r3
 640 0010 044B     		ldr	r3, .L80
 641 0012 0831     		adds	r1, r1, #8
 642 0014 0632     		adds	r2, r2, #6
 643 0016 C918     		adds	r1, r1, r3
 644 0018 FFF7FEFF 		bl	memcpy
 645 001c 0022     		movs	r2, #0
 646              	.L78:
 647              		@ sp needed
 648 001e 1000     		movs	r0, r2
 649 0020 10BD     		pop	{r4, pc}
 650              	.L81:
 651 0022 C046     		.align	2
 652              	.L80:
ARM GAS  /tmp/ccozgaod.s 			page 12


 653 0024 00000000 		.word	soft_se_data
 655              		.section	.text.smtc_secure_element_set_pin,"ax",%progbits
 656              		.align	1
 657              		.global	smtc_secure_element_set_pin
 658              		.syntax unified
 659              		.code	16
 660              		.thumb_func
 661              		.fpu softvfp
 663              	smtc_secure_element_set_pin:
 664              		@ args = 0, pretend = 0, frame = 0
 665              		@ frame_needed = 0, uses_anonymous_args = 0
 666 0000 0300     		movs	r3, r0
 667 0002 10B5     		push	{r4, lr}
 668 0004 0220     		movs	r0, #2
 669 0006 002B     		cmp	r3, #0
 670 0008 0AD0     		beq	.L83
 671 000a CD30     		adds	r0, r0, #205
 672 000c FF30     		adds	r0, r0, #255
 673 000e 4843     		muls	r0, r1
 674 0010 0449     		ldr	r1, .L85
 675 0012 1030     		adds	r0, r0, #16
 676 0014 4018     		adds	r0, r0, r1
 677 0016 0422     		movs	r2, #4
 678 0018 1900     		movs	r1, r3
 679 001a FFF7FEFF 		bl	memcpy
 680 001e 0020     		movs	r0, #0
 681              	.L83:
 682              		@ sp needed
 683 0020 10BD     		pop	{r4, pc}
 684              	.L86:
 685 0022 C046     		.align	2
 686              	.L85:
 687 0024 00000000 		.word	soft_se_data
 689              		.section	.text.smtc_secure_element_get_pin,"ax",%progbits
 690              		.align	1
 691              		.global	smtc_secure_element_get_pin
 692              		.syntax unified
 693              		.code	16
 694              		.thumb_func
 695              		.fpu softvfp
 697              	smtc_secure_element_get_pin:
 698              		@ args = 0, pretend = 0, frame = 0
 699              		@ frame_needed = 0, uses_anonymous_args = 0
 700 0000 0B00     		movs	r3, r1
 701 0002 0222     		movs	r2, #2
 702 0004 10B5     		push	{r4, lr}
 703 0006 0028     		cmp	r0, #0
 704 0008 09D0     		beq	.L88
 705 000a E721     		movs	r1, #231
 706 000c 4900     		lsls	r1, r1, #1
 707 000e 5943     		muls	r1, r3
 708 0010 044B     		ldr	r3, .L90
 709 0012 1031     		adds	r1, r1, #16
 710 0014 9218     		adds	r2, r2, r2
 711 0016 C918     		adds	r1, r1, r3
 712 0018 FFF7FEFF 		bl	memcpy
 713 001c 0022     		movs	r2, #0
ARM GAS  /tmp/ccozgaod.s 			page 13


 714              	.L88:
 715              		@ sp needed
 716 001e 1000     		movs	r0, r2
 717 0020 10BD     		pop	{r4, pc}
 718              	.L91:
 719 0022 C046     		.align	2
 720              	.L90:
 721 0024 00000000 		.word	soft_se_data
 723              		.section	.text.soft_ce_crc,"ax",%progbits
 724              		.align	1
 725              		.global	soft_ce_crc
 726              		.syntax unified
 727              		.code	16
 728              		.thumb_func
 729              		.fpu softvfp
 731              	soft_ce_crc:
 732              		@ args = 0, pretend = 0, frame = 0
 733              		@ frame_needed = 0, uses_anonymous_args = 0
 734 0000 0123     		movs	r3, #1
 735 0002 70B5     		push	{r4, r5, r6, lr}
 736 0004 0124     		movs	r4, #1
 737 0006 0A4D     		ldr	r5, .L97
 738 0008 5B42     		rsbs	r3, r3, #0
 739 000a 4118     		adds	r1, r0, r1
 740              	.L93:
 741 000c 0A1A     		subs	r2, r1, r0
 742 000e 002A     		cmp	r2, #0
 743 0010 01DC     		bgt	.L95
 744              		@ sp needed
 745 0012 D843     		mvns	r0, r3
 746 0014 70BD     		pop	{r4, r5, r6, pc}
 747              	.L95:
 748 0016 0278     		ldrb	r2, [r0]
 749 0018 5340     		eors	r3, r2
 750 001a 0822     		movs	r2, #8
 751              	.L94:
 752 001c 5E08     		lsrs	r6, r3, #1
 753 001e 2340     		ands	r3, r4
 754 0020 5B42     		rsbs	r3, r3, #0
 755 0022 2B40     		ands	r3, r5
 756 0024 013A     		subs	r2, r2, #1
 757 0026 7340     		eors	r3, r6
 758 0028 002A     		cmp	r2, #0
 759 002a F7D1     		bne	.L94
 760 002c 0130     		adds	r0, r0, #1
 761 002e EDE7     		b	.L93
 762              	.L98:
 763              		.align	2
 764              	.L97:
 765 0030 2083B8ED 		.word	-306674912
 767              		.section	.text.smtc_secure_element_restore_context,"ax",%progbits
 768              		.align	1
 769              		.global	smtc_secure_element_restore_context
 770              		.syntax unified
 771              		.code	16
 772              		.thumb_func
 773              		.fpu softvfp
ARM GAS  /tmp/ccozgaod.s 			page 14


 775              	smtc_secure_element_restore_context:
 776              		@ args = 0, pretend = 0, frame = 936
 777              		@ frame_needed = 0, uses_anonymous_args = 0
 778 0000 70B5     		push	{r4, r5, r6, lr}
 779 0002 EA25     		movs	r5, #234
 780 0004 1A4C     		ldr	r4, .L102
 781 0006 6D00     		lsls	r5, r5, #1
 782 0008 A544     		add	sp, sp, r4
 783 000a 2A00     		movs	r2, r5
 784 000c 0400     		movs	r4, r0
 785 000e 0021     		movs	r1, #0
 786 0010 75A8     		add	r0, sp, #468
 787 0012 FFF7FEFF 		bl	memset
 788 0016 2900     		movs	r1, r5
 789 0018 E826     		movs	r6, #232
 790 001a 2B00     		movs	r3, r5
 791 001c 063D     		subs	r5, r5, #6
 792 001e 6143     		muls	r1, r4
 793 0020 6C43     		muls	r4, r5
 794 0022 75AA     		add	r2, sp, #468
 795 0024 0420     		movs	r0, #4
 796 0026 FFF7FEFF 		bl	smtc_modem_hal_context_restore
 797 002a 1248     		ldr	r0, .L102+4
 798 002c 7600     		lsls	r6, r6, #1
 799 002e 3100     		movs	r1, r6
 800 0030 2418     		adds	r4, r4, r0
 801 0032 75A8     		add	r0, sp, #468
 802 0034 FFF7FEFF 		bl	soft_ce_crc
 803 0038 EA22     		movs	r2, #234
 804 003a 6B46     		mov	r3, sp
 805 003c 5200     		lsls	r2, r2, #1
 806 003e 9B18     		adds	r3, r3, r2
 807 0040 9B59     		ldr	r3, [r3, r6]
 808 0042 2A00     		movs	r2, r5
 809 0044 9842     		cmp	r0, r3
 810 0046 08D1     		bne	.L100
 811 0048 2000     		movs	r0, r4
 812 004a 75A9     		add	r1, sp, #468
 813 004c FFF7FEFF 		bl	memcpy
 814 0050 0020     		movs	r0, #0
 815              	.L101:
 816 0052 EA23     		movs	r3, #234
 817 0054 9B00     		lsls	r3, r3, #2
 818 0056 9D44     		add	sp, sp, r3
 819              		@ sp needed
 820 0058 70BD     		pop	{r4, r5, r6, pc}
 821              	.L100:
 822 005a 0749     		ldr	r1, .L102+8
 823 005c 01A8     		add	r0, sp, #4
 824 005e FFF7FEFF 		bl	memcpy
 825 0062 2A00     		movs	r2, r5
 826 0064 2000     		movs	r0, r4
 827 0066 01A9     		add	r1, sp, #4
 828 0068 FFF7FEFF 		bl	memcpy
 829 006c 0620     		movs	r0, #6
 830 006e F0E7     		b	.L101
 831              	.L103:
ARM GAS  /tmp/ccozgaod.s 			page 15


 832              		.align	2
 833              	.L102:
 834 0070 58FCFFFF 		.word	-936
 835 0074 00000000 		.word	soft_se_data
 836 0078 00000000 		.word	.LC0
 838              		.section	.text.smtc_secure_element_store_context,"ax",%progbits
 839              		.align	1
 840              		.global	smtc_secure_element_store_context
 841              		.syntax unified
 842              		.code	16
 843              		.thumb_func
 844              		.fpu softvfp
 846              	smtc_secure_element_store_context:
 847              		@ args = 0, pretend = 0, frame = 472
 848              		@ frame_needed = 0, uses_anonymous_args = 0
 849 0000 70B5     		push	{r4, r5, r6, lr}
 850 0002 EA25     		movs	r5, #234
 851 0004 F6B0     		sub	sp, sp, #472
 852 0006 6D00     		lsls	r5, r5, #1
 853 0008 0400     		movs	r4, r0
 854 000a 2A00     		movs	r2, r5
 855 000c 0021     		movs	r1, #0
 856 000e 01A8     		add	r0, sp, #4
 857 0010 FFF7FEFF 		bl	memset
 858 0014 E722     		movs	r2, #231
 859 0016 5200     		lsls	r2, r2, #1
 860 0018 1100     		movs	r1, r2
 861 001a E826     		movs	r6, #232
 862 001c 6143     		muls	r1, r4
 863 001e 0D4B     		ldr	r3, .L105
 864 0020 7600     		lsls	r6, r6, #1
 865 0022 C918     		adds	r1, r1, r3
 866 0024 01A8     		add	r0, sp, #4
 867 0026 FFF7FEFF 		bl	memcpy
 868 002a 3100     		movs	r1, r6
 869 002c 01A8     		add	r0, sp, #4
 870 002e FFF7FEFF 		bl	soft_ce_crc
 871 0032 6B46     		mov	r3, sp
 872 0034 2900     		movs	r1, r5
 873 0036 0433     		adds	r3, r3, #4
 874 0038 9851     		str	r0, [r3, r6]
 875 003a 6143     		muls	r1, r4
 876 003c 2B00     		movs	r3, r5
 877 003e 01AA     		add	r2, sp, #4
 878 0040 0420     		movs	r0, #4
 879 0042 FFF7FEFF 		bl	smtc_modem_hal_context_store
 880 0046 2000     		movs	r0, r4
 881 0048 FFF7FEFF 		bl	smtc_secure_element_restore_context
 882 004c 0020     		movs	r0, #0
 883 004e 76B0     		add	sp, sp, #472
 884              		@ sp needed
 885 0050 70BD     		pop	{r4, r5, r6, pc}
 886              	.L106:
 887 0052 C046     		.align	2
 888              	.L105:
 889 0054 00000000 		.word	soft_se_data
 891              		.section	.rodata
ARM GAS  /tmp/ccozgaod.s 			page 16


 892              	.LC0:
 893 0000 00000000 		.ascii	"\000\000\000\000\000\000\000\000"
 893      00000000 
 894 0008 00000000 		.ascii	"\000\000\000\000\000\000\000\000"
 894      00000000 
 895 0010 00000000 		.ascii	"\000\000\000\000"
 896 0014 00       		.byte	0
 897 0015 00000000 		.ascii	"\000\000\000\000\000\000\000\000\000\000\000\000\000"
 897      00000000 
 897      00000000 
 897      00
 898 0022 000000   		.ascii	"\000\000\000"
 899 0025 01       		.byte	1
 900 0026 00000000 		.ascii	"\000\000\000\000\000\000\000\000\000\000\000\000\000"
 900      00000000 
 900      00000000 
 900      00
 901 0033 000000   		.ascii	"\000\000\000"
 902 0036 02       		.byte	2
 903 0037 00000000 		.ascii	"\000\000\000\000\000\000\000\000\000\000\000\000\000"
 903      00000000 
 903      00000000 
 903      00
 904 0044 000000   		.ascii	"\000\000\000"
 905 0047 03       		.byte	3
 906 0048 00000000 		.ascii	"\000\000\000\000\000\000\000\000\000\000\000\000\000"
 906      00000000 
 906      00000000 
 906      00
 907 0055 000000   		.ascii	"\000\000\000"
 908 0058 04       		.byte	4
 909 0059 00000000 		.ascii	"\000\000\000\000\000\000\000\000\000\000\000\000\000"
 909      00000000 
 909      00000000 
 909      00
 910 0066 000000   		.ascii	"\000\000\000"
 911 0069 05       		.byte	5
 912 006a 00000000 		.ascii	"\000\000\000\000\000\000\000\000\000\000\000\000\000"
 912      00000000 
 912      00000000 
 912      00
 913 0077 000000   		.ascii	"\000\000\000"
 914 007a 06       		.byte	6
 915 007b 00000000 		.ascii	"\000\000\000\000\000\000\000\000\000\000\000\000\000"
 915      00000000 
 915      00000000 
 915      00
 916 0088 000000   		.ascii	"\000\000\000"
 917 008b 07       		.byte	7
 918 008c 00000000 		.ascii	"\000\000\000\000\000\000\000\000\000\000\000\000\000"
 918      00000000 
 918      00000000 
 918      00
 919 0099 000000   		.ascii	"\000\000\000"
 920 009c 08       		.byte	8
 921 009d 00000000 		.ascii	"\000\000\000\000\000\000\000\000\000\000\000\000\000"
 921      00000000 
ARM GAS  /tmp/ccozgaod.s 			page 17


 921      00000000 
 921      00
 922 00aa 000000   		.ascii	"\000\000\000"
 923 00ad 7F       		.byte	127
 924 00ae 00000000 		.ascii	"\000\000\000\000\000\000\000\000\000\000\000\000\000"
 924      00000000 
 924      00000000 
 924      00
 925 00bb 000000   		.ascii	"\000\000\000"
 926 00be 80       		.byte	-128
 927 00bf 00000000 		.ascii	"\000\000\000\000\000\000\000\000\000\000\000\000\000"
 927      00000000 
 927      00000000 
 927      00
 928 00cc 000000   		.ascii	"\000\000\000"
 929 00cf 81       		.byte	-127
 930 00d0 00000000 		.ascii	"\000\000\000\000\000\000\000\000\000\000\000\000\000"
 930      00000000 
 930      00000000 
 930      00
 931 00dd 000000   		.ascii	"\000\000\000"
 932 00e0 82       		.byte	-126
 933 00e1 00000000 		.ascii	"\000\000\000\000\000\000\000\000\000\000\000\000\000"
 933      00000000 
 933      00000000 
 933      00
 934 00ee 000000   		.ascii	"\000\000\000"
 935 00f1 83       		.byte	-125
 936 00f2 00000000 		.ascii	"\000\000\000\000\000\000\000\000\000\000\000\000\000"
 936      00000000 
 936      00000000 
 936      00
 937 00ff 000000   		.ascii	"\000\000\000"
 938 0102 84       		.byte	-124
 939 0103 00000000 		.ascii	"\000\000\000\000\000\000\000\000\000\000\000\000\000"
 939      00000000 
 939      00000000 
 939      00
 940 0110 000000   		.ascii	"\000\000\000"
 941 0113 85       		.byte	-123
 942 0114 00000000 		.ascii	"\000\000\000\000\000\000\000\000\000\000\000\000\000"
 942      00000000 
 942      00000000 
 942      00
 943 0121 000000   		.ascii	"\000\000\000"
 944 0124 86       		.byte	-122
 945 0125 00000000 		.ascii	"\000\000\000\000\000\000\000\000\000\000\000\000\000"
 945      00000000 
 945      00000000 
 945      00
 946 0132 000000   		.ascii	"\000\000\000"
 947 0135 87       		.byte	-121
 948 0136 00000000 		.ascii	"\000\000\000\000\000\000\000\000\000\000\000\000\000"
 948      00000000 
 948      00000000 
 948      00
 949 0143 000000   		.ascii	"\000\000\000"
ARM GAS  /tmp/ccozgaod.s 			page 18


 950 0146 88       		.byte	-120
 951 0147 00000000 		.ascii	"\000\000\000\000\000\000\000\000\000\000\000\000\000"
 951      00000000 
 951      00000000 
 951      00
 952 0154 000000   		.ascii	"\000\000\000"
 953 0157 89       		.byte	-119
 954 0158 00000000 		.ascii	"\000\000\000\000\000\000\000\000\000\000\000\000\000"
 954      00000000 
 954      00000000 
 954      00
 955 0165 000000   		.ascii	"\000\000\000"
 956 0168 8A       		.byte	-118
 957 0169 00000000 		.ascii	"\000\000\000\000\000\000\000\000\000\000\000\000\000"
 957      00000000 
 957      00000000 
 957      00
 958 0176 000000   		.ascii	"\000\000\000"
 959 0179 8B       		.byte	-117
 960 017a 00000000 		.ascii	"\000\000\000\000\000\000\000\000\000\000\000\000\000"
 960      00000000 
 960      00000000 
 960      00
 961 0187 000000   		.ascii	"\000\000\000"
 962 018a 8C       		.byte	-116
 963 018b 00000000 		.ascii	"\000\000\000\000\000\000\000\000\000\000\000\000\000"
 963      00000000 
 963      00000000 
 963      00
 964 0198 000000   		.ascii	"\000\000\000"
 965 019b 8D       		.byte	-115
 966 019c 00000000 		.ascii	"\000\000\000\000\000\000\000\000\000\000\000\000\000"
 966      00000000 
 966      00000000 
 966      00
 967 01a9 000000   		.ascii	"\000\000\000"
 968 01ac 8E       		.byte	-114
 969 01ad 00000000 		.ascii	"\000\000\000\000\000\000\000\000\000\000\000\000\000"
 969      00000000 
 969      00000000 
 969      00
 970 01ba 000000   		.ascii	"\000\000\000"
 971 01bd 8F       		.byte	-113
 972 01be 00000000 		.ascii	"\000\000\000\000\000\000\000\000\000\000\000\000\000"
 972      00000000 
 972      00000000 
 972      00
 973 01cb 000000   		.ascii	"\000\000\000"
 974              		.section	.bss.soft_se_data,"aw",%nobits
 977              	soft_se_data:
 978 0000 00000000 		.space	462
 978      00000000 
 978      00000000 
 978      00000000 
 978      00000000 
 979              		.ident	"GCC: (15:10.3-2021.07-4) 10.3.1 20210621 (release)"
ARM GAS  /tmp/ccozgaod.s 			page 19

